 CourseworkBase2020

 Timestamp is 5e77b03b (Sun Mar 22 18:36:43 2020)

 Preferred load address is 00400000

 Start         Length     Name                   Class
 0001:00000000 000078e0H .text$di                CODE
 0001:000078e0 00049ba0H .text$mn                CODE
 0001:00051480 00005740H .text$x                 CODE
 0001:00056bc0 00001012H .text$yd                CODE
 0002:00000000 00000104H .CRT$XCA                DATA
 0002:00000104 00000104H .CRT$XCAA               DATA
 0002:00000208 00000104H .CRT$XCL                DATA
 0002:0000030c 00000104H .CRT$XCU                DATA
 0002:00000410 00000104H .CRT$XCZ                DATA
 0002:00000514 00000104H .CRT$XIA                DATA
 0002:00000618 00000104H .CRT$XIAA               DATA
 0002:0000071c 00000104H .CRT$XIAC               DATA
 0002:00000820 00000104H .CRT$XIZ                DATA
 0002:00000924 00000104H .CRT$XPA                DATA
 0002:00000a28 00000104H .CRT$XPZ                DATA
 0002:00000b2c 00000104H .CRT$XTA                DATA
 0002:00000c30 00000110H .CRT$XTZ                DATA
 0002:00000d40 00007640H .rdata                  DATA
 0002:00008380 00001fa0H .rdata$r                DATA
 0002:0000a320 00000664H .rdata$sxdata           DATA
 0002:0000a984 000001ecH .rdata$zzzdbg           DATA
 0002:0000ab70 00000104H .rtc$IAA                DATA
 0002:0000ac74 00000104H .rtc$IZZ                DATA
 0002:0000ad78 00000104H .rtc$TAA                DATA
 0002:0000ae7c 00000104H .rtc$TZZ                DATA
 0002:0000af80 00004a0fH .xdata$x                DATA
 0002:0000f98f 00000000H .edata                  DATA
 0003:00000000 00000130H .data                   DATA
 0003:00000130 00001358H .data$r                 DATA
 0003:00001488 00000488H .bss                    DATA
 0004:00000000 000004fcH .idata$5                DATA
 0004:000004fc 0000008cH .idata$2                DATA
 0004:00000588 00000014H .idata$3                DATA
 0004:0000059c 000004fcH .idata$4                DATA
 0004:00000a98 00001e59H .idata$6                DATA
 0005:00000000 00000104H .00cfg                  DATA
 0006:00000000 00000170H .rsrc$01                DATA
 0006:00000170 000002ccH .rsrc$02                DATA

  Address         Publics by Value              Rva+Base       Lib:Object

 0000:00000000       ___enclave_config          00000000     <absolute>
 0000:00000000       ___hybrid_code_map_count   00000000     <absolute>
 0000:00000000       ___guard_fids_table        00000000     <absolute>
 0000:00000000       ___guard_fids_count        00000000     <absolute>
 0000:00000000       ___guard_iat_count         00000000     <absolute>
 0000:00000000       ___hybrid_auxiliary_iat    00000000     <absolute>
 0000:00000000       ___guard_longjmp_table     00000000     <absolute>
 0000:00000000       ___guard_iat_table         00000000     <absolute>
 0000:00000000       ___volatile_metadata       00000000     <absolute>
 0000:00000000       ___dynamic_value_reloc_table 00000000     <absolute>
 0000:00000000       ___guard_longjmp_count     00000000     <absolute>
 0000:00000000       ___hybrid_code_map         00000000     <absolute>
 0000:00000100       ___guard_flags             00000100     <absolute>
 0000:0000011f       ___safe_se_handler_count   0000011f     <absolute>
 0000:00000000       ___ImageBase               00400000     <linker-defined>
 0001:000078e0       ??0CW3_Game@@QAE@XZ        004088e0 f   CW3_Game.obj
 0001:00007930       ??1CW3_Game@@UAE@XZ        00408930 f   CW3_Game.obj
 0001:00007970       ?deleteObjectFromArray@CW3_Game@@QAEXH@Z 00408970 f   CW3_Game.obj
 0001:00007b30       ?deleteAllObjectsInArray@CW3_Game@@QAEXXZ 00408b30 f   CW3_Game.obj
 0001:00007bf0       ?virtSetupBackgroundBuffer@CW3_Game@@UAEXXZ 00408bf0 f   CW3_Game.obj
 0001:00008730       ?virtMouseDown@CW3_Game@@UAEXHHH@Z 00409730 f   CW3_Game.obj
 0001:000087d0       ?virtKeyDown@CW3_Game@@UAEXH@Z 004097d0 f   CW3_Game.obj
 0001:00009850       ?virtInitialiseObjects@CW3_Game@@UAEHXZ 0040a850 f   CW3_Game.obj
 0001:00009d50       ?virtDrawStringsOnTop@CW3_Game@@UAEXXZ 0040ad50 f   CW3_Game.obj
 0001:0000a290       ?virtMainLoopDoBeforeUpdate@CW3_Game@@UAEXXZ 0040b290 f   CW3_Game.obj
 0001:0000a2a0       ?pauseAllGameObjects@CW3_Game@@QAEXXZ 0040b2a0 f   CW3_Game.obj
 0001:0000a330       ?unpauseAllGameObjects@CW3_Game@@QAEXXZ 0040b330 f   CW3_Game.obj
 0001:0000a3c0       ??4_Iterator_base12@std@@QAEAAU01@ABU01@@Z 0040b3c0 f i CW3_Game.obj
 0001:0000a440       ??A?$vector@PAVDisplayableObject@@V?$allocator@PAVDisplayableObject@@@std@@@std@@QAEAAPAVDisplayableObject@@I@Z 0040b440 f i CW3_Game.obj
 0001:0000a4c0       ??B?$fpos@U_Mbstatet@@@std@@QBE_JXZ 0040b4c0 f i CW3_Game.obj
 0001:0000a4f0       ??D?$_String_const_iterator@V?$_String_val@U?$_Simple_types@D@std@@@std@@@std@@QBEABDXZ 0040b4f0 f i CW3_Game.obj
 0001:0000a640       ??D?$_Vector_const_iterator@V?$_Vector_val@U?$_Simple_types@PAVDisplayableObject@@@std@@@std@@@std@@QBEABQAVDisplayableObject@@XZ 0040b640 f i CW3_Game.obj
 0001:0000a720       ??E?$_Vector_const_iterator@V?$_Vector_val@U?$_Simple_types@PAVDisplayableObject@@@std@@@std@@@std@@QAEAAV01@XZ 0040b720 f i CW3_Game.obj
 0001:0000a800       ??H?$_Vector_iterator@V?$_Vector_val@U?$_Simple_types@U?$pair@HH@std@@@std@@@std@@@std@@QBE?AV01@H@Z 0040b800 f i CW3_Game.obj
 0001:0000a890       ??R<lambda_4d79bb85f269e6e8002a4599002d832c>@@QBE@QADQBDII1I@Z 0040b890 f i CW3_Game.obj
 0001:0000a8f0       ??R<lambda_ab246b20b9526e2ef7792587e4298a77>@@QBE@QADQBDI1I@Z 0040b8f0 f i CW3_Game.obj
 0001:0000a950       ?_Adjust_manually_vector_aligned@std@@YAXAAPAXAAI@Z 0040b950 f i CW3_Game.obj
 0001:0000aa60       ?_Adopt@_Iterator_base12@std@@QAEXPBU_Container_base12@2@@Z 0040ba60 f i CW3_Game.obj
 0001:0000ab10       ?_Alloc_proxy@?$_Vector_alloc@U?$_Vec_base_types@V?$basic_string@DU?$char_traits@D@std@@V?$allocator@D@2@@std@@V?$allocator@V?$basic_string@DU?$char_traits@D@std@@V?$allocator@D@2@@std@@@2@@std@@@std@@QAEXXZ 0040bb10 f i CW3_Game.obj
 0001:0000ab90       ?_Calculate_growth@?$basic_string@DU?$char_traits@D@std@@V?$allocator@D@2@@std@@QBEII@Z 0040bb90 f i CW3_Game.obj
 0001:0000ac10       ?_Change_array@?$vector@V?$basic_string@DU?$char_traits@D@std@@V?$allocator@D@2@@std@@V?$allocator@V?$basic_string@DU?$char_traits@D@std@@V?$allocator@D@2@@std@@@2@@std@@AAEXQAV?$basic_string@DU?$char_traits@D@std@@V?$allocator@D@2@@2@II@Z 0040bc10 f i CW3_Game.obj
 0001:0000acb0       ?_Clamp_suffix_size@?$_String_val@U?$_Simple_types@D@std@@@std@@QBEIII@Z 0040bcb0 f i CW3_Game.obj
 0001:0000ace0       ?_Compat@?$_Vector_const_iterator@V?$_Vector_val@U?$_Simple_types@PAVDisplayableObject@@@std@@@std@@@std@@QBEXABV12@@Z 0040bce0 f i CW3_Game.obj
 0001:0000ad60       ?_Free_proxy@?$_Vector_alloc@U?$_Vec_base_types@V?$basic_string@DU?$char_traits@D@std@@V?$allocator@D@2@@std@@V?$allocator@V?$basic_string@DU?$char_traits@D@std@@V?$allocator@D@2@@std@@@2@@std@@@std@@QAEXXZ 0040bd60 f i CW3_Game.obj
 0001:0000ade0       ??$?0$$V@?$_Compressed_pair@V?$allocator@D@std@@V?$_String_val@U?$_Simple_types@D@std@@@2@$00@std@@QAE@U_Zero_then_variadic_args_t@1@@Z 0040bde0 f i CW3_Game.obj
 0001:0000ae10       ??$?0$$V@?$_Compressed_pair@V?$allocator@PAVCW3_GameObject@@@std@@V?$_Vector_val@U?$_Simple_types@PAVCW3_GameObject@@@std@@@2@$00@std@@QAE@U_Zero_then_variadic_args_t@1@@Z 0040be10 f i CW3_Game.obj
 0001:0000ae40       ??$?0$$V@?$_Compressed_pair@V?$allocator@U?$pair@HH@std@@@std@@V?$_Vector_val@U?$_Simple_types@U?$pair@HH@std@@@std@@@2@$00@std@@QAE@U_Zero_then_variadic_args_t@1@@Z 0040be40 f i CW3_Game.obj
 0001:0000ae70       ??$?0$$V@?$_Compressed_pair@V?$allocator@V?$basic_string@DU?$char_traits@D@std@@V?$allocator@D@2@@std@@@std@@V?$_Vector_val@U?$_Simple_types@V?$basic_string@DU?$char_traits@D@std@@V?$allocator@D@2@@std@@@std@@@2@$00@std@@QAE@U_Zero_then_variadic_args_t@1@@Z 0040be70 f i CW3_Game.obj
 0001:0000aea0       ??$?0AAHAAH$0A@@?$pair@HH@std@@QAE@AAH0@Z 0040bea0 f i CW3_Game.obj
 0001:0000aef0       ??$?0AAPAV_Facet_base@std@@@?$_Compressed_pair@U?$default_delete@V_Facet_base@std@@@std@@PAV_Facet_base@2@$00@std@@QAE@U_Zero_then_variadic_args_t@1@AAPAV_Facet_base@1@@Z 0040bef0 f i CW3_Game.obj
 0001:0000af20       ??$?0ABV?$allocator@D@std@@$$V@?$_Compressed_pair@V?$allocator@D@std@@V?$_String_val@U?$_Simple_types@D@std@@@2@$00@std@@QAE@U_One_then_variadic_args_t@1@ABV?$allocator@D@1@@Z 0040bf20 f i CW3_Game.obj
 0001:0000af50       ??$?0ABV?$allocator@D@std@@X@?$_String_alloc@U?$_String_base_types@DV?$allocator@D@std@@@std@@@std@@QAE@ABV?$allocator@D@1@@Z 0040bf50 f i CW3_Game.obj
 0001:0000afc0       ?lockForegroundForDrawing@BaseEngine@@QAEXXZ 0040bfc0 f i CW3_Game.obj
 0001:0000afe0       ??$?0D@?$allocator@U_Container_proxy@std@@@std@@QAE@ABV?$allocator@D@1@@Z 0040bfe0 f i CW3_Game.obj
 0001:0000b000       ??$?0PADX@?$basic_string@DU?$char_traits@D@std@@V?$allocator@D@2@@std@@QAE@PAD0ABV?$allocator@D@1@@Z 0040c000 f i CW3_Game.obj
 0001:0000b0c0       ??$?0PAVCW3_GameObject@@@?$allocator@U_Container_proxy@std@@@std@@QAE@ABV?$allocator@PAVCW3_GameObject@@@1@@Z 0040c0c0 f i CW3_Game.obj
 0001:0000b0e0       ??$?0PAV_Facet_base@std@@@?$_Unique_ptr_base@V_Facet_base@std@@U?$default_delete@V_Facet_base@std@@@2@@std@@QAE@PAV_Facet_base@1@@Z 0040c0e0 f i CW3_Game.obj
 0001:0000b110       ??$?0U?$default_delete@V_Facet_base@std@@@std@@$0A@@?$unique_ptr@V_Facet_base@std@@U?$default_delete@V_Facet_base@std@@@2@@std@@QAE@PAV_Facet_base@1@@Z 0040c110 f i CW3_Game.obj
 0001:0000b170       ??$?0U?$integral_constant@_N$00@std@@@_Unused_parameter@std@@QAE@$$QAU?$integral_constant@_N$00@1@@Z 0040c170 f i CW3_Game.obj
 0001:0000b190       ??$?0U?$pair@HH@std@@@?$allocator@U_Container_proxy@std@@@std@@QAE@ABV?$allocator@U?$pair@HH@std@@@1@@Z 0040c190 f i CW3_Game.obj
 0001:0000b1b0       ??$?0V?$allocator@D@std@@$$V@?$_Compressed_pair@V?$allocator@D@std@@V?$_String_val@U?$_Simple_types@D@std@@@2@$00@std@@QAE@U_One_then_variadic_args_t@1@$$QAV?$allocator@D@1@@Z 0040c1b0 f i CW3_Game.obj
 0001:0000b1e0       ??$?0V?$allocator@D@std@@X@?$_String_alloc@U?$_String_base_types@DV?$allocator@D@std@@@std@@@std@@QAE@$$QAV?$allocator@D@1@@Z 0040c1e0 f i CW3_Game.obj
 0001:0000b270       ??$?0V?$allocator@PAVCW3_GameObject@@@std@@$$V@?$_Compressed_pair@V?$allocator@PAVCW3_GameObject@@@std@@V?$_Vector_val@U?$_Simple_types@PAVCW3_GameObject@@@std@@@2@$00@std@@QAE@U_One_then_variadic_args_t@1@$$QAV?$allocator@PAVCW3_GameObject@@@1@@Z 0040c270 f i CW3_Game.obj
 0001:0000b2a0       ??$?0V?$allocator@PAVCW3_GameObject@@@std@@X@?$_Vector_alloc@U?$_Vec_base_types@PAVCW3_GameObject@@V?$allocator@PAVCW3_GameObject@@@std@@@std@@@std@@QAE@$$QAV?$allocator@PAVCW3_GameObject@@@1@@Z 0040c2a0 f i CW3_Game.obj
 0001:0000b2f0       ??$?0V?$basic_string@DU?$char_traits@D@std@@V?$allocator@D@2@@std@@@?$allocator@U_Container_proxy@std@@@std@@QAE@ABV?$allocator@V?$basic_string@DU?$char_traits@D@std@@V?$allocator@D@2@@std@@@1@@Z 0040c2f0 f i CW3_Game.obj
 0001:0000b310       ??$?4HH$0A@@?$pair@HH@std@@QAEAAU01@$$QAU01@@Z 0040c310 f i CW3_Game.obj
 0001:0000b360       ??$?6DU?$char_traits@D@std@@V?$allocator@D@1@@std@@YAAAV?$basic_ostream@DU?$char_traits@D@std@@@0@AAV10@ABV?$basic_string@DU?$char_traits@D@std@@V?$allocator@D@2@@0@@Z 0040c360 f i CW3_Game.obj
 0001:0000b390       ??$?6U?$char_traits@D@std@@@std@@YAAAV?$basic_ostream@DU?$char_traits@D@std@@@0@AAV10@D@Z 0040c390 f i CW3_Game.obj
 0001:0000b680       ?_Getfacet@locale@std@@QBEPBVfacet@12@I@Z 0040c680 f i CW3_Game.obj
 0001:0000b730       ??$?6U?$char_traits@D@std@@@std@@YAAAV?$basic_ostream@DU?$char_traits@D@std@@@0@AAV10@PBD@Z 0040c730 f i CW3_Game.obj
 0001:0000ba60       ?_Getpfirst@_Container_base12@std@@QBEPAPAU_Iterator_base12@2@XZ 0040ca60 f i CW3_Game.obj
 0001:0000ba90       ?_Getstate@?$basic_stringbuf@DU?$char_traits@D@std@@V?$allocator@D@2@@std@@CAHH@Z 0040ca90 f i CW3_Game.obj
 0001:0000baf0       ?_Myptr@?$_String_val@U?$_Simple_types@D@std@@@std@@QBEPBDXZ 0040caf0 f i CW3_Game.obj
 0001:0000bb30       ??$?HDU?$char_traits@D@std@@V?$allocator@D@1@@std@@YA?AV?$basic_string@DU?$char_traits@D@std@@V?$allocator@D@2@@0@$$QAV10@0@Z 0040cb30 f i CW3_Game.obj
 0001:0000bbe0       ?drawForegroundString@BaseEngine@@QAEXHHPBDIPAVFont@@@Z 0040cbe0 f i CW3_Game.obj
 0001:0000bc10       ??$?HDU?$char_traits@D@std@@V?$allocator@D@1@@std@@YA?AV?$basic_string@DU?$char_traits@D@std@@V?$allocator@D@2@@0@ABV10@QBD@Z 0040cc10 f i CW3_Game.obj
 0001:0000bce0       ?getModifiedTime@BaseEngine@@UBEHXZ 0040cce0 f i CW3_Game.obj
 0001:0000bd10       ??$_Adl_verify_range1@PADPAD@std@@YAXABQAD0U?$integral_constant@_N$00@0@@Z 0040cd10 f i CW3_Game.obj
 0001:0000bd30       ??$_Adl_verify_range@PADPAD@std@@YAXABQAD0@Z 0040cd30 f i CW3_Game.obj
 0001:0000bd60       ??$_Allocate@$07U_Default_allocate_traits@std@@$0A@@std@@YAPAXI@Z 0040cd60 f i CW3_Game.obj
 0001:0000bda0       ??$_Allocate_manually_vector_aligned@U_Default_allocate_traits@std@@@std@@YAPAXI@Z 0040cda0 f i CW3_Game.obj
 0001:0000be80       ??$_Convert_size@I@std@@YAII@Z 0040ce80 f i CW3_Game.obj
 0001:0000be90       ??$_Copy_memmove@PAPAVCW3_GameObject@@PAPAV1@@std@@YAPAPAVCW3_GameObject@@PAPAV1@00@Z 0040ce90 f i CW3_Game.obj
 0001:0000bee0       ??$_Copy_memmove@PAPAVDisplayableObject@@PAPAV1@@std@@YAPAPAVDisplayableObject@@PAPAV1@00@Z 0040cee0 f i CW3_Game.obj
 0001:0000bf30       ??$_Deallocate@$07$0A@@std@@YAXPAXI@Z 0040cf30 f i CW3_Game.obj
 0001:0000bf70       ??$_Deallocate_plain@V?$allocator@U_Container_proxy@std@@@std@@$0A@@std@@YAXAAV?$allocator@U_Container_proxy@std@@@0@QAU_Container_proxy@0@@Z 0040cf70 f i CW3_Game.obj
 0001:0000bf90       ??$_Destroy_range1@V?$allocator@PAVCW3_GameObject@@@std@@@std@@YAXPAPAVCW3_GameObject@@0AAV?$allocator@PAVCW3_GameObject@@@0@U?$integral_constant@_N$00@0@@Z 0040cf90 f i CW3_Game.obj
 0001:0000bfa0       ??$_Destroy_range1@V?$allocator@PAVDisplayableObject@@@std@@@std@@YAXPAPAVDisplayableObject@@0AAV?$allocator@PAVDisplayableObject@@@0@U?$integral_constant@_N$00@0@@Z 0040cfa0 f i CW3_Game.obj
 0001:0000bfb0       ??$_Destroy_range1@V?$allocator@U?$pair@HH@std@@@std@@@std@@YAXPAU?$pair@HH@0@0AAV?$allocator@U?$pair@HH@std@@@0@U?$integral_constant@_N$00@0@@Z 0040cfb0 f i CW3_Game.obj
 0001:0000bfc0       ??$_Destroy_range1@V?$allocator@V?$basic_string@DU?$char_traits@D@std@@V?$allocator@D@2@@std@@@std@@@std@@YAXPAV?$basic_string@DU?$char_traits@D@std@@V?$allocator@D@2@@0@0AAV?$allocator@V?$basic_string@DU?$char_traits@D@std@@V?$allocator@D@2@@std@@@0@U?$integral_constant@_N$0A@@0@@Z 0040cfc0 f i CW3_Game.obj
 0001:0000c000       ??$_Destroy_range@V?$allocator@PAVCW3_GameObject@@@std@@@std@@YAXPAPAVCW3_GameObject@@0AAV?$allocator@PAVCW3_GameObject@@@0@@Z 0040d000 f i CW3_Game.obj
 0001:0000c030       ??$_Destroy_range@V?$allocator@PAVDisplayableObject@@@std@@@std@@YAXPAPAVDisplayableObject@@0AAV?$allocator@PAVDisplayableObject@@@0@@Z 0040d030 f i CW3_Game.obj
 0001:0000c060       ??$_Destroy_range@V?$allocator@U?$pair@HH@std@@@std@@@std@@YAXPAU?$pair@HH@0@0AAV?$allocator@U?$pair@HH@std@@@0@@Z 0040d060 f i CW3_Game.obj
 0001:0000c090       ??$_Destroy_range@V?$allocator@V?$basic_string@DU?$char_traits@D@std@@V?$allocator@D@2@@std@@@std@@@std@@YAXPAV?$basic_string@DU?$char_traits@D@std@@V?$allocator@D@2@@0@0AAV?$allocator@V?$basic_string@DU?$char_traits@D@std@@V?$allocator@D@2@@std@@@0@@Z 0040d090 f i CW3_Game.obj
 0001:0000c0c0       ??$_Emplace_back@U?$pair@HH@std@@@?$_Uninitialized_backout_al@PAU?$pair@HH@std@@V?$allocator@U?$pair@HH@std@@@2@@std@@QAEX$$QAU?$pair@HH@1@@Z 0040d0c0 f i CW3_Game.obj
 0001:0000c120       ??$_Emplace_back@V?$basic_string@DU?$char_traits@D@std@@V?$allocator@D@2@@std@@@?$_Uninitialized_backout_al@PAV?$basic_string@DU?$char_traits@D@std@@V?$allocator@D@2@@std@@V?$allocator@V?$basic_string@DU?$char_traits@D@std@@V?$allocator@D@2@@std@@@2@@std@@QAEX$$QAV?$basic_string@DU?$char_traits@D@std@@V?$allocator@D@2@@1@@Z 0040d120 f i CW3_Game.obj
 0001:0000c180       ??$_Emplace_back_with_unused_capacity@ABQAVDisplayableObject@@@?$vector@PAVDisplayableObject@@V?$allocator@PAVDisplayableObject@@@std@@@std@@AAE@ABQAVDisplayableObject@@@Z 0040d180 f i CW3_Game.obj
 0001:0000c230       ??$_Emplace_back_with_unused_capacity@ABV?$basic_string@DU?$char_traits@D@std@@V?$allocator@D@2@@std@@@?$vector@V?$basic_string@DU?$char_traits@D@std@@V?$allocator@D@2@@std@@V?$allocator@V?$basic_string@DU?$char_traits@D@std@@V?$allocator@D@2@@std@@@2@@std@@AAE@ABV?$basic_string@DU?$char_traits@D@std@@V?$allocator@D@2@@1@@Z 0040d230 f i CW3_Game.obj
 0001:0000c2e0       ??$_Emplace_back_with_unused_capacity@PAVCW3_GameObject@@@?$vector@PAVCW3_GameObject@@V?$allocator@PAVCW3_GameObject@@@std@@@std@@AAE@$$QAPAVCW3_GameObject@@@Z 0040d2e0 f i CW3_Game.obj
 0001:0000c390       ??$_Emplace_back_with_unused_capacity@U?$pair@HH@std@@@?$vector@U?$pair@HH@std@@V?$allocator@U?$pair@HH@std@@@2@@std@@AAE@$$QAU?$pair@HH@1@@Z 0040d390 f i CW3_Game.obj
 0001:0000c440       ??$_Emplace_back_with_unused_capacity@V?$basic_string@DU?$char_traits@D@std@@V?$allocator@D@2@@std@@@?$vector@V?$basic_string@DU?$char_traits@D@std@@V?$allocator@D@2@@std@@V?$allocator@V?$basic_string@DU?$char_traits@D@std@@V?$allocator@D@2@@std@@@2@@std@@AAE@$$QAV?$basic_string@DU?$char_traits@D@std@@V?$allocator@D@2@@1@@Z 0040d440 f i CW3_Game.obj
 0001:0000c4f0       ??$_Emplace_reallocate@ABQAVDisplayableObject@@@?$vector@PAVDisplayableObject@@V?$allocator@PAVDisplayableObject@@@std@@@std@@QAEPAPAVDisplayableObject@@QAPAV2@ABQAV2@@Z 0040d4f0 f i CW3_Game.obj
 0001:0000c6d0       ?_Initcvt@?$basic_filebuf@DU?$char_traits@D@std@@@std@@IAEXABV?$codecvt@DDU_Mbstatet@@@2@@Z 0040d6d0 f i CW3_Game.obj
 0001:0000c740       ??$_Emplace_reallocate@ABV?$basic_string@DU?$char_traits@D@std@@V?$allocator@D@2@@std@@@?$vector@V?$basic_string@DU?$char_traits@D@std@@V?$allocator@D@2@@std@@V?$allocator@V?$basic_string@DU?$char_traits@D@std@@V?$allocator@D@2@@std@@@2@@std@@QAEPAV?$basic_string@DU?$char_traits@D@std@@V?$allocator@D@2@@1@QAV21@ABV21@@Z 0040d740 f i CW3_Game.obj
 0001:0000c920       ?_Set_back@?$basic_filebuf@DU?$char_traits@D@std@@@std@@AAEXXZ 0040d920 f i CW3_Game.obj
 0001:0000c9a0       ??$_Emplace_reallocate@PAVCW3_GameObject@@@?$vector@PAVCW3_GameObject@@V?$allocator@PAVCW3_GameObject@@@std@@@std@@QAEPAPAVCW3_GameObject@@QAPAV2@$$QAPAV2@@Z 0040d9a0 f i CW3_Game.obj
 0001:0000cb80       ?_Tidy_init@?$basic_string@DU?$char_traits@D@std@@V?$allocator@D@2@@std@@QAEXXZ 0040db80 f i CW3_Game.obj
 0001:0000cbf0       ??$_Emplace_reallocate@U?$pair@HH@std@@@?$vector@U?$pair@HH@std@@V?$allocator@U?$pair@HH@std@@@2@@std@@QAEPAU?$pair@HH@1@QAU21@$$QAU21@@Z 0040dbf0 f i CW3_Game.obj
 0001:0000cdd0       ?c_str@?$basic_string@DU?$char_traits@D@std@@V?$allocator@D@2@@std@@QBEPBDXZ 0040ddd0 f i CW3_Game.obj
 0001:0000ce40       ??$_Emplace_reallocate@V?$basic_string@DU?$char_traits@D@std@@V?$allocator@D@2@@std@@@?$vector@V?$basic_string@DU?$char_traits@D@std@@V?$allocator@D@2@@std@@V?$allocator@V?$basic_string@DU?$char_traits@D@std@@V?$allocator@D@2@@std@@@2@@std@@QAEPAV?$basic_string@DU?$char_traits@D@std@@V?$allocator@D@2@@1@QAV21@$$QAV21@@Z 0040de40 f i CW3_Game.obj
 0001:0000d020       ?close@?$basic_filebuf@DU?$char_traits@D@std@@@std@@QAEPAV12@XZ 0040e020 f i CW3_Game.obj
 0001:0000d0a0       ??$_Fgetc@D@std@@YA_NAADPAU_iobuf@@@Z 0040e0a0 f i CW3_Game.obj
 0001:0000d0e0       ??$_Fputc@D@std@@YA_NDPAU_iobuf@@@Z 0040e0e0 f i CW3_Game.obj
 0001:0000d120       ??$_Get_size_of_n@$00@std@@YAII@Z 0040e120 f i CW3_Game.obj
 0001:0000d130       ??$_Get_size_of_n@$03@std@@YAII@Z 0040e130 f i CW3_Game.obj
 0001:0000d170       ??$_Get_size_of_n@$07@std@@YAII@Z 0040e170 f i CW3_Game.obj
 0001:0000d1b0       ??$_Get_size_of_n@$0BM@@std@@YAII@Z 0040e1b0 f i CW3_Game.obj
 0001:0000d1f0       ??$_Get_unwrapped@D@std@@YAPADQAD@Z 0040e1f0 f i CW3_Game.obj
 0001:0000d200       ??$_Get_unwrapped@PAVCW3_GameObject@@@std@@YAPAPAVCW3_GameObject@@QAPAV1@@Z 0040e200 f i CW3_Game.obj
 0001:0000d210       ??$_Get_unwrapped@PAVDisplayableObject@@@std@@YAPAPAVDisplayableObject@@QAPAV1@@Z 0040e210 f i CW3_Game.obj
 0001:0000d220       ??$_Get_unwrapped@U?$pair@HH@std@@@std@@YAPAU?$pair@HH@0@QAU10@@Z 0040e220 f i CW3_Game.obj
 0001:0000d230       ??$_Get_unwrapped@V?$basic_string@DU?$char_traits@D@std@@V?$allocator@D@2@@std@@@std@@YAPAV?$basic_string@DU?$char_traits@D@std@@V?$allocator@D@2@@0@QAV10@@Z 0040e230 f i CW3_Game.obj
 0001:0000d240       ??$_Get_unwrapped_n@PAVCW3_GameObject@@H$0A@@std@@YAPAPAVCW3_GameObject@@QAPAV1@H@Z 0040e240 f i CW3_Game.obj
 0001:0000d250       ??$_Get_unwrapped_n@PAVDisplayableObject@@H$0A@@std@@YAPAPAVDisplayableObject@@QAPAV1@H@Z 0040e250 f i CW3_Game.obj
 0001:0000d260       ??$_Get_unwrapped_n@U?$pair@HH@std@@H$0A@@std@@YAPAU?$pair@HH@0@QAU10@H@Z 0040e260 f i CW3_Game.obj
 0001:0000d270       ??$_Get_unwrapped_n@V?$basic_string@DU?$char_traits@D@std@@V?$allocator@D@2@@std@@H$0A@@std@@YAPAV?$basic_string@DU?$char_traits@D@std@@V?$allocator@D@2@@0@QAV10@H@Z 0040e270 f i CW3_Game.obj
 0001:0000d280       ??$_Idl_distance1@PAPAVCW3_GameObject@@PAPAV1@@std@@YAHABQAPAVCW3_GameObject@@0Urandom_access_iterator_tag@0@@Z 0040e280 f i CW3_Game.obj
 0001:0000d2a0       ??$_Idl_distance1@PAPAVDisplayableObject@@PAPAV1@@std@@YAHABQAPAVDisplayableObject@@0Urandom_access_iterator_tag@0@@Z 0040e2a0 f i CW3_Game.obj
 0001:0000d2c0       ??$_Idl_distance1@PAU?$pair@HH@std@@PAU12@@std@@YAHABQAU?$pair@HH@0@0Urandom_access_iterator_tag@0@@Z 0040e2c0 f i CW3_Game.obj
 0001:0000d2e0       ??$_Idl_distance1@PAV?$basic_string@DU?$char_traits@D@std@@V?$allocator@D@2@@std@@PAV12@@std@@YAHABQAV?$basic_string@DU?$char_traits@D@std@@V?$allocator@D@2@@0@0Urandom_access_iterator_tag@0@@Z 0040e2e0 f i CW3_Game.obj
 0001:0000d300       ??$_Idl_distance@PAPAVCW3_GameObject@@PAPAV1@@std@@YA@ABQAPAVCW3_GameObject@@0@Z 0040e300 f i CW3_Game.obj
 0001:0000d330       ??$_Idl_distance@PAPAVDisplayableObject@@PAPAV1@@std@@YA@ABQAPAVDisplayableObject@@0@Z 0040e330 f i CW3_Game.obj
 0001:0000d360       ??$_Idl_distance@PAU?$pair@HH@std@@PAU12@@std@@YA@ABQAU?$pair@HH@0@0@Z 0040e360 f i CW3_Game.obj
 0001:0000d390       ??$_Idl_distance@PAV?$basic_string@DU?$char_traits@D@std@@V?$allocator@D@2@@std@@PAV12@@std@@YA@ABQAV?$basic_string@DU?$char_traits@D@std@@V?$allocator@D@2@@0@0@Z 0040e390 f i CW3_Game.obj
 0001:0000d3c0       ??$_Insert_string@DU?$char_traits@D@std@@I@std@@YAAAV?$basic_ostream@DU?$char_traits@D@std@@@0@AAV10@QBDI@Z 0040e3c0 f i CW3_Game.obj
 0001:0000d6a0       ?_Tidy_deallocate@?$basic_string@DU?$char_traits@D@std@@V?$allocator@D@2@@std@@QAEXXZ 0040e6a0 f i CW3_Game.obj
 0001:0000d750       ??$_Integral_to_string@DH@std@@YA?AV?$basic_string@DU?$char_traits@D@std@@V?$allocator@D@2@@0@H@Z 0040e750 f i CW3_Game.obj
 0001:0000d820       ??$_Max_value@I@std@@YAABIABI0@Z 0040e820 f i CW3_Game.obj
 0001:0000d860       ??$_Max_value@PAD@std@@YAABQADABQAD0@Z 0040e860 f i CW3_Game.obj
 0001:0000d8a0       ??$_Min_value@I@std@@YAABIABI0@Z 0040e8a0 f i CW3_Game.obj
 0001:0000d8e0       ??$_Move_unchecked1@PAPAVDisplayableObject@@PAPAV1@@std@@YAPAPAVDisplayableObject@@PAPAV1@00U_Trivially_copyable_ptr_iterator_tag@0@@Z 0040e8e0 f i CW3_Game.obj
 0001:0000d900       ??$_Move_unchecked1@PAU?$pair@HH@std@@PAU12@@std@@YAPAU?$pair@HH@0@PAU10@00U_General_ptr_iterator_tag@0@@Z 0040e900 f i CW3_Game.obj
 0001:0000d950       ??$_Move_unchecked@PAPAVDisplayableObject@@PAPAV1@@std@@YAPAPAVDisplayableObject@@PAPAV1@00@Z 0040e950 f i CW3_Game.obj
 0001:0000d9a0       ??$_Move_unchecked@PAU?$pair@HH@std@@PAU12@@std@@YAPAU?$pair@HH@0@PAU10@00@Z 0040e9a0 f i CW3_Game.obj
 0001:0000d9f0       ??$_Ptr_move_cat@PAVCW3_GameObject@@PAV1@@std@@YA?AU_Really_trivial_ptr_iterator_tag@0@ABQAPAVCW3_GameObject@@0@Z 0040e9f0 f i CW3_Game.obj
 0001:0000da00       ??$_Ptr_move_cat@PAVDisplayableObject@@PAV1@@std@@YA?AU_Really_trivial_ptr_iterator_tag@0@ABQAPAVDisplayableObject@@0@Z 0040ea00 f i CW3_Game.obj
 0001:0000da10       ??$_Ptr_move_cat@U?$pair@HH@std@@U12@@std@@YA?AU_General_ptr_iterator_tag@0@ABQAU?$pair@HH@0@0@Z 0040ea10 f i CW3_Game.obj
 0001:0000da30       ??$_Ptr_move_cat@V?$basic_string@DU?$char_traits@D@std@@V?$allocator@D@2@@std@@V12@@std@@YA?AU_General_ptr_iterator_tag@0@ABQAV?$basic_string@DU?$char_traits@D@std@@V?$allocator@D@2@@0@0@Z 0040ea30 f i CW3_Game.obj
 0001:0000da50       ??$_Reallocate_for@V<lambda_9366063389c5f42a00a5088cf24e69de>@@PBD@?$basic_string@DU?$char_traits@D@std@@V?$allocator@D@2@@std@@QAEAAV01@IV<lambda_9366063389c5f42a00a5088cf24e69de>@@PBD@Z 0040ea50 f i CW3_Game.obj
 0001:0000db40       ?lockAndSetupBackground@BaseEngine@@QAEXXZ 0040eb40 f i CW3_Game.obj
 0001:0000db70       ??$_Reallocate_grow_by@V<lambda_15711c68e099a15a58f4d77303cb286d>@@D@?$basic_string@DU?$char_traits@D@std@@V?$allocator@D@2@@std@@QAEAAV01@IV<lambda_15711c68e099a15a58f4d77303cb286d>@@D@Z 0040eb70 f i CW3_Game.obj
 0001:0000dca0       ?close@?$basic_ofstream@DU?$char_traits@D@std@@@std@@QAEXXZ 0040eca0 f i CW3_Game.obj
 0001:0000dcf0       ??$_Reallocate_grow_by@V<lambda_4d79bb85f269e6e8002a4599002d832c>@@IPBDI@?$basic_string@DU?$char_traits@D@std@@V?$allocator@D@2@@std@@QAEAAV01@IV<lambda_4d79bb85f269e6e8002a4599002d832c>@@IPBDI@Z 0040ecf0 f i CW3_Game.obj
 0001:0000de30       ?data@?$basic_string@DU?$char_traits@D@std@@V?$allocator@D@2@@std@@QBEPBDXZ 0040ee30 f i CW3_Game.obj
 0001:0000de80       ??$_Reallocate_grow_by@V<lambda_67d87d4aa1269033985980465fd1d824>@@$$V@?$basic_string@DU?$char_traits@D@std@@V?$allocator@D@2@@std@@QAEAAV01@IV<lambda_67d87d4aa1269033985980465fd1d824>@@@Z 0040ee80 f i CW3_Game.obj
 0001:0000dfb0       ?max_size@?$vector@V?$basic_string@DU?$char_traits@D@std@@V?$allocator@D@2@@std@@V?$allocator@V?$basic_string@DU?$char_traits@D@std@@V?$allocator@D@2@@std@@@2@@std@@QBEIXZ 0040efb0 f i CW3_Game.obj
 0001:0000dff0       ??$_Reallocate_grow_by@V<lambda_ab246b20b9526e2ef7792587e4298a77>@@PBDI@?$basic_string@DU?$char_traits@D@std@@V?$allocator@D@2@@std@@QAEAAV01@IV<lambda_ab246b20b9526e2ef7792587e4298a77>@@PBDI@Z 0040eff0 f i CW3_Game.obj
 0001:0000e130       ?push_back@?$vector@PAVCW3_GameObject@@V?$allocator@PAVCW3_GameObject@@@std@@@std@@QAEX$$QAPAVCW3_GameObject@@@Z 0040f130 f i CW3_Game.obj
 0001:0000e170       ??$_Refancy@PAD$0A@@std@@YAPADPAD@Z 0040f170 f i CW3_Game.obj
 0001:0000e180       ??$_Seek_wrapped@PAVCW3_GameObject@@@std@@YAXAAPAPAVCW3_GameObject@@QAPAV1@@Z 0040f180 f i CW3_Game.obj
 0001:0000e190       ??$_Seek_wrapped@PAVDisplayableObject@@@std@@YAXAAPAPAVDisplayableObject@@QAPAV1@@Z 0040f190 f i CW3_Game.obj
 0001:0000e1a0       ??$_Seek_wrapped@U?$pair@HH@std@@@std@@YAXAAPAU?$pair@HH@0@QAU10@@Z 0040f1a0 f i CW3_Game.obj
 0001:0000e1b0       ??$_Seek_wrapped@V?$basic_string@DU?$char_traits@D@std@@V?$allocator@D@2@@std@@@std@@YAXAAPAV?$basic_string@DU?$char_traits@D@std@@V?$allocator@D@2@@0@QAV10@@Z 0040f1b0 f i CW3_Game.obj
 0001:0000e1c0       ??$_UIntegral_to_buff@DI@std@@YAPADPADI@Z 0040f1c0 f i CW3_Game.obj
 0001:0000e280       ?push_back@?$vector@V?$basic_string@DU?$char_traits@D@std@@V?$allocator@D@2@@std@@V?$allocator@V?$basic_string@DU?$char_traits@D@std@@V?$allocator@D@2@@std@@@2@@std@@QAEX$$QAV?$basic_string@DU?$char_traits@D@std@@V?$allocator@D@2@@2@@Z 0040f280 f i CW3_Game.obj
 0001:0000e2b0       ??$_Unfancy@$$CBD@std@@YAPBDPBD@Z 0040f2b0 f i CW3_Game.obj
 0001:0000e2c0       ??$_Unfancy@D@std@@YAPADPAD@Z 0040f2c0 f i CW3_Game.obj
 0001:0000e2d0       ??$_Unfancy@PAVCW3_GameObject@@@std@@YAPAPAVCW3_GameObject@@PAPAV1@@Z 0040f2d0 f i CW3_Game.obj
 0001:0000e2e0       ??$_Unfancy@PAVDisplayableObject@@@std@@YAPAPAVDisplayableObject@@PAPAV1@@Z 0040f2e0 f i CW3_Game.obj
 0001:0000e2f0       ??$_Unfancy@U?$pair@HH@std@@@std@@YAPAU?$pair@HH@0@PAU10@@Z 0040f2f0 f i CW3_Game.obj
 0001:0000e300       ??$_Unfancy@U_Container_proxy@std@@@std@@YAPAU_Container_proxy@0@PAU10@@Z 0040f300 f i CW3_Game.obj
 0001:0000e310       ??$_Unfancy@V?$basic_string@DU?$char_traits@D@std@@V?$allocator@D@2@@std@@@std@@YAPAV?$basic_string@DU?$char_traits@D@std@@V?$allocator@D@2@@0@PAV10@@Z 0040f310 f i CW3_Game.obj
 0001:0000e320       ??$_Ungetc@D@std@@YA_NABDPAU_iobuf@@@Z 0040f320 f i CW3_Game.obj
 0001:0000e370       ??$_Uninitialized_move@PAPAVCW3_GameObject@@PAPAV1@V?$allocator@PAVCW3_GameObject@@@std@@@std@@YAPAPAVCW3_GameObject@@QAPAV1@0PAPAV1@AAV?$allocator@PAVCW3_GameObject@@@0@@Z 0040f370 f i CW3_Game.obj
 0001:0000e400       ?setMapValue@TileManager@@QAEHHHH@Z 0040f400 f i CW3_Game.obj
 0001:0000e430       ??$_Uninitialized_move@PAPAVDisplayableObject@@PAPAV1@V?$allocator@PAVDisplayableObject@@@std@@@std@@YAPAPAVDisplayableObject@@QAPAV1@0PAPAV1@AAV?$allocator@PAVDisplayableObject@@@0@@Z 0040f430 f i CW3_Game.obj
 0001:0000e4f0       ??$_Uninitialized_move@PAU?$pair@HH@std@@PAU12@V?$allocator@U?$pair@HH@std@@@2@@std@@YAPAU?$pair@HH@0@QAU10@0PAU10@AAV?$allocator@U?$pair@HH@std@@@0@@Z 0040f4f0 f i CW3_Game.obj
 0001:0000e5b0       ??$_Uninitialized_move@PAV?$basic_string@DU?$char_traits@D@std@@V?$allocator@D@2@@std@@PAV12@V?$allocator@V?$basic_string@DU?$char_traits@D@std@@V?$allocator@D@2@@std@@@2@@std@@YAPAV?$basic_string@DU?$char_traits@D@std@@V?$allocator@D@2@@0@QAV10@0PAV10@AAV?$allocator@V?$basic_string@DU?$char_traits@D@std@@V?$allocator@D@2@@std@@@0@@Z 0040f5b0 f i CW3_Game.obj
 0001:0000e670       ??$_Uninitialized_move_al_unchecked@PAU?$pair@HH@std@@PAU12@V?$allocator@U?$pair@HH@std@@@2@@std@@YAPAU?$pair@HH@0@PAU10@QAU10@1AAV?$allocator@U?$pair@HH@std@@@0@U_General_ptr_iterator_tag@0@U_Unused_parameter@0@@Z 0040f670 f i CW3_Game.obj
 0001:0000e730       ??$_Uninitialized_move_al_unchecked@PAV?$basic_string@DU?$char_traits@D@std@@V?$allocator@D@2@@std@@PAV12@V?$allocator@V?$basic_string@DU?$char_traits@D@std@@V?$allocator@D@2@@std@@@2@@std@@YAPAV?$basic_string@DU?$char_traits@D@std@@V?$allocator@D@2@@0@PAV10@QAV10@1AAV?$allocator@V?$basic_string@DU?$char_traits@D@std@@V?$allocator@D@2@@std@@@0@U_General_ptr_iterator_tag@0@U_Unused_parameter@0@@Z 0040f730 f i CW3_Game.obj
 0001:0000e7f0       ??$_Uninitialized_move_al_unchecked@PAVCW3_GameObject@@PAV1@V?$allocator@PAVCW3_GameObject@@@std@@@std@@YAPAPAVCW3_GameObject@@QAPAV1@00AAV?$allocator@PAVCW3_GameObject@@@0@U_Really_trivial_ptr_iterator_tag@0@U?$integral_constant@_N$00@0@@Z 0040f7f0 f i CW3_Game.obj
 0001:0000e810       ??$_Uninitialized_move_al_unchecked@PAVDisplayableObject@@PAV1@V?$allocator@PAVDisplayableObject@@@std@@@std@@YAPAPAVDisplayableObject@@QAPAV1@00AAV?$allocator@PAVDisplayableObject@@@0@U_Really_trivial_ptr_iterator_tag@0@U?$integral_constant@_N$00@0@@Z 0040f810 f i CW3_Game.obj
 0001:0000e830       ??$_Verify_range@D@std@@YAXQBD0@Z 0040f830 f i CW3_Game.obj
 0001:0000e8b0       ??$addressof@$$CBV?$_Vector_val@U?$_Simple_types@PAVDisplayableObject@@@std@@@std@@@std@@YAPBV?$_Vector_val@U?$_Simple_types@PAVDisplayableObject@@@std@@@0@ABV10@@Z 0040f8b0 f i CW3_Game.obj
 0001:0000e8c0       ??$addressof@$$CBV?$codecvt@DDU_Mbstatet@@@std@@@std@@YAPBV?$codecvt@DDU_Mbstatet@@@0@ABV10@@Z 0040f8c0 f i CW3_Game.obj
 0001:0000e8d0       ??$addressof@D@std@@YAPADAAD@Z 0040f8d0 f i CW3_Game.obj
 0001:0000e8e0       ??$addressof@PAD@std@@YAPAPADAAPAD@Z 0040f8e0 f i CW3_Game.obj
 0001:0000e8f0       ??$addressof@V?$_String_val@U?$_Simple_types@D@std@@@std@@@std@@YAPAV?$_String_val@U?$_Simple_types@D@std@@@0@AAV10@@Z 0040f8f0 f i CW3_Game.obj
 0001:0000e900       ??$addressof@V?$_Vector_val@U?$_Simple_types@PAVCW3_GameObject@@@std@@@std@@@std@@YAPAV?$_Vector_val@U?$_Simple_types@PAVCW3_GameObject@@@std@@@0@AAV10@@Z 0040f900 f i CW3_Game.obj
 0001:0000e910       ??$addressof@V?$_Vector_val@U?$_Simple_types@PAVDisplayableObject@@@std@@@std@@@std@@YAPAV?$_Vector_val@U?$_Simple_types@PAVDisplayableObject@@@std@@@0@AAV10@@Z 0040f910 f i CW3_Game.obj
 0001:0000e920       ??$addressof@V?$_Vector_val@U?$_Simple_types@U?$pair@HH@std@@@std@@@std@@@std@@YAPAV?$_Vector_val@U?$_Simple_types@U?$pair@HH@std@@@std@@@0@AAV10@@Z 0040f920 f i CW3_Game.obj
 0001:0000e930       ??$addressof@V?$_Vector_val@U?$_Simple_types@V?$basic_string@DU?$char_traits@D@std@@V?$allocator@D@2@@std@@@std@@@std@@@std@@YAPAV?$_Vector_val@U?$_Simple_types@V?$basic_string@DU?$char_traits@D@std@@V?$allocator@D@2@@std@@@std@@@0@AAV10@@Z 0040f930 f i CW3_Game.obj
 0001:0000e940       ??$construct@PADABQAD@?$_Default_allocator_traits@V?$allocator@D@std@@@std@@SAXAAV?$allocator@D@1@QAPADABQAD@Z 0040f940 f i CW3_Game.obj
 0001:0000e980       ??$construct@PAVCW3_GameObject@@PAV1@@?$_Default_allocator_traits@V?$allocator@PAVCW3_GameObject@@@std@@@std@@SAXAAV?$allocator@PAVCW3_GameObject@@@1@QAPAVCW3_GameObject@@$$QAPAV3@@Z 0040f980 f i CW3_Game.obj
 0001:0000e9c0       ??$construct@PAVDisplayableObject@@ABQAV1@@?$_Default_allocator_traits@V?$allocator@PAVDisplayableObject@@@std@@@std@@SAXAAV?$allocator@PAVDisplayableObject@@@1@QAPAVDisplayableObject@@ABQAV3@@Z 0040f9c0 f i CW3_Game.obj
 0001:0000ea00       ??$construct@U?$pair@HH@std@@U12@@?$_Default_allocator_traits@V?$allocator@U?$pair@HH@std@@@std@@@std@@SAXAAV?$allocator@U?$pair@HH@std@@@1@QAU?$pair@HH@1@$$QAU31@@Z 0040fa00 f i CW3_Game.obj
 0001:0000ea40       ??$construct@U_Container_proxy@std@@U12@@?$_Default_allocator_traits@V?$allocator@U_Container_proxy@std@@@std@@@std@@SAXAAV?$allocator@U_Container_proxy@std@@@1@QAU_Container_proxy@1@$$QAU31@@Z 0040fa40 f i CW3_Game.obj
 0001:0000ea80       ??$construct@V?$basic_string@DU?$char_traits@D@std@@V?$allocator@D@2@@std@@ABV12@@?$_Default_allocator_traits@V?$allocator@V?$basic_string@DU?$char_traits@D@std@@V?$allocator@D@2@@std@@@std@@@std@@SAXAAV?$allocator@V?$basic_string@DU?$char_traits@D@std@@V?$allocator@D@2@@std@@@1@QAV?$basic_string@DU?$char_traits@D@std@@V?$allocator@D@2@@1@ABV31@@Z 0040fa80 f i CW3_Game.obj
 0001:0000eac0       ??$construct@V?$basic_string@DU?$char_traits@D@std@@V?$allocator@D@2@@std@@V12@@?$_Default_allocator_traits@V?$allocator@V?$basic_string@DU?$char_traits@D@std@@V?$allocator@D@2@@std@@@std@@@std@@SAXAAV?$allocator@V?$basic_string@DU?$char_traits@D@std@@V?$allocator@D@2@@std@@@1@QAV?$basic_string@DU?$char_traits@D@std@@V?$allocator@D@2@@1@$$QAV31@@Z 0040fac0 f i CW3_Game.obj
 0001:0000eb00       ??$destroy@PAD@?$_Default_allocator_traits@V?$allocator@D@std@@@std@@SAXAAV?$allocator@D@1@QAPAD@Z 0040fb00 f i CW3_Game.obj
 0001:0000eb10       ??$destroy@PAVDisplayableObject@@@?$_Default_allocator_traits@V?$allocator@PAVDisplayableObject@@@std@@@std@@SAXAAV?$allocator@PAVDisplayableObject@@@1@QAPAVDisplayableObject@@@Z 0040fb10 f i CW3_Game.obj
 0001:0000eb20       ??$destroy@U?$pair@HH@std@@@?$_Default_allocator_traits@V?$allocator@U?$pair@HH@std@@@std@@@std@@SAXAAV?$allocator@U?$pair@HH@std@@@1@QAU?$pair@HH@1@@Z 0040fb20 f i CW3_Game.obj
 0001:0000eb30       ??$destroy@U_Container_proxy@std@@@?$_Default_allocator_traits@V?$allocator@U_Container_proxy@std@@@std@@@std@@SAXAAV?$allocator@U_Container_proxy@std@@@1@QAU_Container_proxy@1@@Z 0040fb30 f i CW3_Game.obj
 0001:0000eb40       ??$destroy@V?$basic_string@DU?$char_traits@D@std@@V?$allocator@D@2@@std@@@?$_Default_allocator_traits@V?$allocator@V?$basic_string@DU?$char_traits@D@std@@V?$allocator@D@2@@std@@@std@@@std@@SAXAAV?$allocator@V?$basic_string@DU?$char_traits@D@std@@V?$allocator@D@2@@std@@@1@QAV?$basic_string@DU?$char_traits@D@std@@V?$allocator@D@2@@1@@Z 0040fb40 f i CW3_Game.obj
 0001:0000eb60       ??$emplace_back@ABQAVDisplayableObject@@@?$vector@PAVDisplayableObject@@V?$allocator@PAVDisplayableObject@@@std@@@std@@QAE@ABQAVDisplayableObject@@@Z 0040fb60 f i CW3_Game.obj
 0001:0000ebd0       ??$emplace_back@ABV?$basic_string@DU?$char_traits@D@std@@V?$allocator@D@2@@std@@@?$vector@V?$basic_string@DU?$char_traits@D@std@@V?$allocator@D@2@@std@@V?$allocator@V?$basic_string@DU?$char_traits@D@std@@V?$allocator@D@2@@std@@@2@@std@@QAE@ABV?$basic_string@DU?$char_traits@D@std@@V?$allocator@D@2@@1@@Z 0040fbd0 f i CW3_Game.obj
 0001:0000ec40       ??$emplace_back@PAVCW3_GameObject@@@?$vector@PAVCW3_GameObject@@V?$allocator@PAVCW3_GameObject@@@std@@@std@@QAE@$$QAPAVCW3_GameObject@@@Z 0040fc40 f i CW3_Game.obj
 0001:0000ecb0       ??$emplace_back@U?$pair@HH@std@@@?$vector@U?$pair@HH@std@@V?$allocator@U?$pair@HH@std@@@2@@std@@QAE@$$QAU?$pair@HH@1@@Z 0040fcb0 f i CW3_Game.obj
 0001:0000ed20       ??$emplace_back@V?$basic_string@DU?$char_traits@D@std@@V?$allocator@D@2@@std@@@?$vector@V?$basic_string@DU?$char_traits@D@std@@V?$allocator@D@2@@std@@V?$allocator@V?$basic_string@DU?$char_traits@D@std@@V?$allocator@D@2@@std@@@2@@std@@QAE@$$QAV?$basic_string@DU?$char_traits@D@std@@V?$allocator@D@2@@1@@Z 0040fd20 f i CW3_Game.obj
 0001:0000ed90       ??$end@D$0BF@@std@@YAPADAAY0BF@D@Z 0040fd90 f i CW3_Game.obj
 0001:0000eda0       ??$forward@AAH@std@@YAAAHAAH@Z 0040fda0 f i CW3_Game.obj
 0001:0000edb0       ??$forward@AAPAV_Facet_base@std@@@std@@YAAAPAV_Facet_base@0@AAPAV10@@Z 0040fdb0 f i CW3_Game.obj
 0001:0000edc0       ??$forward@ABQAD@std@@YAABQADABQAD@Z 0040fdc0 f i CW3_Game.obj
 0001:0000edd0       ??$forward@ABQAVDisplayableObject@@@std@@YAABQAVDisplayableObject@@ABQAV1@@Z 0040fdd0 f i CW3_Game.obj
 0001:0000ede0       ??$forward@ABV?$allocator@D@std@@@std@@YAABV?$allocator@D@0@ABV10@@Z 0040fde0 f i CW3_Game.obj
 0001:0000edf0       ??$forward@ABV?$basic_string@DU?$char_traits@D@std@@V?$allocator@D@2@@std@@@std@@YAABV?$basic_string@DU?$char_traits@D@std@@V?$allocator@D@2@@0@ABV10@@Z 0040fdf0 f i CW3_Game.obj
 0001:0000ee00       ??$forward@H@std@@YA$$QAHAAH@Z 0040fe00 f i CW3_Game.obj
 0001:0000ee10       ??$forward@PAVCW3_GameObject@@@std@@YA$$QAPAVCW3_GameObject@@AAPAV1@@Z 0040fe10 f i CW3_Game.obj
 0001:0000ee20       ??$forward@U?$pair@HH@std@@@std@@YA$$QAU?$pair@HH@0@AAU10@@Z 0040fe20 f i CW3_Game.obj
 0001:0000ee30       ??$forward@U_Container_proxy@std@@@std@@YA$$QAU_Container_proxy@0@AAU10@@Z 0040fe30 f i CW3_Game.obj
 0001:0000ee40       ??$forward@V?$allocator@D@std@@@std@@YA$$QAV?$allocator@D@0@AAV10@@Z 0040fe40 f i CW3_Game.obj
 0001:0000ee50       ??$forward@V?$allocator@PAVCW3_GameObject@@@std@@@std@@YA$$QAV?$allocator@PAVCW3_GameObject@@@0@AAV10@@Z 0040fe50 f i CW3_Game.obj
 0001:0000ee60       ??$forward@V?$basic_string@DU?$char_traits@D@std@@V?$allocator@D@2@@std@@@std@@YA$$QAV?$basic_string@DU?$char_traits@D@std@@V?$allocator@D@2@@0@AAV10@@Z 0040fe60 f i CW3_Game.obj
 0001:0000ee70       ??$getObjectOfType@VCW3_Player@@@CW3_Game@@QAEPAVCW3_Player@@XZ 0040fe70 f i CW3_Game.obj
 0001:0000ef20       ??$getObjectsOfType@VCW3_GameObject@@@CW3_Game@@QAE?AV?$vector@PAVCW3_GameObject@@V?$allocator@PAVCW3_GameObject@@@std@@@std@@XZ 0040ff20 f i CW3_Game.obj
 0001:0000f040       ??$getline@DU?$char_traits@D@std@@V?$allocator@D@2@@std@@YAAAV?$basic_istream@DU?$char_traits@D@std@@@0@$$QAV10@AAV?$basic_string@DU?$char_traits@D@std@@V?$allocator@D@2@@0@D@Z 00410040 f i CW3_Game.obj
 0001:0000f240       ?end@?$vector@PAVDisplayableObject@@V?$allocator@PAVDisplayableObject@@@std@@@std@@QBE?AV?$_Vector_const_iterator@V?$_Vector_val@U?$_Simple_types@PAVDisplayableObject@@@std@@@std@@@2@XZ 00410240 f i CW3_Game.obj
 0001:0000f2c0       ??$getline@DU?$char_traits@D@std@@V?$allocator@D@2@@std@@YAAAV?$basic_istream@DU?$char_traits@D@std@@@0@AAV10@AAV?$basic_string@DU?$char_traits@D@std@@V?$allocator@D@2@@0@@Z 004102c0 f i CW3_Game.obj
 0001:0000f310       ??$getline@DU?$char_traits@D@std@@V?$allocator@D@2@@std@@YAAAV?$basic_istream@DU?$char_traits@D@std@@@0@AAV10@AAV?$basic_string@DU?$char_traits@D@std@@V?$allocator@D@2@@0@D@Z 00410310 f i CW3_Game.obj
 0001:0000f340       ??$make_pair@AAHAAH@std@@YA?AU?$pair@HH@0@AAH0@Z 00410340 f i CW3_Game.obj
 0001:0000f380       ??$move@AAPAVCW3_GameObject@@@std@@YA$$QAPAVCW3_GameObject@@AAPAV1@@Z 00410380 f i CW3_Game.obj
 0001:0000f390       ??$move@AAU?$pair@HH@std@@@std@@YA$$QAU?$pair@HH@0@AAU10@@Z 00410390 f i CW3_Game.obj
 0001:0000f3a0       ??$move@AAV?$allocator@D@std@@@std@@YA$$QAV?$allocator@D@0@AAV10@@Z 004103a0 f i CW3_Game.obj
 0001:0000f3b0       ??$move@AAV?$allocator@PAVCW3_GameObject@@@std@@@std@@YA$$QAV?$allocator@PAVCW3_GameObject@@@0@AAV10@@Z 004103b0 f i CW3_Game.obj
 0001:0000f3c0       ??$move@AAV?$basic_istream@DU?$char_traits@D@std@@@std@@@std@@YA$$QAV?$basic_istream@DU?$char_traits@D@std@@@0@AAV10@@Z 004103c0 f i CW3_Game.obj
 0001:0000f3d0       ??$move@AAV?$basic_string@DU?$char_traits@D@std@@V?$allocator@D@2@@std@@@std@@YA$$QAV?$basic_string@DU?$char_traits@D@std@@V?$allocator@D@2@@0@AAV10@@Z 004103d0 f i CW3_Game.obj
 0001:0000f3e0       ??$move@AAV?$vector@PAVCW3_GameObject@@V?$allocator@PAVCW3_GameObject@@@std@@@std@@@std@@YA$$QAV?$vector@PAVCW3_GameObject@@V?$allocator@PAVCW3_GameObject@@@std@@@0@AAV10@@Z 004103e0 f i CW3_Game.obj
 0001:0000f3f0       ??$use_facet@V?$codecvt@DDU_Mbstatet@@@std@@@std@@YAABV?$codecvt@DDU_Mbstatet@@@0@ABVlocale@0@@Z 004103f0 f i CW3_Game.obj
 0001:0000f510       ?unpause@BaseEngine@@QAEXXZ 00410510 f i CW3_Game.obj
 0001:0000f560       ??0?$_String_alloc@U?$_String_base_types@DV?$allocator@D@std@@@std@@@std@@QAE@XZ 00410560 f i CW3_Game.obj
 0001:0000f5e0       ??0?$_String_const_iterator@V?$_String_val@U?$_Simple_types@D@std@@@std@@@std@@QAE@PBDPBU_Container_base12@1@@Z 004105e0 f i CW3_Game.obj
 0001:0000f620       ??0?$_String_iterator@V?$_String_val@U?$_Simple_types@D@std@@@std@@@std@@QAE@PADPBU_Container_base12@1@@Z 00410620 f i CW3_Game.obj
 0001:0000f650       ??0?$_String_val@U?$_Simple_types@D@std@@@std@@QAE@XZ 00410650 f i CW3_Game.obj
 0001:0000f6a0       ??0?$_Uninitialized_backout_al@PAU?$pair@HH@std@@V?$allocator@U?$pair@HH@std@@@2@@std@@QAE@PAU?$pair@HH@1@AAV?$allocator@U?$pair@HH@std@@@1@@Z 004106a0 f i CW3_Game.obj
 0001:0000f6e0       ??0?$_Uninitialized_backout_al@PAV?$basic_string@DU?$char_traits@D@std@@V?$allocator@D@2@@std@@V?$allocator@V?$basic_string@DU?$char_traits@D@std@@V?$allocator@D@2@@std@@@2@@std@@QAE@PAV?$basic_string@DU?$char_traits@D@std@@V?$allocator@D@2@@1@AAV?$allocator@V?$basic_string@DU?$char_traits@D@std@@V?$allocator@D@2@@std@@@1@@Z 004106e0 f i CW3_Game.obj
 0001:0000f720       ??0?$_Vector_alloc@U?$_Vec_base_types@PAVCW3_GameObject@@V?$allocator@PAVCW3_GameObject@@@std@@@std@@@std@@QAE@XZ 00410720 f i CW3_Game.obj
 0001:0000f750       ??0?$_Vector_alloc@U?$_Vec_base_types@U?$pair@HH@std@@V?$allocator@U?$pair@HH@std@@@2@@std@@@std@@QAE@XZ 00410750 f i CW3_Game.obj
 0001:0000f780       ??0?$_Vector_alloc@U?$_Vec_base_types@V?$basic_string@DU?$char_traits@D@std@@V?$allocator@D@2@@std@@V?$allocator@V?$basic_string@DU?$char_traits@D@std@@V?$allocator@D@2@@std@@@2@@std@@@std@@QAE@XZ 00410780 f i CW3_Game.obj
 0001:0000f7b0       ??0?$_Vector_const_iterator@V?$_Vector_val@U?$_Simple_types@PAVDisplayableObject@@@std@@@std@@@std@@QAE@$$QAV01@@Z 004107b0 f i CW3_Game.obj
 0001:0000f7f0       ??0?$_Vector_const_iterator@V?$_Vector_val@U?$_Simple_types@PAVDisplayableObject@@@std@@@std@@@std@@QAE@ABV01@@Z 004107f0 f i CW3_Game.obj
 0001:0000f830       ??0?$_Vector_const_iterator@V?$_Vector_val@U?$_Simple_types@PAVDisplayableObject@@@std@@@std@@@std@@QAE@PAPAVDisplayableObject@@PBU_Container_base12@1@@Z 00410830 f i CW3_Game.obj
 0001:0000f870       ??0?$_Vector_const_iterator@V?$_Vector_val@U?$_Simple_types@U?$pair@HH@std@@@std@@@std@@@std@@QAE@$$QAV01@@Z 00410870 f i CW3_Game.obj
 0001:0000f8b0       ??0?$_Vector_const_iterator@V?$_Vector_val@U?$_Simple_types@U?$pair@HH@std@@@std@@@std@@@std@@QAE@ABV01@@Z 004108b0 f i CW3_Game.obj
 0001:0000f8f0       ??0?$_Vector_const_iterator@V?$_Vector_val@U?$_Simple_types@U?$pair@HH@std@@@std@@@std@@@std@@QAE@PAU?$pair@HH@1@PBU_Container_base12@1@@Z 004108f0 f i CW3_Game.obj
 0001:0000f930       ??0?$_Vector_iterator@V?$_Vector_val@U?$_Simple_types@PAVDisplayableObject@@@std@@@std@@@std@@QAE@ABV01@@Z 00410930 f i CW3_Game.obj
 0001:0000f960       ??0?$_Vector_iterator@V?$_Vector_val@U?$_Simple_types@PAVDisplayableObject@@@std@@@std@@@std@@QAE@PAPAVDisplayableObject@@PBU_Container_base12@1@@Z 00410960 f i CW3_Game.obj
 0001:0000f990       ??0?$_Vector_iterator@V?$_Vector_val@U?$_Simple_types@U?$pair@HH@std@@@std@@@std@@@std@@QAE@ABV01@@Z 00410990 f i CW3_Game.obj
 0001:0000f9c0       ??0?$_Vector_iterator@V?$_Vector_val@U?$_Simple_types@U?$pair@HH@std@@@std@@@std@@@std@@QAE@PAU?$pair@HH@1@PBU_Container_base12@1@@Z 004109c0 f i CW3_Game.obj
 0001:0000f9f0       ??0?$_Vector_val@U?$_Simple_types@PAVCW3_GameObject@@@std@@@std@@QAE@XZ 004109f0 f i CW3_Game.obj
 0001:0000fa40       ??0?$_Vector_val@U?$_Simple_types@U?$pair@HH@std@@@std@@@std@@QAE@XZ 00410a40 f i CW3_Game.obj
 0001:0000fa90       ??0?$_Vector_val@U?$_Simple_types@V?$basic_string@DU?$char_traits@D@std@@V?$allocator@D@2@@std@@@std@@@std@@QAE@XZ 00410a90 f i CW3_Game.obj
 0001:0000fae0       ??0?$allocator@D@std@@QAE@XZ 00410ae0 f i CW3_Game.obj
 0001:0000fb00       ??0?$allocator@PAVCW3_GameObject@@@std@@QAE@XZ 00410b00 f i CW3_Game.obj
 0001:0000fb20       ??0?$allocator@U?$pair@HH@std@@@std@@QAE@XZ 00410b20 f i CW3_Game.obj
 0001:0000fb40       ??0?$allocator@V?$basic_string@DU?$char_traits@D@std@@V?$allocator@D@2@@std@@@std@@QAE@XZ 00410b40 f i CW3_Game.obj
 0001:0000fb60       ??0?$basic_filebuf@DU?$char_traits@D@std@@@std@@QAE@PAU_iobuf@@@Z 00410b60 f i CW3_Game.obj
 0001:0000fbf0       ??0?$basic_ifstream@DU?$char_traits@D@std@@@std@@QAE@PBDHH@Z 00410bf0 f i CW3_Game.obj
 0001:0000fd00       _sprintf                   00410d00 f i CW3_Game.obj
 0001:0000fd40       ??0?$basic_ofstream@DU?$char_traits@D@std@@@std@@QAE@PBDHH@Z 00410d40 f i CW3_Game.obj
 0001:0000fe90       ??0?$basic_string@DU?$char_traits@D@std@@V?$allocator@D@2@@std@@QAE@$$QAV01@@Z 00410e90 f i CW3_Game.obj
 0001:0000ff30       ??0?$basic_string@DU?$char_traits@D@std@@V?$allocator@D@2@@std@@QAE@ABV01@@Z 00410f30 f i CW3_Game.obj
 0001:0000ffd0       ??0?$basic_string@DU?$char_traits@D@std@@V?$allocator@D@2@@std@@QAE@XZ 00410fd0 f i CW3_Game.obj
 0001:00010030       ??0?$basic_stringbuf@DU?$char_traits@D@std@@V?$allocator@D@2@@std@@QAE@ABV?$basic_string@DU?$char_traits@D@std@@V?$allocator@D@2@@1@H@Z 00411030 f i CW3_Game.obj
 0001:000100f0       ??0?$basic_stringstream@DU?$char_traits@D@std@@V?$allocator@D@2@@std@@QAE@ABV?$basic_string@DU?$char_traits@D@std@@V?$allocator@D@2@@1@H@Z 004110f0 f i CW3_Game.obj
 0001:00010200       ??0?$fpos@U_Mbstatet@@@std@@QAE@U_Mbstatet@@_J@Z 00411200 f i CW3_Game.obj
 0001:00010250       ??0?$fpos@U_Mbstatet@@@std@@QAE@_J@Z 00411250 f i CW3_Game.obj
 0001:000102a0       ??0?$vector@PAVCW3_GameObject@@V?$allocator@PAVCW3_GameObject@@@std@@@std@@QAE@$$QAV01@@Z 004112a0 f i CW3_Game.obj
 0001:00010340       ??0?$vector@PAVCW3_GameObject@@V?$allocator@PAVCW3_GameObject@@@std@@@std@@QAE@XZ 00411340 f i CW3_Game.obj
 0001:00010390       ??0?$vector@U?$pair@HH@std@@V?$allocator@U?$pair@HH@std@@@2@@std@@QAE@XZ 00411390 f i CW3_Game.obj
 0001:000103e0       ??0?$vector@V?$basic_string@DU?$char_traits@D@std@@V?$allocator@D@2@@std@@V?$allocator@V?$basic_string@DU?$char_traits@D@std@@V?$allocator@D@2@@std@@@2@@std@@QAE@XZ 004113e0 f i CW3_Game.obj
 0001:00010430       ??0_Bxty@?$_String_val@U?$_Simple_types@D@std@@@std@@QAE@XZ 00411430 f i CW3_Game.obj
 0001:00010450       ??0_Container_base12@std@@QAE@XZ 00411450 f i CW3_Game.obj
 0001:00010470       ??0_Container_proxy@std@@QAE@XZ 00411470 f i CW3_Game.obj
 0001:000104a0       ??0_Iterator_base12@std@@QAE@ABU01@@Z 004114a0 f i CW3_Game.obj
 0001:000104e0       ??0_Iterator_base12@std@@QAE@XZ 004114e0 f i CW3_Game.obj
 0001:00010510       ??0_Sentry_base@?$basic_istream@DU?$char_traits@D@std@@@std@@QAE@AAV12@@Z 00411510 f i CW3_Game.obj
 0001:00010590       ??0_Sentry_base@?$basic_ostream@DU?$char_traits@D@std@@@std@@QAE@AAV12@@Z 00411590 f i CW3_Game.obj
 0001:00010610       ??0bad_cast@std@@QAE@ABV01@@Z 00411610 f i CW3_Game.obj
 0001:00010640       ??0bad_cast@std@@QAE@XZ    00411640 f i CW3_Game.obj
 0001:00010670       ??0exception@std@@QAE@ABV01@@Z 00411670 f i CW3_Game.obj
 0001:000106c0       ??0exception@std@@QAE@QBDH@Z 004116c0 f i CW3_Game.obj
 0001:00010700       ??0sentry@?$basic_istream@DU?$char_traits@D@std@@@std@@QAE@AAV12@_N@Z 00411700 f i CW3_Game.obj
 0001:00010790       ??0sentry@?$basic_ostream@DU?$char_traits@D@std@@@std@@QAE@AAV12@@Z 00411790 f i CW3_Game.obj
 0001:00010890       ??1?$_Compressed_pair@V?$allocator@D@std@@V?$_String_val@U?$_Simple_types@D@std@@@2@$00@std@@QAE@XZ 00411890 f i CW3_Game.obj
 0001:000108b0       ??1?$_String_alloc@U?$_String_base_types@DV?$allocator@D@std@@@std@@@std@@QAE@XZ 004118b0 f i CW3_Game.obj
 0001:00010910       ??1?$_String_const_iterator@V?$_String_val@U?$_Simple_types@D@std@@@std@@@std@@QAE@XZ 00411910 f i CW3_Game.obj
 0001:00010930       ??1?$_String_iterator@V?$_String_val@U?$_Simple_types@D@std@@@std@@@std@@QAE@XZ 00411930 f i CW3_Game.obj
 0001:00010950       ??1?$_String_val@U?$_Simple_types@D@std@@@std@@QAE@XZ 00411950 f i CW3_Game.obj
 0001:00010970       ??1?$_Uninitialized_backout_al@PAU?$pair@HH@std@@V?$allocator@U?$pair@HH@std@@@2@@std@@QAE@XZ 00411970 f i CW3_Game.obj
 0001:000109e0       ??1?$_Uninitialized_backout_al@PAV?$basic_string@DU?$char_traits@D@std@@V?$allocator@D@2@@std@@V?$allocator@V?$basic_string@DU?$char_traits@D@std@@V?$allocator@D@2@@std@@@2@@std@@QAE@XZ 004119e0 f i CW3_Game.obj
 0001:00010a50       ??1?$_Vector_alloc@U?$_Vec_base_types@PAVCW3_GameObject@@V?$allocator@PAVCW3_GameObject@@@std@@@std@@@std@@QAE@XZ 00411a50 f i CW3_Game.obj
 0001:00010aa0       ??1?$_Vector_alloc@U?$_Vec_base_types@U?$pair@HH@std@@V?$allocator@U?$pair@HH@std@@@2@@std@@@std@@QAE@XZ 00411aa0 f i CW3_Game.obj
 0001:00010af0       ??1?$_Vector_alloc@U?$_Vec_base_types@V?$basic_string@DU?$char_traits@D@std@@V?$allocator@D@2@@std@@V?$allocator@V?$basic_string@DU?$char_traits@D@std@@V?$allocator@D@2@@std@@@2@@std@@@std@@QAE@XZ 00411af0 f i CW3_Game.obj
 0001:00010b40       ??1?$_Vector_const_iterator@V?$_Vector_val@U?$_Simple_types@PAVDisplayableObject@@@std@@@std@@@std@@QAE@XZ 00411b40 f i CW3_Game.obj
 0001:00010b60       ??1?$_Vector_const_iterator@V?$_Vector_val@U?$_Simple_types@U?$pair@HH@std@@@std@@@std@@@std@@QAE@XZ 00411b60 f i CW3_Game.obj
 0001:00010b80       ??1?$_Vector_iterator@V?$_Vector_val@U?$_Simple_types@PAVDisplayableObject@@@std@@@std@@@std@@QAE@XZ 00411b80 f i CW3_Game.obj
 0001:00010ba0       ??1?$_Vector_iterator@V?$_Vector_val@U?$_Simple_types@U?$pair@HH@std@@@std@@@std@@@std@@QAE@XZ 00411ba0 f i CW3_Game.obj
 0001:00010bc0       ??1?$basic_filebuf@DU?$char_traits@D@std@@@std@@UAE@XZ 00411bc0 f i CW3_Game.obj
 0001:00010c50       ??1?$basic_ifstream@DU?$char_traits@D@std@@@std@@UAE@XZ 00411c50 f i CW3_Game.obj
 0001:00010cc0       ??1?$basic_ofstream@DU?$char_traits@D@std@@@std@@UAE@XZ 00411cc0 f i CW3_Game.obj
 0001:00010d30       ??1?$basic_string@DU?$char_traits@D@std@@V?$allocator@D@2@@std@@QAE@XZ 00411d30 f i CW3_Game.obj
 0001:00010d90       ??1?$basic_stringbuf@DU?$char_traits@D@std@@V?$allocator@D@2@@std@@UAE@XZ 00411d90 f i CW3_Game.obj
 0001:00010e00       ??1?$basic_stringstream@DU?$char_traits@D@std@@V?$allocator@D@2@@std@@UAE@XZ 00411e00 f i CW3_Game.obj
 0001:00010e70       ??1?$unique_ptr@V_Facet_base@std@@U?$default_delete@V_Facet_base@std@@@2@@std@@QAE@XZ 00411e70 f i CW3_Game.obj
 0001:00010eb0       ??1?$vector@PAVCW3_GameObject@@V?$allocator@PAVCW3_GameObject@@@std@@@std@@QAE@XZ 00411eb0 f i CW3_Game.obj
 0001:00010f10       ??1?$vector@U?$pair@HH@std@@V?$allocator@U?$pair@HH@std@@@2@@std@@QAE@XZ 00411f10 f i CW3_Game.obj
 0001:00010f70       ??1?$vector@V?$basic_string@DU?$char_traits@D@std@@V?$allocator@D@2@@std@@V?$allocator@V?$basic_string@DU?$char_traits@D@std@@V?$allocator@D@2@@std@@@2@@std@@QAE@XZ 00411f70 f i CW3_Game.obj
 0001:00010fd0       ??1_Bxty@?$_String_val@U?$_Simple_types@D@std@@@std@@QAE@XZ 00411fd0 f i CW3_Game.obj
 0001:00010fe0       ??1_Iterator_base12@std@@QAE@XZ 00411fe0 f i CW3_Game.obj
 0001:00011050       ??1_Sentry_base@?$basic_istream@DU?$char_traits@D@std@@@std@@QAE@XZ 00412050 f i CW3_Game.obj
 0001:000110f0       ??1_Sentry_base@?$basic_ostream@DU?$char_traits@D@std@@@std@@QAE@XZ 004120f0 f i CW3_Game.obj
 0001:00011190       ??1bad_cast@std@@UAE@XZ    00412190 f i CW3_Game.obj
 0001:000111b0       ??1exception@std@@UAE@XZ   004121b0 f i CW3_Game.obj
 0001:000111e0       ??1locale@std@@QAE@XZ      004121e0 f i CW3_Game.obj
 0001:00011280       ??1sentry@?$basic_istream@DU?$char_traits@D@std@@@std@@QAE@XZ 00412280 f i CW3_Game.obj
 0001:000112a0       ??1sentry@?$basic_ostream@DU?$char_traits@D@std@@@std@@QAE@XZ 004122a0 f i CW3_Game.obj
 0001:00011310       ??2@YAPAXIPAX@Z            00412310 f i CW3_Game.obj
 0001:00011320       ??4?$basic_string@DU?$char_traits@D@std@@V?$allocator@D@2@@std@@QAEAAV01@QBD@Z 00412320 f i CW3_Game.obj
 0001:00011340       ?_Move_from@?$vector@PAVCW3_GameObject@@V?$allocator@PAVCW3_GameObject@@@std@@@std@@AAEX$$QAV12@U?$integral_constant@_N$00@2@@Z 00412340 f i CW3_Game.obj
 0001:00011410       ??8?$_Vector_const_iterator@V?$_Vector_val@U?$_Simple_types@PAVDisplayableObject@@@std@@@std@@@std@@QBE_NABV01@@Z 00412410 f i CW3_Game.obj
 0001:00011460       ??9?$_Vector_const_iterator@V?$_Vector_val@U?$_Simple_types@PAVDisplayableObject@@@std@@@std@@@std@@QBE_NABV01@@Z 00412460 f i CW3_Game.obj
 0001:000114a0       ?append@?$basic_string@DU?$char_traits@D@std@@V?$allocator@D@2@@std@@QAEAAV12@QBDI@Z 004124a0 f i CW3_Game.obj
 0001:00011550       ??Bsentry@?$basic_istream@DU?$char_traits@D@std@@@std@@QBE_NXZ 00412550 f i CW3_Game.obj
 0001:00011570       ??Bsentry@?$basic_ostream@DU?$char_traits@D@std@@@std@@QBE_NXZ 00412570 f i CW3_Game.obj
 0001:00011590       ?_Construct_lv_contents@?$basic_string@DU?$char_traits@D@std@@V?$allocator@D@2@@std@@QAEXABV12@@Z 00412590 f i CW3_Game.obj
 0001:000116a0       ?assign@?$basic_string@DU?$char_traits@D@std@@V?$allocator@D@2@@std@@QAEAAV12@QBDI@Z 004126a0 f i CW3_Game.obj
 0001:00011740       ??D?$_String_iterator@V?$_String_val@U?$_Simple_types@D@std@@@std@@@std@@QBEAADXZ 00412740 f i CW3_Game.obj
 0001:00011760       ?_Endwrite@?$basic_filebuf@DU?$char_traits@D@std@@@std@@IAE_NXZ 00412760 f i CW3_Game.obj
 0001:00011880       ?front@?$basic_string@DU?$char_traits@D@std@@V?$allocator@D@2@@std@@QAEAADXZ 00412880 f i CW3_Game.obj
 0001:00011900       ??E?$_Vector_const_iterator@V?$_Vector_val@U?$_Simple_types@PAVDisplayableObject@@@std@@@std@@@std@@QAE?AV01@H@Z 00412900 f i CW3_Game.obj
 0001:00011990       ?_Init@?$basic_stringbuf@DU?$char_traits@D@std@@V?$allocator@D@2@@std@@IAEXPBDIH@Z 00412990 f i CW3_Game.obj
 0001:00011ac0       ??H?$_Vector_iterator@V?$_Vector_val@U?$_Simple_types@PAVDisplayableObject@@@std@@@std@@@std@@QBE?AV01@H@Z 00412ac0 f i CW3_Game.obj
 0001:00011b50       ?max_size@?$basic_string@DU?$char_traits@D@std@@V?$allocator@D@2@@std@@QBEIXZ 00412b50 f i CW3_Game.obj
 0001:00011be0       ??R<lambda_15711c68e099a15a58f4d77303cb286d>@@QBE@QADQBDID@Z 00412be0 f i CW3_Game.obj
 0001:00011c90       ??R<lambda_67d87d4aa1269033985980465fd1d824>@@QBE@QADQBDI@Z 00412c90 f i CW3_Game.obj
 0001:00011ce0       ??R<lambda_9366063389c5f42a00a5088cf24e69de>@@QBE@QADIQBD@Z 00412ce0 f i CW3_Game.obj
 0001:00011d20       ?setbuf@?$basic_filebuf@DU?$char_traits@D@std@@@std@@MAEPAV?$basic_streambuf@DU?$char_traits@D@std@@@2@PAD_J@Z 00412d20 f i CW3_Game.obj
 0001:00011da0       ??R?$default_delete@V_Facet_base@std@@@std@@QBEXPAV_Facet_base@1@@Z 00412da0 f i CW3_Game.obj
 0001:00011de0       ??Y?$_Vector_const_iterator@V?$_Vector_val@U?$_Simple_types@PAVDisplayableObject@@@std@@@std@@@std@@QAEAAV01@H@Z 00412de0 f i CW3_Game.obj
 0001:00011e20       ??Y?$_Vector_const_iterator@V?$_Vector_val@U?$_Simple_types@U?$pair@HH@std@@@std@@@std@@@std@@QAEAAV01@H@Z 00412e20 f i CW3_Game.obj
 0001:00011e50       ??Y?$_Vector_iterator@V?$_Vector_val@U?$_Simple_types@PAVDisplayableObject@@@std@@@std@@@std@@QAEAAV01@H@Z 00412e50 f i CW3_Game.obj
 0001:00011e80       ??Y?$_Vector_iterator@V?$_Vector_val@U?$_Simple_types@U?$pair@HH@std@@@std@@@std@@@std@@QAEAAV01@H@Z 00412e80 f i CW3_Game.obj
 0001:00011ea0       ??Y?$basic_string@DU?$char_traits@D@std@@V?$allocator@D@2@@std@@QAEAAV01@ABV01@@Z 00412ea0 f i CW3_Game.obj
 0001:00011ed0       ??Y?$basic_string@DU?$char_traits@D@std@@V?$allocator@D@2@@std@@QAEAAV01@D@Z 00412ed0 f i CW3_Game.obj
 0001:00011ef0       ??Y?$basic_string@DU?$char_traits@D@std@@V?$allocator@D@2@@std@@QAEAAV01@QBD@Z 00412ef0 f i CW3_Game.obj
 0001:00011f20       ??_D?$basic_ifstream@DU?$char_traits@D@std@@@std@@QAEXXZ 00412f20 f i CW3_Game.obj
 0001:00011f50       ??_D?$basic_ofstream@DU?$char_traits@D@std@@@std@@QAEXXZ 00412f50 f i CW3_Game.obj
 0001:00011f7a       ??_E?$basic_ifstream@DU?$char_traits@D@std@@@std@@$4PPPPPPPM@A@AEPAXI@Z 00412f7a f i CW3_Game.obj
 0001:00011f84       ??_E?$basic_ofstream@DU?$char_traits@D@std@@@std@@$4PPPPPPPM@A@AEPAXI@Z 00412f84 f i CW3_Game.obj
 0001:00011f8e       ??_E?$basic_stringstream@DU?$char_traits@D@std@@V?$allocator@D@2@@std@@$4PPPPPPPM@A@AEPAXI@Z 00412f8e f i CW3_Game.obj
 0001:00011fa0       ??_D?$basic_stringstream@DU?$char_traits@D@std@@V?$allocator@D@2@@std@@QAEXXZ 00412fa0 f i CW3_Game.obj
 0001:00011fe0       ??_G?$basic_filebuf@DU?$char_traits@D@std@@@std@@UAEPAXI@Z 00412fe0 f i CW3_Game.obj
 0001:00011fe0       ??_E?$basic_filebuf@DU?$char_traits@D@std@@@std@@UAEPAXI@Z 00412fe0 f i CW3_Game.obj
 0001:00012030       ??_G?$basic_ifstream@DU?$char_traits@D@std@@@std@@UAEPAXI@Z 00413030 f i CW3_Game.obj
 0001:00012030       ??_E?$basic_ifstream@DU?$char_traits@D@std@@@std@@UAEPAXI@Z 00413030 f i CW3_Game.obj
 0001:00012080       ??_E?$basic_ofstream@DU?$char_traits@D@std@@@std@@UAEPAXI@Z 00413080 f i CW3_Game.obj
 0001:00012080       ??_G?$basic_ofstream@DU?$char_traits@D@std@@@std@@UAEPAXI@Z 00413080 f i CW3_Game.obj
 0001:000120c0       ??_G?$basic_string@DU?$char_traits@D@std@@V?$allocator@D@2@@std@@QAEPAXI@Z 004130c0 f i CW3_Game.obj
 0001:00012100       ??_E?$basic_stringbuf@DU?$char_traits@D@std@@V?$allocator@D@2@@std@@UAEPAXI@Z 00413100 f i CW3_Game.obj
 0001:00012100       ??_G?$basic_stringbuf@DU?$char_traits@D@std@@V?$allocator@D@2@@std@@UAEPAXI@Z 00413100 f i CW3_Game.obj
 0001:00012150       ??_G?$basic_stringstream@DU?$char_traits@D@std@@V?$allocator@D@2@@std@@UAEPAXI@Z 00413150 f i CW3_Game.obj
 0001:00012150       ??_E?$basic_stringstream@DU?$char_traits@D@std@@V?$allocator@D@2@@std@@UAEPAXI@Z 00413150 f i CW3_Game.obj
 0001:00012190       ??_GCW3_Game@@UAEPAXI@Z    00413190 f i CW3_Game.obj
 0001:00012190       ??_ECW3_Game@@UAEPAXI@Z    00413190 f i CW3_Game.obj
 0001:000121d0       ??_Ebad_cast@std@@UAEPAXI@Z 004131d0 f i CW3_Game.obj
 0001:000121d0       ??_Gbad_cast@std@@UAEPAXI@Z 004131d0 f i CW3_Game.obj
 0001:00012210       ??_Gexception@std@@UAEPAXI@Z 00413210 f i CW3_Game.obj
 0001:00012210       ??_Eexception@std@@UAEPAXI@Z 00413210 f i CW3_Game.obj
 0001:00012240       ?_Orphan_range@?$vector@V?$basic_string@DU?$char_traits@D@std@@V?$allocator@D@2@@std@@V?$allocator@V?$basic_string@DU?$char_traits@D@std@@V?$allocator@D@2@@std@@@2@@std@@ABEXPAV?$basic_string@DU?$char_traits@D@std@@V?$allocator@D@2@@2@0@Z 00413240 f i CW3_Game.obj
 0001:00012300       ?_Verify_offset@?$_Vector_const_iterator@V?$_Vector_val@U?$_Simple_types@U?$pair@HH@std@@@std@@@std@@@std@@QBEXH@Z 00413300 f i CW3_Game.obj
 0001:00012440       ?filter@BaseEngine@@UAE_NPAVDrawingSurface@@AAH1AAI@Z 00413440 f i CW3_Game.obj
 0001:000124e0       ?_Alloc_proxy@?$_String_alloc@U?$_String_base_types@DV?$allocator@D@std@@@std@@@std@@QAEXXZ 004134e0 f i CW3_Game.obj
 0001:00012580       ?_Alloc_proxy@?$_Vector_alloc@U?$_Vec_base_types@PAVCW3_GameObject@@V?$allocator@PAVCW3_GameObject@@@std@@@std@@@std@@QAEXXZ 00413580 f i CW3_Game.obj
 0001:00012620       ?_Alloc_proxy@?$_Vector_alloc@U?$_Vec_base_types@U?$pair@HH@std@@V?$allocator@U?$pair@HH@std@@@2@@std@@@std@@QAEXXZ 00413620 f i CW3_Game.obj
 0001:000126e0       ?_Allocate@_Default_allocate_traits@std@@SAPAXI@Z 004136e0 f i CW3_Game.obj
 0001:00012700       ?destroyOldObjects@DisplayableObjectContainer@@UAEX_N@Z 00413700 f i CW3_Game.obj
 0001:000127c0       ?_Assign_rv_contents_with_alloc_always_equal@?$basic_string@DU?$char_traits@D@std@@V?$allocator@D@2@@std@@QAEX$$QAV12@U?$integral_constant@_N$00@2@@Z 004137c0 f i CW3_Game.obj
 0001:00012880       ?_Become_small@?$basic_string@DU?$char_traits@D@std@@V?$allocator@D@2@@std@@QAEXXZ 00413880 f i CW3_Game.obj
 0001:00012920       __vsnprintf_l              00413920 f i CW3_Game.obj
 0001:00012990       ?_Calculate_growth@?$vector@PAVCW3_GameObject@@V?$allocator@PAVCW3_GameObject@@@std@@@std@@ABEII@Z 00413990 f i CW3_Game.obj
 0001:00012a00       ?_Calculate_growth@?$vector@PAVDisplayableObject@@V?$allocator@PAVDisplayableObject@@@std@@@std@@ABEII@Z 00413a00 f i CW3_Game.obj
 0001:00012a70       ?_Calculate_growth@?$vector@U?$pair@HH@std@@V?$allocator@U?$pair@HH@std@@@2@@std@@ABEII@Z 00413a70 f i CW3_Game.obj
 0001:00012ae0       ?_Calculate_growth@?$vector@V?$basic_string@DU?$char_traits@D@std@@V?$allocator@D@2@@std@@V?$allocator@V?$basic_string@DU?$char_traits@D@std@@V?$allocator@D@2@@std@@@2@@std@@ABEII@Z 00413ae0 f i CW3_Game.obj
 0001:00012ba0       ?_Change_array@?$vector@PAVCW3_GameObject@@V?$allocator@PAVCW3_GameObject@@@std@@@std@@AAEXQAPAVCW3_GameObject@@II@Z 00413ba0 f i CW3_Game.obj
 0001:00012c60       ?_Change_array@?$vector@PAVDisplayableObject@@V?$allocator@PAVDisplayableObject@@@std@@@std@@AAEXQAPAVDisplayableObject@@II@Z 00413c60 f i CW3_Game.obj
 0001:00012d20       ?_Change_array@?$vector@U?$pair@HH@std@@V?$allocator@U?$pair@HH@std@@@2@@std@@AAEXQAU?$pair@HH@2@II@Z 00413d20 f i CW3_Game.obj
 0001:00012e10       ?_Check_offset@?$_String_val@U?$_Simple_types@D@std@@@std@@QBEXI@Z 00413e10 f i CW3_Game.obj
 0001:00012e70       ?_Clrcont@_Iterator_base12@std@@QAEXXZ 00413e70 f i CW3_Game.obj
 0001:00012e90       ?push_back@?$basic_string@DU?$char_traits@D@std@@V?$allocator@D@2@@std@@QAEXD@Z 00413e90 f i CW3_Game.obj
 0001:00012f50       ?_Construct@?$basic_string@DU?$char_traits@D@std@@V?$allocator@D@2@@std@@QAEXQAD0Urandom_access_iterator_tag@2@@Z 00413f50 f i CW3_Game.obj
 0001:00012f90       ?insert@?$basic_string@DU?$char_traits@D@std@@V?$allocator@D@2@@std@@QAEAAV12@IQBDI@Z 00413f90 f i CW3_Game.obj
 0001:000130d0       ?_Destroy@?$vector@PAVCW3_GameObject@@V?$allocator@PAVCW3_GameObject@@@std@@@std@@AAEXPAPAVCW3_GameObject@@0@Z 004140d0 f i CW3_Game.obj
 0001:00013100       ?_Destroy@?$vector@PAVDisplayableObject@@V?$allocator@PAVDisplayableObject@@@std@@@std@@AAEXPAPAVDisplayableObject@@0@Z 00414100 f i CW3_Game.obj
 0001:00013130       ?_Destroy@?$vector@U?$pair@HH@std@@V?$allocator@U?$pair@HH@std@@@2@@std@@AAEXPAU?$pair@HH@2@0@Z 00414130 f i CW3_Game.obj
 0001:00013160       ?_Destroy@?$vector@V?$basic_string@DU?$char_traits@D@std@@V?$allocator@D@2@@std@@V?$allocator@V?$basic_string@DU?$char_traits@D@std@@V?$allocator@D@2@@std@@@2@@std@@AAEXPAV?$basic_string@DU?$char_traits@D@std@@V?$allocator@D@2@@2@0@Z 00414160 f i CW3_Game.obj
 0001:00013190       ?pbackfail@?$basic_filebuf@DU?$char_traits@D@std@@@std@@MAEHH@Z 00414190 f i CW3_Game.obj
 0001:00013310       ?_Eos@?$basic_string@DU?$char_traits@D@std@@V?$allocator@D@2@@std@@QAEXI@Z 00414310 f i CW3_Game.obj
 0001:00013390       ?_Free_proxy@?$_String_alloc@U?$_String_base_types@DV?$allocator@D@std@@@std@@@std@@QAEXXZ 00414390 f i CW3_Game.obj
 0001:00013410       ?_Free_proxy@?$_Vector_alloc@U?$_Vec_base_types@PAVCW3_GameObject@@V?$allocator@PAVCW3_GameObject@@@std@@@std@@@std@@QAEXXZ 00414410 f i CW3_Game.obj
 0001:00013490       ?_Free_proxy@?$_Vector_alloc@U?$_Vec_base_types@U?$pair@HH@std@@V?$allocator@U?$pair@HH@std@@@2@@std@@@std@@QAEXXZ 00414490 f i CW3_Game.obj
 0001:00013530       ?_Get_data@?$_String_alloc@U?$_String_base_types@DV?$allocator@D@std@@@std@@@std@@QAEAAV?$_String_val@U?$_Simple_types@D@std@@@2@XZ 00414530 f i CW3_Game.obj
 0001:00013550       ?_Get_data@?$_String_alloc@U?$_String_base_types@DV?$allocator@D@std@@@std@@@std@@QBEABV?$_String_val@U?$_Simple_types@D@std@@@2@XZ 00414550 f i CW3_Game.obj
 0001:00013570       ?_Get_data@?$_Vector_alloc@U?$_Vec_base_types@PAVCW3_GameObject@@V?$allocator@PAVCW3_GameObject@@@std@@@std@@@std@@QAEAAV?$_Vector_val@U?$_Simple_types@PAVCW3_GameObject@@@std@@@2@XZ 00414570 f i CW3_Game.obj
 0001:00013590       ?_Get_data@?$_Vector_alloc@U?$_Vec_base_types@PAVCW3_GameObject@@V?$allocator@PAVCW3_GameObject@@@std@@@std@@@std@@QBEABV?$_Vector_val@U?$_Simple_types@PAVCW3_GameObject@@@std@@@2@XZ 00414590 f i CW3_Game.obj
 0001:000135b0       ?_Get_data@?$_Vector_alloc@U?$_Vec_base_types@PAVDisplayableObject@@V?$allocator@PAVDisplayableObject@@@std@@@std@@@std@@QAEAAV?$_Vector_val@U?$_Simple_types@PAVDisplayableObject@@@std@@@2@XZ 004145b0 f i CW3_Game.obj
 0001:000135d0       ?_Get_data@?$_Vector_alloc@U?$_Vec_base_types@PAVDisplayableObject@@V?$allocator@PAVDisplayableObject@@@std@@@std@@@std@@QBEABV?$_Vector_val@U?$_Simple_types@PAVDisplayableObject@@@std@@@2@XZ 004145d0 f i CW3_Game.obj
 0001:000135f0       ?_Get_data@?$_Vector_alloc@U?$_Vec_base_types@U?$pair@HH@std@@V?$allocator@U?$pair@HH@std@@@2@@std@@@std@@QAEAAV?$_Vector_val@U?$_Simple_types@U?$pair@HH@std@@@std@@@2@XZ 004145f0 f i CW3_Game.obj
 0001:00013610       ?_Get_data@?$_Vector_alloc@U?$_Vec_base_types@U?$pair@HH@std@@V?$allocator@U?$pair@HH@std@@@2@@std@@@std@@QBEABV?$_Vector_val@U?$_Simple_types@U?$pair@HH@std@@@std@@@2@XZ 00414610 f i CW3_Game.obj
 0001:00013630       ?_Get_data@?$_Vector_alloc@U?$_Vec_base_types@V?$basic_string@DU?$char_traits@D@std@@V?$allocator@D@2@@std@@V?$allocator@V?$basic_string@DU?$char_traits@D@std@@V?$allocator@D@2@@std@@@2@@std@@@std@@QAEAAV?$_Vector_val@U?$_Simple_types@V?$basic_string@DU?$char_traits@D@std@@V?$allocator@D@2@@std@@@std@@@2@XZ 00414630 f i CW3_Game.obj
 0001:00013650       ?_Get_data@?$_Vector_alloc@U?$_Vec_base_types@V?$basic_string@DU?$char_traits@D@std@@V?$allocator@D@2@@std@@V?$allocator@V?$basic_string@DU?$char_traits@D@std@@V?$allocator@D@2@@std@@@2@@std@@@std@@QBEABV?$_Vector_val@U?$_Simple_types@V?$basic_string@DU?$char_traits@D@std@@V?$allocator@D@2@@std@@@std@@@2@XZ 00414650 f i CW3_Game.obj
 0001:00013670       ?_Get_first@?$_Compressed_pair@U?$default_delete@V_Facet_base@std@@@std@@PAV_Facet_base@2@$00@std@@QAEAAU?$default_delete@V_Facet_base@std@@@2@XZ 00414670 f i CW3_Game.obj
 0001:00013690       ?_Get_first@?$_Compressed_pair@V?$allocator@D@std@@V?$_String_val@U?$_Simple_types@D@std@@@2@$00@std@@QAEAAV?$allocator@D@2@XZ 00414690 f i CW3_Game.obj
 0001:000136b0       ?_Get_first@?$_Compressed_pair@V?$allocator@D@std@@V?$_String_val@U?$_Simple_types@D@std@@@2@$00@std@@QBEABV?$allocator@D@2@XZ 004146b0 f i CW3_Game.obj
 0001:000136d0       ?_Get_first@?$_Compressed_pair@V?$allocator@PAVCW3_GameObject@@@std@@V?$_Vector_val@U?$_Simple_types@PAVCW3_GameObject@@@std@@@2@$00@std@@QAEAAV?$allocator@PAVCW3_GameObject@@@2@XZ 004146d0 f i CW3_Game.obj
 0001:000136f0       ?_Get_first@?$_Compressed_pair@V?$allocator@PAVCW3_GameObject@@@std@@V?$_Vector_val@U?$_Simple_types@PAVCW3_GameObject@@@std@@@2@$00@std@@QBEABV?$allocator@PAVCW3_GameObject@@@2@XZ 004146f0 f i CW3_Game.obj
 0001:00013710       ?_Get_first@?$_Compressed_pair@V?$allocator@PAVDisplayableObject@@@std@@V?$_Vector_val@U?$_Simple_types@PAVDisplayableObject@@@std@@@2@$00@std@@QAEAAV?$allocator@PAVDisplayableObject@@@2@XZ 00414710 f i CW3_Game.obj
 0001:00013730       ?_Get_first@?$_Compressed_pair@V?$allocator@PAVDisplayableObject@@@std@@V?$_Vector_val@U?$_Simple_types@PAVDisplayableObject@@@std@@@2@$00@std@@QBEABV?$allocator@PAVDisplayableObject@@@2@XZ 00414730 f i CW3_Game.obj
 0001:00013750       ?_Get_first@?$_Compressed_pair@V?$allocator@U?$pair@HH@std@@@std@@V?$_Vector_val@U?$_Simple_types@U?$pair@HH@std@@@std@@@2@$00@std@@QAEAAV?$allocator@U?$pair@HH@std@@@2@XZ 00414750 f i CW3_Game.obj
 0001:00013770       ?_Get_first@?$_Compressed_pair@V?$allocator@U?$pair@HH@std@@@std@@V?$_Vector_val@U?$_Simple_types@U?$pair@HH@std@@@std@@@2@$00@std@@QBEABV?$allocator@U?$pair@HH@std@@@2@XZ 00414770 f i CW3_Game.obj
 0001:00013790       ?_Get_first@?$_Compressed_pair@V?$allocator@V?$basic_string@DU?$char_traits@D@std@@V?$allocator@D@2@@std@@@std@@V?$_Vector_val@U?$_Simple_types@V?$basic_string@DU?$char_traits@D@std@@V?$allocator@D@2@@std@@@std@@@2@$00@std@@QAEAAV?$allocator@V?$basic_string@DU?$char_traits@D@std@@V?$allocator@D@2@@std@@@2@XZ 00414790 f i CW3_Game.obj
 0001:000137b0       ?_Get_first@?$_Compressed_pair@V?$allocator@V?$basic_string@DU?$char_traits@D@std@@V?$allocator@D@2@@std@@@std@@V?$_Vector_val@U?$_Simple_types@V?$basic_string@DU?$char_traits@D@std@@V?$allocator@D@2@@std@@@std@@@2@$00@std@@QBEABV?$allocator@V?$basic_string@DU?$char_traits@D@std@@V?$allocator@D@2@@std@@@2@XZ 004147b0 f i CW3_Game.obj
 0001:000137d0       ?_Get_second@?$_Compressed_pair@U?$default_delete@V_Facet_base@std@@@std@@PAV_Facet_base@2@$00@std@@QAEAAPAV_Facet_base@2@XZ 004147d0 f i CW3_Game.obj
 0001:000137f0       ?_Get_second@?$_Compressed_pair@U?$default_delete@V_Facet_base@std@@@std@@PAV_Facet_base@2@$00@std@@QBEABQAV_Facet_base@2@XZ 004147f0 f i CW3_Game.obj
 0001:00013810       ?_Get_second@?$_Compressed_pair@V?$allocator@D@std@@V?$_String_val@U?$_Simple_types@D@std@@@2@$00@std@@QAEAAV?$_String_val@U?$_Simple_types@D@std@@@2@XZ 00414810 f i CW3_Game.obj
 0001:00013830       ?_Get_second@?$_Compressed_pair@V?$allocator@D@std@@V?$_String_val@U?$_Simple_types@D@std@@@2@$00@std@@QBEABV?$_String_val@U?$_Simple_types@D@std@@@2@XZ 00414830 f i CW3_Game.obj
 0001:00013850       ?_Get_second@?$_Compressed_pair@V?$allocator@PAVCW3_GameObject@@@std@@V?$_Vector_val@U?$_Simple_types@PAVCW3_GameObject@@@std@@@2@$00@std@@QAEAAV?$_Vector_val@U?$_Simple_types@PAVCW3_GameObject@@@std@@@2@XZ 00414850 f i CW3_Game.obj
 0001:00013870       ?_Get_second@?$_Compressed_pair@V?$allocator@PAVCW3_GameObject@@@std@@V?$_Vector_val@U?$_Simple_types@PAVCW3_GameObject@@@std@@@2@$00@std@@QBEABV?$_Vector_val@U?$_Simple_types@PAVCW3_GameObject@@@std@@@2@XZ 00414870 f i CW3_Game.obj
 0001:00013890       ?_Get_second@?$_Compressed_pair@V?$allocator@PAVDisplayableObject@@@std@@V?$_Vector_val@U?$_Simple_types@PAVDisplayableObject@@@std@@@2@$00@std@@QAEAAV?$_Vector_val@U?$_Simple_types@PAVDisplayableObject@@@std@@@2@XZ 00414890 f i CW3_Game.obj
 0001:000138b0       ?_Get_second@?$_Compressed_pair@V?$allocator@PAVDisplayableObject@@@std@@V?$_Vector_val@U?$_Simple_types@PAVDisplayableObject@@@std@@@2@$00@std@@QBEABV?$_Vector_val@U?$_Simple_types@PAVDisplayableObject@@@std@@@2@XZ 004148b0 f i CW3_Game.obj
 0001:000138d0       ?_Get_second@?$_Compressed_pair@V?$allocator@U?$pair@HH@std@@@std@@V?$_Vector_val@U?$_Simple_types@U?$pair@HH@std@@@std@@@2@$00@std@@QAEAAV?$_Vector_val@U?$_Simple_types@U?$pair@HH@std@@@std@@@2@XZ 004148d0 f i CW3_Game.obj
 0001:000138f0       ?_Get_second@?$_Compressed_pair@V?$allocator@U?$pair@HH@std@@@std@@V?$_Vector_val@U?$_Simple_types@U?$pair@HH@std@@@std@@@2@$00@std@@QBEABV?$_Vector_val@U?$_Simple_types@U?$pair@HH@std@@@std@@@2@XZ 004148f0 f i CW3_Game.obj
 0001:00013910       ?_Get_second@?$_Compressed_pair@V?$allocator@V?$basic_string@DU?$char_traits@D@std@@V?$allocator@D@2@@std@@@std@@V?$_Vector_val@U?$_Simple_types@V?$basic_string@DU?$char_traits@D@std@@V?$allocator@D@2@@std@@@std@@@2@$00@std@@QAEAAV?$_Vector_val@U?$_Simple_types@V?$basic_string@DU?$char_traits@D@std@@V?$allocator@D@2@@std@@@std@@@2@XZ 00414910 f i CW3_Game.obj
 0001:00013930       ?_Get_second@?$_Compressed_pair@V?$allocator@V?$basic_string@DU?$char_traits@D@std@@V?$allocator@D@2@@std@@@std@@V?$_Vector_val@U?$_Simple_types@V?$basic_string@DU?$char_traits@D@std@@V?$allocator@D@2@@std@@@std@@@2@$00@std@@QBEABV?$_Vector_val@U?$_Simple_types@V?$basic_string@DU?$char_traits@D@std@@V?$allocator@D@2@@std@@@std@@@2@XZ 00414930 f i CW3_Game.obj
 0001:00013950       ?_Getal@?$_String_alloc@U?$_String_base_types@DV?$allocator@D@std@@@std@@@std@@QAEAAV?$allocator@D@2@XZ 00414950 f i CW3_Game.obj
 0001:00013970       ?_Getal@?$_String_alloc@U?$_String_base_types@DV?$allocator@D@std@@@std@@@std@@QBEABV?$allocator@D@2@XZ 00414970 f i CW3_Game.obj
 0001:00013990       ?_Getal@?$_Vector_alloc@U?$_Vec_base_types@PAVCW3_GameObject@@V?$allocator@PAVCW3_GameObject@@@std@@@std@@@std@@QAEAAV?$allocator@PAVCW3_GameObject@@@2@XZ 00414990 f i CW3_Game.obj
 0001:000139b0       ?_Getal@?$_Vector_alloc@U?$_Vec_base_types@PAVCW3_GameObject@@V?$allocator@PAVCW3_GameObject@@@std@@@std@@@std@@QBEABV?$allocator@PAVCW3_GameObject@@@2@XZ 004149b0 f i CW3_Game.obj
 0001:000139d0       ?_Getal@?$_Vector_alloc@U?$_Vec_base_types@PAVDisplayableObject@@V?$allocator@PAVDisplayableObject@@@std@@@std@@@std@@QAEAAV?$allocator@PAVDisplayableObject@@@2@XZ 004149d0 f i CW3_Game.obj
 0001:000139f0       ?_Getal@?$_Vector_alloc@U?$_Vec_base_types@PAVDisplayableObject@@V?$allocator@PAVDisplayableObject@@@std@@@std@@@std@@QBEABV?$allocator@PAVDisplayableObject@@@2@XZ 004149f0 f i CW3_Game.obj
 0001:00013a10       ?_Getal@?$_Vector_alloc@U?$_Vec_base_types@U?$pair@HH@std@@V?$allocator@U?$pair@HH@std@@@2@@std@@@std@@QAEAAV?$allocator@U?$pair@HH@std@@@2@XZ 00414a10 f i CW3_Game.obj
 0001:00013a30       ?_Getal@?$_Vector_alloc@U?$_Vec_base_types@U?$pair@HH@std@@V?$allocator@U?$pair@HH@std@@@2@@std@@@std@@QBEABV?$allocator@U?$pair@HH@std@@@2@XZ 00414a30 f i CW3_Game.obj
 0001:00013a50       ?_Getal@?$_Vector_alloc@U?$_Vec_base_types@V?$basic_string@DU?$char_traits@D@std@@V?$allocator@D@2@@std@@V?$allocator@V?$basic_string@DU?$char_traits@D@std@@V?$allocator@D@2@@std@@@2@@std@@@std@@QAEAAV?$allocator@V?$basic_string@DU?$char_traits@D@std@@V?$allocator@D@2@@std@@@2@XZ 00414a50 f i CW3_Game.obj
 0001:00013a70       ?_Getal@?$_Vector_alloc@U?$_Vec_base_types@V?$basic_string@DU?$char_traits@D@std@@V?$allocator@D@2@@std@@V?$allocator@V?$basic_string@DU?$char_traits@D@std@@V?$allocator@D@2@@std@@@2@@std@@@std@@QBEABV?$allocator@V?$basic_string@DU?$char_traits@D@std@@V?$allocator@D@2@@std@@@2@XZ 00414a70 f i CW3_Game.obj
 0001:00013ab0       ?_Getcont@_Iterator_base12@std@@QBEPBU_Container_base12@2@XZ 00414ab0 f i CW3_Game.obj
 0001:00013ae0       ?sync@?$basic_filebuf@DU?$char_traits@D@std@@@std@@MAEHXZ 00414ae0 f i CW3_Game.obj
 0001:00013b80       ?_Getpfirst@?$_Vector_alloc@U?$_Vec_base_types@PAVCW3_GameObject@@V?$allocator@PAVCW3_GameObject@@@std@@@std@@@std@@QBEPAPAU_Iterator_base12@2@XZ 00414b80 f i CW3_Game.obj
 0001:00013ba0       ?_Getpfirst@?$_Vector_alloc@U?$_Vec_base_types@PAVDisplayableObject@@V?$allocator@PAVDisplayableObject@@@std@@@std@@@std@@QBEPAPAU_Iterator_base12@2@XZ 00414ba0 f i CW3_Game.obj
 0001:00013bc0       ?_Getpfirst@?$_Vector_alloc@U?$_Vec_base_types@U?$pair@HH@std@@V?$allocator@U?$pair@HH@std@@@2@@std@@@std@@QBEPAPAU_Iterator_base12@2@XZ 00414bc0 f i CW3_Game.obj
 0001:00013be0       ?_Getpfirst@?$_Vector_alloc@U?$_Vec_base_types@V?$basic_string@DU?$char_traits@D@std@@V?$allocator@D@2@@std@@V?$allocator@V?$basic_string@DU?$char_traits@D@std@@V?$allocator@D@2@@std@@@2@@std@@@std@@QBEPAPAU_Iterator_base12@2@XZ 00414be0 f i CW3_Game.obj
 0001:00013c40       ?_Getpnext@_Iterator_base12@std@@QAEPAPAU12@XZ 00414c40 f i CW3_Game.obj
 0001:00013d00       ?_Has_unused_capacity@?$vector@PAVCW3_GameObject@@V?$allocator@PAVCW3_GameObject@@@std@@@std@@ABE_NXZ 00414d00 f i CW3_Game.obj
 0001:00013d50       ?_Has_unused_capacity@?$vector@PAVDisplayableObject@@V?$allocator@PAVDisplayableObject@@@std@@@std@@ABE_NXZ 00414d50 f i CW3_Game.obj
 0001:00013da0       ?_Has_unused_capacity@?$vector@U?$pair@HH@std@@V?$allocator@U?$pair@HH@std@@@2@@std@@ABE_NXZ 00414da0 f i CW3_Game.obj
 0001:00013df0       ?_Has_unused_capacity@?$vector@V?$basic_string@DU?$char_traits@D@std@@V?$allocator@D@2@@std@@V?$allocator@V?$basic_string@DU?$char_traits@D@std@@V?$allocator@D@2@@std@@@2@@std@@ABE_NXZ 00414df0 f i CW3_Game.obj
 0001:00013ef0       ?_Init@?$basic_filebuf@DU?$char_traits@D@std@@@std@@IAEXPAU_iobuf@@W4_Initfl@12@@Z 00414ef0 f i CW3_Game.obj
 0001:00013fc0       ?pbackfail@?$basic_stringbuf@DU?$char_traits@D@std@@V?$allocator@D@2@@std@@MAEHH@Z 00414fc0 f i CW3_Game.obj
 0001:000140e0       ?_Large_string_engaged@?$_String_val@U?$_Simple_types@D@std@@@std@@QBE_NXZ 004150e0 f i CW3_Game.obj
 0001:00014110       ?_Lock@?$basic_filebuf@DU?$char_traits@D@std@@@std@@UAEXXZ 00415110 f i CW3_Game.obj
 0001:00014140       ?underflow@?$basic_stringbuf@DU?$char_traits@D@std@@V?$allocator@D@2@@std@@MAEHXZ 00415140 f i CW3_Game.obj
 0001:00014210       ?_Myend@?$_Vector_alloc@U?$_Vec_base_types@PAVCW3_GameObject@@V?$allocator@PAVCW3_GameObject@@@std@@@std@@@std@@QAEAAPAPAVCW3_GameObject@@XZ 00415210 f i CW3_Game.obj
 0001:00014230       ?_Myend@?$_Vector_alloc@U?$_Vec_base_types@PAVCW3_GameObject@@V?$allocator@PAVCW3_GameObject@@@std@@@std@@@std@@QBEABQAPAVCW3_GameObject@@XZ 00415230 f i CW3_Game.obj
 0001:00014250       ?_Myend@?$_Vector_alloc@U?$_Vec_base_types@PAVDisplayableObject@@V?$allocator@PAVDisplayableObject@@@std@@@std@@@std@@QAEAAPAPAVDisplayableObject@@XZ 00415250 f i CW3_Game.obj
 0001:00014270       ?_Myend@?$_Vector_alloc@U?$_Vec_base_types@PAVDisplayableObject@@V?$allocator@PAVDisplayableObject@@@std@@@std@@@std@@QBEABQAPAVDisplayableObject@@XZ 00415270 f i CW3_Game.obj
 0001:00014290       ?_Myend@?$_Vector_alloc@U?$_Vec_base_types@U?$pair@HH@std@@V?$allocator@U?$pair@HH@std@@@2@@std@@@std@@QAEAAPAU?$pair@HH@2@XZ 00415290 f i CW3_Game.obj
 0001:000142b0       ?_Myend@?$_Vector_alloc@U?$_Vec_base_types@U?$pair@HH@std@@V?$allocator@U?$pair@HH@std@@@2@@std@@@std@@QBEABQAU?$pair@HH@2@XZ 004152b0 f i CW3_Game.obj
 0001:000142d0       ?_Myend@?$_Vector_alloc@U?$_Vec_base_types@V?$basic_string@DU?$char_traits@D@std@@V?$allocator@D@2@@std@@V?$allocator@V?$basic_string@DU?$char_traits@D@std@@V?$allocator@D@2@@std@@@2@@std@@@std@@QAEAAPAV?$basic_string@DU?$char_traits@D@std@@V?$allocator@D@2@@2@XZ 004152d0 f i CW3_Game.obj
 0001:000142f0       ?_Myend@?$_Vector_alloc@U?$_Vec_base_types@V?$basic_string@DU?$char_traits@D@std@@V?$allocator@D@2@@std@@V?$allocator@V?$basic_string@DU?$char_traits@D@std@@V?$allocator@D@2@@std@@@2@@std@@@std@@QBEABQAV?$basic_string@DU?$char_traits@D@std@@V?$allocator@D@2@@2@XZ 004152f0 f i CW3_Game.obj
 0001:00014310       ?_Myfirst@?$_Vector_alloc@U?$_Vec_base_types@PAVCW3_GameObject@@V?$allocator@PAVCW3_GameObject@@@std@@@std@@@std@@QAEAAPAPAVCW3_GameObject@@XZ 00415310 f i CW3_Game.obj
 0001:00014330       ?_Myfirst@?$_Vector_alloc@U?$_Vec_base_types@PAVCW3_GameObject@@V?$allocator@PAVCW3_GameObject@@@std@@@std@@@std@@QBEABQAPAVCW3_GameObject@@XZ 00415330 f i CW3_Game.obj
 0001:00014350       ?_Myfirst@?$_Vector_alloc@U?$_Vec_base_types@PAVDisplayableObject@@V?$allocator@PAVDisplayableObject@@@std@@@std@@@std@@QAEAAPAPAVDisplayableObject@@XZ 00415350 f i CW3_Game.obj
 0001:00014370       ?_Myfirst@?$_Vector_alloc@U?$_Vec_base_types@PAVDisplayableObject@@V?$allocator@PAVDisplayableObject@@@std@@@std@@@std@@QBEABQAPAVDisplayableObject@@XZ 00415370 f i CW3_Game.obj
 0001:00014390       ?_Myfirst@?$_Vector_alloc@U?$_Vec_base_types@U?$pair@HH@std@@V?$allocator@U?$pair@HH@std@@@2@@std@@@std@@QAEAAPAU?$pair@HH@2@XZ 00415390 f i CW3_Game.obj
 0001:000143b0       ?_Myfirst@?$_Vector_alloc@U?$_Vec_base_types@U?$pair@HH@std@@V?$allocator@U?$pair@HH@std@@@2@@std@@@std@@QBEABQAU?$pair@HH@2@XZ 004153b0 f i CW3_Game.obj
 0001:000143d0       ?_Myfirst@?$_Vector_alloc@U?$_Vec_base_types@V?$basic_string@DU?$char_traits@D@std@@V?$allocator@D@2@@std@@V?$allocator@V?$basic_string@DU?$char_traits@D@std@@V?$allocator@D@2@@std@@@2@@std@@@std@@QAEAAPAV?$basic_string@DU?$char_traits@D@std@@V?$allocator@D@2@@2@XZ 004153d0 f i CW3_Game.obj
 0001:000143f0       ?_Myfirst@?$_Vector_alloc@U?$_Vec_base_types@V?$basic_string@DU?$char_traits@D@std@@V?$allocator@D@2@@std@@V?$allocator@V?$basic_string@DU?$char_traits@D@std@@V?$allocator@D@2@@std@@@2@@std@@@std@@QBEABQAV?$basic_string@DU?$char_traits@D@std@@V?$allocator@D@2@@2@XZ 004153f0 f i CW3_Game.obj
 0001:00014410       ?_Mylast@?$_Vector_alloc@U?$_Vec_base_types@PAVCW3_GameObject@@V?$allocator@PAVCW3_GameObject@@@std@@@std@@@std@@QAEAAPAPAVCW3_GameObject@@XZ 00415410 f i CW3_Game.obj
 0001:00014430       ?_Mylast@?$_Vector_alloc@U?$_Vec_base_types@PAVCW3_GameObject@@V?$allocator@PAVCW3_GameObject@@@std@@@std@@@std@@QBEABQAPAVCW3_GameObject@@XZ 00415430 f i CW3_Game.obj
 0001:00014450       ?_Mylast@?$_Vector_alloc@U?$_Vec_base_types@PAVDisplayableObject@@V?$allocator@PAVDisplayableObject@@@std@@@std@@@std@@QAEAAPAPAVDisplayableObject@@XZ 00415450 f i CW3_Game.obj
 0001:00014470       ?_Mylast@?$_Vector_alloc@U?$_Vec_base_types@PAVDisplayableObject@@V?$allocator@PAVDisplayableObject@@@std@@@std@@@std@@QBEABQAPAVDisplayableObject@@XZ 00415470 f i CW3_Game.obj
 0001:00014490       ?_Mylast@?$_Vector_alloc@U?$_Vec_base_types@U?$pair@HH@std@@V?$allocator@U?$pair@HH@std@@@2@@std@@@std@@QAEAAPAU?$pair@HH@2@XZ 00415490 f i CW3_Game.obj
 0001:000144b0       ?_Mylast@?$_Vector_alloc@U?$_Vec_base_types@U?$pair@HH@std@@V?$allocator@U?$pair@HH@std@@@2@@std@@@std@@QBEABQAU?$pair@HH@2@XZ 004154b0 f i CW3_Game.obj
 0001:000144d0       ?_Mylast@?$_Vector_alloc@U?$_Vec_base_types@V?$basic_string@DU?$char_traits@D@std@@V?$allocator@D@2@@std@@V?$allocator@V?$basic_string@DU?$char_traits@D@std@@V?$allocator@D@2@@std@@@2@@std@@@std@@QAEAAPAV?$basic_string@DU?$char_traits@D@std@@V?$allocator@D@2@@2@XZ 004154d0 f i CW3_Game.obj
 0001:000144f0       ?_Mylast@?$_Vector_alloc@U?$_Vec_base_types@V?$basic_string@DU?$char_traits@D@std@@V?$allocator@D@2@@std@@V?$allocator@V?$basic_string@DU?$char_traits@D@std@@V?$allocator@D@2@@std@@@2@@std@@@std@@QBEABQAV?$basic_string@DU?$char_traits@D@std@@V?$allocator@D@2@@2@XZ 004154f0 f i CW3_Game.obj
 0001:00014510       ?_Myproxy@?$_String_alloc@U?$_String_base_types@DV?$allocator@D@std@@@std@@@std@@QAEAAPAU_Container_proxy@2@XZ 00415510 f i CW3_Game.obj
 0001:00014530       ?_Myproxy@?$_Vector_alloc@U?$_Vec_base_types@PAVCW3_GameObject@@V?$allocator@PAVCW3_GameObject@@@std@@@std@@@std@@QAEAAPAU_Container_proxy@2@XZ 00415530 f i CW3_Game.obj
 0001:00014550       ?_Myproxy@?$_Vector_alloc@U?$_Vec_base_types@U?$pair@HH@std@@V?$allocator@U?$pair@HH@std@@@2@@std@@@std@@QAEAAPAU_Container_proxy@2@XZ 00415550 f i CW3_Game.obj
 0001:00014570       ?_Myproxy@?$_Vector_alloc@U?$_Vec_base_types@V?$basic_string@DU?$char_traits@D@std@@V?$allocator@D@2@@std@@V?$allocator@V?$basic_string@DU?$char_traits@D@std@@V?$allocator@D@2@@std@@@2@@std@@@std@@QAEAAPAU_Container_proxy@2@XZ 00415570 f i CW3_Game.obj
 0001:000145c0       ?_Myptr@?$_String_val@U?$_Simple_types@D@std@@@std@@QAEPADXZ 004155c0 f i CW3_Game.obj
 0001:00014630       ?_Myptr@?$_Unique_ptr_base@V_Facet_base@std@@U?$default_delete@V_Facet_base@std@@@2@@std@@QAEAAPAV_Facet_base@2@XZ 00415630 f i CW3_Game.obj
 0001:00014650       ?_Myptr@?$_Unique_ptr_base@V_Facet_base@std@@U?$default_delete@V_Facet_base@std@@@2@@std@@QBEABQAV_Facet_base@2@XZ 00415650 f i CW3_Game.obj
 0001:00014670       ?_Orphan_all@?$_String_alloc@U?$_String_base_types@DV?$allocator@D@std@@@std@@@std@@QAEXXZ 00415670 f i CW3_Game.obj
 0001:00014690       ?_Orphan_all@?$_Vector_alloc@U?$_Vec_base_types@PAVCW3_GameObject@@V?$allocator@PAVCW3_GameObject@@@std@@@std@@@std@@QAEXXZ 00415690 f i CW3_Game.obj
 0001:000146b0       ?_Orphan_all@?$_Vector_alloc@U?$_Vec_base_types@PAVDisplayableObject@@V?$allocator@PAVDisplayableObject@@@std@@@std@@@std@@QAEXXZ 004156b0 f i CW3_Game.obj
 0001:000146d0       ?_Orphan_all@?$_Vector_alloc@U?$_Vec_base_types@U?$pair@HH@std@@V?$allocator@U?$pair@HH@std@@@2@@std@@@std@@QAEXXZ 004156d0 f i CW3_Game.obj
 0001:000146f0       ?_Orphan_all@?$_Vector_alloc@U?$_Vec_base_types@V?$basic_string@DU?$char_traits@D@std@@V?$allocator@D@2@@std@@V?$allocator@V?$basic_string@DU?$char_traits@D@std@@V?$allocator@D@2@@std@@@2@@std@@@std@@QAEXXZ 004156f0 f i CW3_Game.obj
 0001:000147b0       ?_Orphan_all@_Container_base12@std@@QAEXXZ 004157b0 f i CW3_Game.obj
 0001:00014890       ?_Orphan_me@_Iterator_base12@std@@QAEXXZ 00415890 f i CW3_Game.obj
 0001:00014980       ?_Orphan_range@?$vector@PAVCW3_GameObject@@V?$allocator@PAVCW3_GameObject@@@std@@@std@@ABEXPAPAVCW3_GameObject@@0@Z 00415980 f i CW3_Game.obj
 0001:00014a70       ?_Orphan_range@?$vector@PAVDisplayableObject@@V?$allocator@PAVDisplayableObject@@@std@@@std@@ABEXPAPAVDisplayableObject@@0@Z 00415a70 f i CW3_Game.obj
 0001:00014b60       ?_Orphan_range@?$vector@U?$pair@HH@std@@V?$allocator@U?$pair@HH@std@@@2@@std@@ABEXPAU?$pair@HH@2@0@Z 00415b60 f i CW3_Game.obj
 0001:00014c80       ?_Release@?$_Uninitialized_backout_al@PAU?$pair@HH@std@@V?$allocator@U?$pair@HH@std@@@2@@std@@QAEPAU?$pair@HH@2@XZ 00415c80 f i CW3_Game.obj
 0001:00014cb0       ?_Release@?$_Uninitialized_backout_al@PAV?$basic_string@DU?$char_traits@D@std@@V?$allocator@D@2@@std@@V?$allocator@V?$basic_string@DU?$char_traits@D@std@@V?$allocator@D@2@@std@@@2@@std@@QAEPAV?$basic_string@DU?$char_traits@D@std@@V?$allocator@D@2@@2@XZ 00415cb0 f i CW3_Game.obj
 0001:00014d00       ?_Reset_back@?$basic_filebuf@DU?$char_traits@D@std@@@std@@AAEXXZ 00415d00 f i CW3_Game.obj
 0001:00014da0       ?_Swap_all@?$_String_alloc@U?$_String_base_types@DV?$allocator@D@std@@@std@@@std@@QAEXAAV12@@Z 00415da0 f i CW3_Game.obj
 0001:00014dd0       ?_Swap_all@?$_Vector_alloc@U?$_Vec_base_types@PAVCW3_GameObject@@V?$allocator@PAVCW3_GameObject@@@std@@@std@@@std@@QAEXAAV12@@Z 00415dd0 f i CW3_Game.obj
 0001:00014e80       ?_Swap_all@_Container_base12@std@@QAEXAAU12@@Z 00415e80 f i CW3_Game.obj
 0001:00014f50       ?_Tidy@?$basic_stringbuf@DU?$char_traits@D@std@@V?$allocator@D@2@@std@@IAEXXZ 00415f50 f i CW3_Game.obj
 0001:00015000       ?_Tidy@?$vector@PAVCW3_GameObject@@V?$allocator@PAVCW3_GameObject@@@std@@@std@@AAEXXZ 00416000 f i CW3_Game.obj
 0001:000150b0       ?_Tidy@?$vector@U?$pair@HH@std@@V?$allocator@U?$pair@HH@std@@@2@@std@@AAEXXZ 004160b0 f i CW3_Game.obj
 0001:00015160       ?_Tidy@?$vector@V?$basic_string@DU?$char_traits@D@std@@V?$allocator@D@2@@std@@V?$allocator@V?$basic_string@DU?$char_traits@D@std@@V?$allocator@D@2@@std@@@2@@std@@AAEXXZ 00416160 f i CW3_Game.obj
 0001:000151f0       ?setAllObjectsVisible@DisplayableObjectContainer@@QBEX_N@Z 004161f0 f i CW3_Game.obj
 0001:000152e0       ?_Umove@?$vector@PAVCW3_GameObject@@V?$allocator@PAVCW3_GameObject@@@std@@@std@@AAEPAPAVCW3_GameObject@@PAPAV3@00@Z 004162e0 f i CW3_Game.obj
 0001:00015320       ?_Umove@?$vector@PAVDisplayableObject@@V?$allocator@PAVDisplayableObject@@@std@@@std@@AAEPAPAVDisplayableObject@@PAPAV3@00@Z 00416320 f i CW3_Game.obj
 0001:00015360       ?_Umove@?$vector@U?$pair@HH@std@@V?$allocator@U?$pair@HH@std@@@2@@std@@AAEPAU?$pair@HH@2@PAU32@00@Z 00416360 f i CW3_Game.obj
 0001:000153a0       ?_Umove@?$vector@V?$basic_string@DU?$char_traits@D@std@@V?$allocator@D@2@@std@@V?$allocator@V?$basic_string@DU?$char_traits@D@std@@V?$allocator@D@2@@std@@@2@@std@@AAEPAV?$basic_string@DU?$char_traits@D@std@@V?$allocator@D@2@@2@PAV32@00@Z 004163a0 f i CW3_Game.obj
 0001:000153e0       ?_Umove_if_noexcept1@?$vector@PAVCW3_GameObject@@V?$allocator@PAVCW3_GameObject@@@std@@@std@@AAEXPAPAVCW3_GameObject@@00U?$integral_constant@_N$00@2@@Z 004163e0 f i CW3_Game.obj
 0001:00015420       ?_Umove_if_noexcept1@?$vector@PAVDisplayableObject@@V?$allocator@PAVDisplayableObject@@@std@@@std@@AAEXPAPAVDisplayableObject@@00U?$integral_constant@_N$00@2@@Z 00416420 f i CW3_Game.obj
 0001:00015460       ?_Umove_if_noexcept1@?$vector@U?$pair@HH@std@@V?$allocator@U?$pair@HH@std@@@2@@std@@AAEXPAU?$pair@HH@2@00U?$integral_constant@_N$00@2@@Z 00416460 f i CW3_Game.obj
 0001:000154a0       ?_Umove_if_noexcept1@?$vector@V?$basic_string@DU?$char_traits@D@std@@V?$allocator@D@2@@std@@V?$allocator@V?$basic_string@DU?$char_traits@D@std@@V?$allocator@D@2@@std@@@2@@std@@AAEXPAV?$basic_string@DU?$char_traits@D@std@@V?$allocator@D@2@@2@00U?$integral_constant@_N$00@2@@Z 004164a0 f i CW3_Game.obj
 0001:000154e0       ?_Umove_if_noexcept@?$vector@PAVCW3_GameObject@@V?$allocator@PAVCW3_GameObject@@@std@@@std@@AAEXPAPAVCW3_GameObject@@00@Z 004164e0 f i CW3_Game.obj
 0001:00015520       ?_Umove_if_noexcept@?$vector@PAVDisplayableObject@@V?$allocator@PAVDisplayableObject@@@std@@@std@@AAEXPAPAVDisplayableObject@@00@Z 00416520 f i CW3_Game.obj
 0001:00015560       ?_Umove_if_noexcept@?$vector@U?$pair@HH@std@@V?$allocator@U?$pair@HH@std@@@2@@std@@AAEXPAU?$pair@HH@2@00@Z 00416560 f i CW3_Game.obj
 0001:000155a0       ?_Umove_if_noexcept@?$vector@V?$basic_string@DU?$char_traits@D@std@@V?$allocator@D@2@@std@@V?$allocator@V?$basic_string@DU?$char_traits@D@std@@V?$allocator@D@2@@std@@@2@@std@@AAEXPAV?$basic_string@DU?$char_traits@D@std@@V?$allocator@D@2@@2@00@Z 004165a0 f i CW3_Game.obj
 0001:000155d0       ?_Unlock@?$basic_filebuf@DU?$char_traits@D@std@@@std@@UAEXXZ 004165d0 f i CW3_Game.obj
 0001:00015600       ?seekpos@?$basic_stringbuf@DU?$char_traits@D@std@@V?$allocator@D@2@@std@@MAE?AV?$fpos@U_Mbstatet@@@2@V32@H@Z 00416600 f i CW3_Game.obj
 0001:00015760       ?_Verify_offset@?$_Vector_const_iterator@V?$_Vector_val@U?$_Simple_types@PAVDisplayableObject@@@std@@@std@@@std@@QBEXH@Z 00416760 f i CW3_Game.obj
 0001:00015910       ?_Xlen@?$basic_string@DU?$char_traits@D@std@@V?$allocator@D@2@@std@@SAXXZ 00416910 f i CW3_Game.obj
 0001:00015930       ?_Xlength@?$vector@PAVCW3_GameObject@@V?$allocator@PAVCW3_GameObject@@@std@@@std@@CAXXZ 00416930 f i CW3_Game.obj
 0001:00015950       ?_Xlength@?$vector@PAVDisplayableObject@@V?$allocator@PAVDisplayableObject@@@std@@@std@@CAXXZ 00416950 f i CW3_Game.obj
 0001:00015970       ?_Xlength@?$vector@U?$pair@HH@std@@V?$allocator@U?$pair@HH@std@@@2@@std@@CAXXZ 00416970 f i CW3_Game.obj
 0001:00015990       ?_Xlength@?$vector@V?$basic_string@DU?$char_traits@D@std@@V?$allocator@D@2@@std@@V?$allocator@V?$basic_string@DU?$char_traits@D@std@@V?$allocator@D@2@@std@@@2@@std@@CAXXZ 00416990 f i CW3_Game.obj
 0001:000159b0       ?_Xran@?$_String_val@U?$_Simple_types@D@std@@@std@@SAXXZ 004169b0 f i CW3_Game.obj
 0001:000159d0       ?_Xrange@?$vector@PAVCW3_GameObject@@V?$allocator@PAVCW3_GameObject@@@std@@@std@@CAXXZ 004169d0 f i CW3_Game.obj
 0001:000159f0       ?_Xrange@?$vector@PAVDisplayableObject@@V?$allocator@PAVDisplayableObject@@@std@@@std@@CAXXZ 004169f0 f i CW3_Game.obj
 0001:00015a10       ?_Xrange@?$vector@U?$pair@HH@std@@V?$allocator@U?$pair@HH@std@@@2@@std@@CAXXZ 00416a10 f i CW3_Game.obj
 0001:00015a30       ?_Xrange@?$vector@V?$basic_string@DU?$char_traits@D@std@@V?$allocator@D@2@@std@@V?$allocator@V?$basic_string@DU?$char_traits@D@std@@V?$allocator@D@2@@std@@@2@@std@@CAXXZ 00416a30 f i CW3_Game.obj
 0001:00015a40       ?__empty_global_delete@@YAXPAX@Z 00416a40 f i CW3_Game.obj
 0001:00015a50       ?__global_delete@@YAXPAXI@Z 00416a50 f i CW3_Game.obj
 0001:00015a50       ?__empty_global_delete@@YAXPAXI@Z 00416a50 f i CW3_Game.obj
 0001:00015a80       ?allocate@?$allocator@D@std@@QAEPADI@Z 00416a80 f i CW3_Game.obj
 0001:00015ab0       ?allocate@?$allocator@PAVCW3_GameObject@@@std@@QAEPAPAVCW3_GameObject@@I@Z 00416ab0 f i CW3_Game.obj
 0001:00015ae0       ?allocate@?$allocator@PAVDisplayableObject@@@std@@QAEPAPAVDisplayableObject@@I@Z 00416ae0 f i CW3_Game.obj
 0001:00015b10       ?allocate@?$allocator@U?$pair@HH@std@@@std@@QAEPAU?$pair@HH@2@I@Z 00416b10 f i CW3_Game.obj
 0001:00015b40       ?allocate@?$allocator@U_Container_proxy@std@@@std@@QAEPAU_Container_proxy@2@I@Z 00416b40 f i CW3_Game.obj
 0001:00015b70       ?allocate@?$allocator@V?$basic_string@DU?$char_traits@D@std@@V?$allocator@D@2@@std@@@std@@QAEPAV?$basic_string@DU?$char_traits@D@std@@V?$allocator@D@2@@2@I@Z 00416b70 f i CW3_Game.obj
 0001:00015bb0       ?append@?$basic_string@DU?$char_traits@D@std@@V?$allocator@D@2@@std@@QAEAAV12@ABV12@@Z 00416bb0 f i CW3_Game.obj
 0001:00015bf0       ?append@?$basic_string@DU?$char_traits@D@std@@V?$allocator@D@2@@std@@QAEAAV12@QBD@Z 00416bf0 f i CW3_Game.obj
 0001:00015d00       ?appendObjectToArray@DisplayableObjectContainer@@QAEXPAVDisplayableObject@@@Z 00416d00 f i CW3_Game.obj
 0001:00015dd0       ?assign@?$char_traits@D@std@@SAXAADABD@Z 00416dd0 f i CW3_Game.obj
 0001:00015e10       ?at@?$vector@PAVCW3_GameObject@@V?$allocator@PAVCW3_GameObject@@@std@@@std@@QAEAAPAVCW3_GameObject@@I@Z 00416e10 f i CW3_Game.obj
 0001:00015e50       ?at@?$vector@PAVDisplayableObject@@V?$allocator@PAVDisplayableObject@@@std@@@std@@QAEAAPAVDisplayableObject@@I@Z 00416e50 f i CW3_Game.obj
 0001:00015e90       ?at@?$vector@U?$pair@HH@std@@V?$allocator@U?$pair@HH@std@@@2@@std@@QAEAAU?$pair@HH@2@I@Z 00416e90 f i CW3_Game.obj
 0001:00015ed0       ?at@?$vector@V?$basic_string@DU?$char_traits@D@std@@V?$allocator@D@2@@std@@V?$allocator@V?$basic_string@DU?$char_traits@D@std@@V?$allocator@D@2@@std@@@2@@std@@QAEAAV?$basic_string@DU?$char_traits@D@std@@V?$allocator@D@2@@2@I@Z 00416ed0 f i CW3_Game.obj
 0001:00015f60       ?begin@?$basic_string@DU?$char_traits@D@std@@V?$allocator@D@2@@std@@QAE?AV?$_String_iterator@V?$_String_val@U?$_Simple_types@D@std@@@std@@@2@XZ 00416f60 f i CW3_Game.obj
 0001:00015fe0       ?begin@?$vector@PAVDisplayableObject@@V?$allocator@PAVDisplayableObject@@@std@@@std@@QAE?AV?$_Vector_iterator@V?$_Vector_val@U?$_Simple_types@PAVDisplayableObject@@@std@@@std@@@2@XZ 00416fe0 f i CW3_Game.obj
 0001:00016060       ?begin@?$vector@PAVDisplayableObject@@V?$allocator@PAVDisplayableObject@@@std@@@std@@QBE?AV?$_Vector_const_iterator@V?$_Vector_val@U?$_Simple_types@PAVDisplayableObject@@@std@@@std@@@2@XZ 00417060 f i CW3_Game.obj
 0001:000160e0       ?begin@?$vector@U?$pair@HH@std@@V?$allocator@U?$pair@HH@std@@@2@@std@@QAE?AV?$_Vector_iterator@V?$_Vector_val@U?$_Simple_types@U?$pair@HH@std@@@std@@@std@@@2@XZ 004170e0 f i CW3_Game.obj
 0001:00016160       ?capacity@?$basic_string@DU?$char_traits@D@std@@V?$allocator@D@2@@std@@QBEIXZ 00417160 f i CW3_Game.obj
 0001:000161a0       ?capacity@?$vector@PAVCW3_GameObject@@V?$allocator@PAVCW3_GameObject@@@std@@@std@@QBEIXZ 004171a0 f i CW3_Game.obj
 0001:000161e0       ?capacity@?$vector@PAVDisplayableObject@@V?$allocator@PAVDisplayableObject@@@std@@@std@@QBEIXZ 004171e0 f i CW3_Game.obj
 0001:00016220       ?capacity@?$vector@U?$pair@HH@std@@V?$allocator@U?$pair@HH@std@@@2@@std@@QBEIXZ 00417220 f i CW3_Game.obj
 0001:00016260       ?capacity@?$vector@V?$basic_string@DU?$char_traits@D@std@@V?$allocator@D@2@@std@@V?$allocator@V?$basic_string@DU?$char_traits@D@std@@V?$allocator@D@2@@std@@@2@@std@@QBEIXZ 00417260 f i CW3_Game.obj
 0001:00016320       ?close@?$basic_ifstream@DU?$char_traits@D@std@@@std@@QAEXXZ 00417320 f i CW3_Game.obj
 0001:00016380       ?copy@?$char_traits@D@std@@SAPADQADQBDI@Z 00417380 f i CW3_Game.obj
 0001:000163b0       ?copyAllBackgroundBuffer@BaseEngine@@UAEXXZ 004173b0 f i CW3_Game.obj
 0001:00016400       ?copyBackgroundPixels@BaseEngine@@UAEXHHHH@Z 00417400 f i CW3_Game.obj
 0001:00016480       ?deallocate@?$_Default_allocator_traits@V?$allocator@U_Container_proxy@std@@@std@@@std@@SAXAAV?$allocator@U_Container_proxy@std@@@2@QAU_Container_proxy@2@I@Z 00417480 f i CW3_Game.obj
 0001:000164b0       ?deallocate@?$allocator@D@std@@QAEXQADI@Z 004174b0 f i CW3_Game.obj
 0001:000164e0       ?deallocate@?$allocator@PAVCW3_GameObject@@@std@@QAEXQAPAVCW3_GameObject@@I@Z 004174e0 f i CW3_Game.obj
 0001:00016510       ?deallocate@?$allocator@PAVDisplayableObject@@@std@@QAEXQAPAVDisplayableObject@@I@Z 00417510 f i CW3_Game.obj
 0001:00016540       ?deallocate@?$allocator@U?$pair@HH@std@@@std@@QAEXQAU?$pair@HH@2@I@Z 00417540 f i CW3_Game.obj
 0001:00016570       ?deallocate@?$allocator@V?$basic_string@DU?$char_traits@D@std@@V?$allocator@D@2@@std@@@std@@QAEXQAV?$basic_string@DU?$char_traits@D@std@@V?$allocator@D@2@@2@I@Z 00417570 f i CW3_Game.obj
 0001:000166a0       ?drawBackgroundOval@BaseEngine@@QAEXHHHHI@Z 004176a0 f i CW3_Game.obj
 0001:000166e0       ?drawBackgroundRectangle@BaseEngine@@QAEXHHHHI@Z 004176e0 f i CW3_Game.obj
 0001:00016720       ?drawBackgroundString@BaseEngine@@QAEXHHPBDIPAVFont@@@Z 00417720 f i CW3_Game.obj
 0001:00016760       ?drawForegroundRectangle@BaseEngine@@QAEXHHHHI@Z 00417760 f i CW3_Game.obj
 0001:000167c0       ?drawableObjectsChanged@DisplayableObjectContainer@@QAEXXZ 004177c0 f i CW3_Game.obj
 0001:00016840       ?end@?$vector@PAVDisplayableObject@@V?$allocator@PAVDisplayableObject@@@std@@@std@@QAE?AV?$_Vector_iterator@V?$_Vector_val@U?$_Simple_types@PAVDisplayableObject@@@std@@@std@@@2@XZ 00417840 f i CW3_Game.obj
 0001:000168d0       ?eof@?$char_traits@D@std@@SAHXZ 004178d0 f i CW3_Game.obj
 0001:00016910       ?eq@?$char_traits@D@std@@SA_NABD0@Z 00417910 f i CW3_Game.obj
 0001:00016940       ?eq_int_type@?$char_traits@D@std@@SA_NABH0@Z 00417940 f i CW3_Game.obj
 0001:00016990       ?erase@?$basic_string@DU?$char_traits@D@std@@V?$allocator@D@2@@std@@QAEAAV12@I@Z 00417990 f i CW3_Game.obj
 0001:00016a40       ?erase@?$basic_string@DU?$char_traits@D@std@@V?$allocator@D@2@@std@@QAEAAV12@II@Z 00417a40 f i CW3_Game.obj
 0001:00016ad0       ?xsputn@?$basic_filebuf@DU?$char_traits@D@std@@@std@@MAE_JPBD_J@Z 00417ad0 f i CW3_Game.obj
 0001:00016c30       ?erase@?$vector@PAVDisplayableObject@@V?$allocator@PAVDisplayableObject@@@std@@@std@@QAE?AV?$_Vector_iterator@V?$_Vector_val@U?$_Simple_types@PAVDisplayableObject@@@std@@@std@@@2@V?$_Vector_const_iterator@V?$_Vector_val@U?$_Simple_types@PAVDisplayableObject@@@std@@@std@@@2@@Z 00417c30 f i CW3_Game.obj
 0001:00016e50       ?fillBackground@BaseEngine@@UAEXI@Z 00417e50 f i CW3_Game.obj
 0001:00016ee0       ?fillSurface@DrawingSurface@@QAEXI@Z 00417ee0 f i CW3_Game.obj
 0001:00016fc0       ?filterConvertRealToVirtualXPosition@FilterPoints@@UAEHH@Z 00417fc0 f i CW3_Game.obj
 0001:00016fe0       ?filterConvertRealToVirtualYPosition@FilterPoints@@UAEHH@Z 00417fe0 f i CW3_Game.obj
 0001:00017000       ?filterConvertVirtualToRealXPosition@FilterPoints@@UAEHH@Z 00418000 f i CW3_Game.obj
 0001:00017020       ?filterConvertVirtualToRealYPosition@FilterPoints@@UAEHH@Z 00418020 f i CW3_Game.obj
 0001:000170d0       ?get@?$unique_ptr@V_Facet_base@std@@U?$default_delete@V_Facet_base@std@@@2@@std@@QBEPAV_Facet_base@2@XZ 004180d0 f i CW3_Game.obj
 0001:000170f0       ?getBackgroundSurface@BaseEngine@@QAEPAVDrawingSurface@@XZ 004180f0 f i CW3_Game.obj
 0001:00017120       ?getMapValue@TileManager@@QBEHHH@Z 00418120 f i CW3_Game.obj
 0001:00017180       ?getObjectID@CW3_GameObject@@QAEHXZ 00418180 f i CW3_Game.obj
 0001:000171a0       ?getScore@CW3_Player@@QAEHXZ 004181a0 f i CW3_Game.obj
 0001:000171c0       ?getSurfaceHeight@DrawingSurface@@QBEHXZ 004181c0 f i CW3_Game.obj
 0001:000171e0       ?getSurfaceWidth@DrawingSurface@@QBEHXZ 004181e0 f i CW3_Game.obj
 0001:00017200       ?getWindowHeight@BaseEngine@@QBEHXZ 00418200 f i CW3_Game.obj
 0001:00017220       ?getWindowWidth@BaseEngine@@QBEHXZ 00418220 f i CW3_Game.obj
 0001:00017240       ?get_allocator@?$basic_string@DU?$char_traits@D@std@@V?$allocator@D@2@@std@@QBE?AV?$allocator@D@2@XZ 00418240 f i CW3_Game.obj
 0001:00017260       ?get_deleter@?$_Unique_ptr_base@V_Facet_base@std@@U?$default_delete@V_Facet_base@std@@@2@@std@@QAEAAU?$default_delete@V_Facet_base@std@@@2@XZ 00418260 f i CW3_Game.obj
 0001:00017290       ?imbue@?$basic_filebuf@DU?$char_traits@D@std@@@std@@MAEXABVlocale@2@@Z 00418290 f i CW3_Game.obj
 0001:000172e0       ?insert@?$basic_string@DU?$char_traits@D@std@@V?$allocator@D@2@@std@@QAEAAV12@IABV12@@Z 004182e0 f i CW3_Game.obj
 0001:00017460       ?length@?$char_traits@D@std@@SAIQBD@Z 00418460 f i CW3_Game.obj
 0001:000174c0       ?lockBackgroundForDrawing@BaseEngine@@QAEXXZ 004184c0 f i CW3_Game.obj
 0001:000174f0       ?max@?$numeric_limits@H@std@@SAHXZ 004184f0 f i CW3_Game.obj
 0001:00017500       ?max_size@?$_Default_allocator_traits@V?$allocator@D@std@@@std@@SAIABV?$allocator@D@2@@Z 00418500 f i CW3_Game.obj
 0001:00017510       ?max_size@?$_Default_allocator_traits@V?$allocator@PAVCW3_GameObject@@@std@@@std@@SAIABV?$allocator@PAVCW3_GameObject@@@2@@Z 00418510 f i CW3_Game.obj
 0001:00017520       ?max_size@?$_Default_allocator_traits@V?$allocator@PAVDisplayableObject@@@std@@@std@@SAIABV?$allocator@PAVDisplayableObject@@@2@@Z 00418520 f i CW3_Game.obj
 0001:00017530       ?max_size@?$_Default_allocator_traits@V?$allocator@U?$pair@HH@std@@@std@@@std@@SAIABV?$allocator@U?$pair@HH@std@@@2@@Z 00418530 f i CW3_Game.obj
 0001:00017540       ?max_size@?$_Default_allocator_traits@V?$allocator@V?$basic_string@DU?$char_traits@D@std@@V?$allocator@D@2@@std@@@std@@@std@@SAIABV?$allocator@V?$basic_string@DU?$char_traits@D@std@@V?$allocator@D@2@@std@@@2@@Z 00418540 f i CW3_Game.obj
 0001:00017610       ?max_size@?$vector@PAVCW3_GameObject@@V?$allocator@PAVCW3_GameObject@@@std@@@std@@QBEIXZ 00418610 f i CW3_Game.obj
 0001:00017660       ?max_size@?$vector@PAVDisplayableObject@@V?$allocator@PAVDisplayableObject@@@std@@@std@@QBEIXZ 00418660 f i CW3_Game.obj
 0001:000176b0       ?max_size@?$vector@U?$pair@HH@std@@V?$allocator@U?$pair@HH@std@@@2@@std@@QBEIXZ 004186b0 f i CW3_Game.obj
 0001:00017720       ?move@?$char_traits@D@std@@SAPADQADQBDI@Z 00418720 f i CW3_Game.obj
 0001:00017770       ?mySDLLockSurface@DrawingSurface@@QAEXXZ 00418770 f i CW3_Game.obj
 0001:000177c0       ?mySDLTempRelockSurface@DrawingSurface@@QAEXXZ 004187c0 f i CW3_Game.obj
 0001:00017810       ?mySDLTempUnlockSurface@DrawingSurface@@QAEXXZ 00418810 f i CW3_Game.obj
 0001:00017860       ?mySDLUnlockSurface@DrawingSurface@@QAEXXZ 00418860 f i CW3_Game.obj
 0001:000178c0       ?not_eof@?$char_traits@D@std@@SAHABH@Z 004188c0 f i CW3_Game.obj
 0001:000179b0       ?open@?$basic_filebuf@DU?$char_traits@D@std@@@std@@QAEPAV12@PBDHH@Z 004189b0 f i CW3_Game.obj
 0001:00017c10       ?overflow@?$basic_filebuf@DU?$char_traits@D@std@@@std@@MAEHH@Z 00418c10 f i CW3_Game.obj
 0001:00017ec0       ?pause@BaseEngine@@QAEXXZ  00418ec0 f i CW3_Game.obj
 0001:00017ee0       ?seekoff@?$basic_stringbuf@DU?$char_traits@D@std@@V?$allocator@D@2@@std@@MAE?AV?$fpos@U_Mbstatet@@@2@_JHH@Z 00418ee0 f i CW3_Game.obj
 0001:000181b0       ?pointer_to@?$pointer_traits@PAD@std@@SAPADAAD@Z 004191b0 f i CW3_Game.obj
 0001:00018260       ?pop_back@?$basic_string@DU?$char_traits@D@std@@V?$allocator@D@2@@std@@QAEXXZ 00419260 f i CW3_Game.obj
 0001:00018370       ?push_back@?$vector@PAVDisplayableObject@@V?$allocator@PAVDisplayableObject@@@std@@@std@@QAEXABQAVDisplayableObject@@@Z 00419370 f i CW3_Game.obj
 0001:000183a0       ?push_back@?$vector@U?$pair@HH@std@@V?$allocator@U?$pair@HH@std@@@2@@std@@QAEX$$QAU?$pair@HH@2@@Z 004193a0 f i CW3_Game.obj
 0001:000183f0       ?push_back@?$vector@V?$basic_string@DU?$char_traits@D@std@@V?$allocator@D@2@@std@@V?$allocator@V?$basic_string@DU?$char_traits@D@std@@V?$allocator@D@2@@std@@@2@@std@@QAEXABV?$basic_string@DU?$char_traits@D@std@@V?$allocator@D@2@@2@@Z 004193f0 f i CW3_Game.obj
 0001:00018410       ?redrawDisplay@BaseEngine@@QAEXXZ 00419410 f i CW3_Game.obj
 0001:00018450       ?release@?$unique_ptr@V_Facet_base@std@@U?$default_delete@V_Facet_base@std@@@2@@std@@QAEPAV_Facet_base@2@XZ 00419450 f i CW3_Game.obj
 0001:00018500       ?reserve@?$basic_string@DU?$char_traits@D@std@@V?$allocator@D@2@@std@@QAEXI@Z 00419500 f i CW3_Game.obj
 0001:00018610       ?seekoff@?$basic_filebuf@DU?$char_traits@D@std@@@std@@MAE?AV?$fpos@U_Mbstatet@@@2@_JHH@Z 00419610 f i CW3_Game.obj
 0001:00018950       ?seekpos@?$basic_filebuf@DU?$char_traits@D@std@@@std@@MAE?AV?$fpos@U_Mbstatet@@@2@V32@H@Z 00419950 f i CW3_Game.obj
 0001:00018af0       ?select_on_container_copy_construction@?$_Default_allocator_traits@V?$allocator@D@std@@@std@@SA?AV?$allocator@D@2@ABV32@@Z 00419af0 f i CW3_Game.obj
 0001:00018c20       ?setExitWithCode@BaseEngine@@QAEXH@Z 00419c20 f i CW3_Game.obj
 0001:00018c80       ?setPausedValueTo@CW3_GameObject@@QAEX_N@Z 00419c80 f i CW3_Game.obj
 0001:00018cb0       ?setTopLeftPositionOnScreen@TileManager@@QAEXHH@Z 00419cb0 f i CW3_Game.obj
 0001:00018cd0       ?setVisible@DisplayableObject@@QAEX_N@Z 00419cd0 f i CW3_Game.obj
 0001:00018d80       ?size@?$basic_string@DU?$char_traits@D@std@@V?$allocator@D@2@@std@@QBEIXZ 00419d80 f i CW3_Game.obj
 0001:00018dc0       ?size@?$vector@PAVCW3_GameObject@@V?$allocator@PAVCW3_GameObject@@@std@@@std@@QBEIXZ 00419dc0 f i CW3_Game.obj
 0001:00018e00       ?size@?$vector@PAVDisplayableObject@@V?$allocator@PAVDisplayableObject@@@std@@@std@@QBEIXZ 00419e00 f i CW3_Game.obj
 0001:00018e40       ?size@?$vector@U?$pair@HH@std@@V?$allocator@U?$pair@HH@std@@@2@@std@@QBEIXZ 00419e40 f i CW3_Game.obj
 0001:00018e80       ?size@?$vector@V?$basic_string@DU?$char_traits@D@std@@V?$allocator@D@2@@std@@V?$allocator@V?$basic_string@DU?$char_traits@D@std@@V?$allocator@D@2@@std@@@2@@std@@QBEIXZ 00419e80 f i CW3_Game.obj
 0001:00018eb0       ?state@?$fpos@U_Mbstatet@@@std@@QBE?AU_Mbstatet@@XZ 00419eb0 f i CW3_Game.obj
 0001:00018f60       ?stoi@std@@YAHABV?$basic_string@DU?$char_traits@D@std@@V?$allocator@D@2@@1@PAIH@Z 00419f60 f i CW3_Game.obj
 0001:00019000       ?to_char_type@?$char_traits@D@std@@SADABH@Z 0041a000 f i CW3_Game.obj
 0001:00019010       ?to_int_type@?$char_traits@D@std@@SAHABD@Z 0041a010 f i CW3_Game.obj
 0001:00019050       ?to_string@std@@YA?AV?$basic_string@DU?$char_traits@D@std@@V?$allocator@D@2@@1@H@Z 0041a050 f i CW3_Game.obj
 0001:00019080       ?uflow@?$basic_filebuf@DU?$char_traits@D@std@@@std@@MAEHXZ 0041a080 f i CW3_Game.obj
 0001:00019430       ?underflow@?$basic_filebuf@DU?$char_traits@D@std@@@std@@MAEHXZ 0041a430 f i CW3_Game.obj
 0001:00019560       ?unlockBackgroundForDrawing@BaseEngine@@QAEXXZ 0041a560 f i CW3_Game.obj
 0001:00019580       ?unlockForegroundForDrawing@BaseEngine@@QAEXXZ 0041a580 f i CW3_Game.obj
 0001:000195e0       ?virtBackgroundMouseDown@BaseEngine@@UAEXHHHHH@Z 0041a5e0 f i CW3_Game.obj
 0001:000195f0       ?virtMainLoopDoAfterUpdate@BaseEngine@@UAEXXZ 0041a5f0 f i CW3_Game.obj
 0001:00019600       ?virtMainLoopPostUpdate@BaseEngine@@UAEXXZ 0041a600 f i CW3_Game.obj
 0001:00019610       ?virtMainLoopPreUpdate@BaseEngine@@UAEXXZ 0041a610 f i CW3_Game.obj
 0001:00019620       ?virtMainLoopStartIteration@BaseEngine@@UAEXXZ 0041a620 f i CW3_Game.obj
 0001:00019630       ?virtMouseWheel@BaseEngine@@UAEXHHHH@Z 0041a630 f i CW3_Game.obj
 0001:00019640       ?virtPostDraw@BaseEngine@@UAEXXZ 0041a640 f i CW3_Game.obj
 0001:00019650       ?virtPreDraw@BaseEngine@@UAEXXZ 0041a650 f i CW3_Game.obj
 0001:00019660       ?virtRealMouseDown@BaseEngine@@UAEXHHH@Z 0041a660 f i CW3_Game.obj
 0001:00019670       ?virtRealMouseUp@BaseEngine@@UAEXHHH@Z 0041a670 f i CW3_Game.obj
 0001:00019680       ?virtTouchEvent@BaseEngine@@UAEXHH_J0MMMMM@Z 0041a680 f i CW3_Game.obj
 0001:000196c0       ?what@exception@std@@UBEPBDXZ 0041a6c0 f i CW3_Game.obj
 0001:00019860       ?xsgetn@?$basic_filebuf@DU?$char_traits@D@std@@@std@@MAE_JPAD_J@Z 0041a860 f i CW3_Game.obj
 0001:00019a00       ___local_stdio_printf_options 0041aa00 f i CW3_Game.obj
 0001:00019aa0       __vsprintf_l               0041aaa0 f i CW3_Game.obj
 0001:00019ae0       ??0CW3_Player@@QAE@HHPAVBaseEngine@@HHHHHH@Z 0041aae0 f   CW3_Player.obj
 0001:0001a1d0       ??1CW3_Player@@UAE@XZ      0041b1d0 f   CW3_Player.obj
 0001:0001a250       ?shootGun@CW3_Player@@QAEXXZ 0041b250 f   CW3_Player.obj
 0001:0001a280       ?increaseScore@CW3_Player@@QAEXH@Z 0041b280 f   CW3_Player.obj
 0001:0001a2a0       ?virtDraw@CW3_Player@@UAEXXZ 0041b2a0 f   CW3_Player.obj
 0001:0001a420       ?virtDoUpdate@CW3_Player@@UAEXH@Z 0041b420 f   CW3_Player.obj
 0001:0001aa00       ?virtDie@CW3_Player@@UAEXXZ 0041ba00 f   CW3_Player.obj
 0001:0001aa20       ?erase@?$vector@U?$pair@HH@std@@V?$allocator@U?$pair@HH@std@@@2@@std@@QAE?AV?$_Vector_iterator@V?$_Vector_val@U?$_Simple_types@U?$pair@HH@std@@@std@@@std@@@2@V?$_Vector_const_iterator@V?$_Vector_val@U?$_Simple_types@U?$pair@HH@std@@@std@@@std@@@2@@Z 0041ba20 f i CW3_Game.obj
 0001:0001abb0       ?overflow@?$basic_stringbuf@DU?$char_traits@D@std@@V?$allocator@D@2@@std@@MAEHH@Z 0041bbb0 f i CW3_Game.obj
 0001:0001adf0       ??$?0$$V@?$_Compressed_pair@V?$allocator@U?$_Tree_node@U?$pair@$$CBV?$basic_string@DU?$char_traits@D@std@@V?$allocator@D@2@@std@@V?$shared_ptr@VRawImageData@@@2@@std@@PAX@std@@@std@@V?$_Tree_val@U?$_Tree_simple_types@U?$pair@$$CBV?$basic_string@DU?$char_traits@D@std@@V?$allocator@D@2@@std@@V?$shared_ptr@VRawImageData@@@2@@std@@@std@@@2@$00@std@@QAE@U_Zero_then_variadic_args_t@1@@Z 0041bdf0 f i CW3_Player.obj
 0001:0001ae20       ??$?0$$V@?$_Compressed_pair@V?$allocator@U?$_Tree_node@U?$pair@$$CBV?$basic_string@DU?$char_traits@D@std@@V?$allocator@D@2@@std@@V?$weak_ptr@VRawImageData@@@2@@std@@PAX@std@@@std@@V?$_Tree_val@U?$_Tree_simple_types@U?$pair@$$CBV?$basic_string@DU?$char_traits@D@std@@V?$allocator@D@2@@std@@V?$weak_ptr@VRawImageData@@@2@@std@@@std@@@2@$00@std@@QAE@U_Zero_then_variadic_args_t@1@@Z 0041be20 f i CW3_Player.obj
 0001:0001ae50       ??$?0$$V@?$_Compressed_pair@V?$allocator@U?$pair@VSimpleImage@@H@std@@@std@@V?$_Vector_val@U?$_Simple_types@U?$pair@VSimpleImage@@H@std@@@std@@@2@$00@std@@QAE@U_Zero_then_variadic_args_t@1@@Z 0041be50 f i CW3_Player.obj
 0001:0001ae80       ??$?0AAV?$_Tree_iterator@V?$_Tree_val@U?$_Tree_simple_types@U?$pair@$$CBV?$basic_string@DU?$char_traits@D@std@@V?$allocator@D@2@@std@@V?$shared_ptr@VRawImageData@@@2@@std@@@std@@@std@@@std@@_N$0A@@?$pair@V?$_Tree_iterator@V?$_Tree_val@U?$_Tree_simple_types@U?$pair@$$CBV?$basic_string@DU?$char_traits@D@std@@V?$allocator@D@2@@std@@V?$shared_ptr@VRawImageData@@@2@@std@@@std@@@std@@@std@@_N@std@@QAE@AAV?$_Tree_iterator@V?$_Tree_val@U?$_Tree_simple_types@U?$pair@$$CBV?$basic_string@DU?$char_traits@D@std@@V?$allocator@D@2@@std@@V?$shared_ptr@VRawImageData@@@2@@std@@@std@@@std@@@1@$$QA_N@Z 0041be80 f i CW3_Player.obj
 0001:0001aed0       ??$?0AAV?$_Tree_iterator@V?$_Tree_val@U?$_Tree_simple_types@U?$pair@$$CBV?$basic_string@DU?$char_traits@D@std@@V?$allocator@D@2@@std@@V?$weak_ptr@VRawImageData@@@2@@std@@@std@@@std@@@std@@_N$0A@@?$pair@V?$_Tree_iterator@V?$_Tree_val@U?$_Tree_simple_types@U?$pair@$$CBV?$basic_string@DU?$char_traits@D@std@@V?$allocator@D@2@@std@@V?$weak_ptr@VRawImageData@@@2@@std@@@std@@@std@@@std@@_N@std@@QAE@AAV?$_Tree_iterator@V?$_Tree_val@U?$_Tree_simple_types@U?$pair@$$CBV?$basic_string@DU?$char_traits@D@std@@V?$allocator@D@2@@std@@V?$weak_ptr@VRawImageData@@@2@@std@@@std@@@std@@@1@$$QA_N@Z 0041bed0 f i CW3_Player.obj
 0001:0001af20       ??$?0AAV?$basic_string@DU?$char_traits@D@std@@V?$allocator@D@2@@std@@AAV?$shared_ptr@VRawImageData@@@1@$0A@@?$pair@V?$basic_string@DU?$char_traits@D@std@@V?$allocator@D@2@@std@@V?$shared_ptr@VRawImageData@@@2@@std@@QAE@AAV?$basic_string@DU?$char_traits@D@std@@V?$allocator@D@2@@1@AAV?$shared_ptr@VRawImageData@@@1@@Z 0041bf20 f i CW3_Player.obj
 0001:0001af70       ??$?0AAV?$basic_string@DU?$char_traits@D@std@@V?$allocator@D@2@@std@@AAV?$weak_ptr@VRawImageData@@@1@$0A@@?$pair@V?$basic_string@DU?$char_traits@D@std@@V?$allocator@D@2@@std@@V?$weak_ptr@VRawImageData@@@2@@std@@QAE@AAV?$basic_string@DU?$char_traits@D@std@@V?$allocator@D@2@@1@AAV?$weak_ptr@VRawImageData@@@1@@Z 0041bf70 f i CW3_Player.obj
 0001:0001afc0       ??$?0ABU?$less@V?$basic_string@DU?$char_traits@D@std@@V?$allocator@D@2@@std@@@std@@U_Zero_then_variadic_args_t@1@@?$_Compressed_pair@U?$less@V?$basic_string@DU?$char_traits@D@std@@V?$allocator@D@2@@std@@@std@@V?$_Compressed_pair@V?$allocator@U?$_Tree_node@U?$pair@$$CBV?$basic_string@DU?$char_traits@D@std@@V?$allocator@D@2@@std@@V?$shared_ptr@VRawImageData@@@2@@std@@PAX@std@@@std@@V?$_Tree_val@U?$_Tree_simple_types@U?$pair@$$CBV?$basic_string@DU?$char_traits@D@std@@V?$allocator@D@2@@std@@V?$shared_ptr@VRawImageData@@@2@@std@@@std@@@2@$00@2@$00@std@@QAE@U_One_then_variadic_args_t@1@ABU?$less@V?$basic_string@DU?$char_traits@D@std@@V?$allocator@D@2@@std@@@1@$$QAU_Zero_then_variadic_args_t@1@@Z 0041bfc0 f i CW3_Player.obj
 0001:0001b010       ??$?0ABU?$less@V?$basic_string@DU?$char_traits@D@std@@V?$allocator@D@2@@std@@@std@@U_Zero_then_variadic_args_t@1@@?$_Compressed_pair@U?$less@V?$basic_string@DU?$char_traits@D@std@@V?$allocator@D@2@@std@@@std@@V?$_Compressed_pair@V?$allocator@U?$_Tree_node@U?$pair@$$CBV?$basic_string@DU?$char_traits@D@std@@V?$allocator@D@2@@std@@V?$weak_ptr@VRawImageData@@@2@@std@@PAX@std@@@std@@V?$_Tree_val@U?$_Tree_simple_types@U?$pair@$$CBV?$basic_string@DU?$char_traits@D@std@@V?$allocator@D@2@@std@@V?$weak_ptr@VRawImageData@@@2@@std@@@std@@@2@$00@2@$00@std@@QAE@U_One_then_variadic_args_t@1@ABU?$less@V?$basic_string@DU?$char_traits@D@std@@V?$allocator@D@2@@std@@@1@$$QAU_Zero_then_variadic_args_t@1@@Z 0041c010 f i CW3_Player.obj
 0001:0001b060       ??$?0U?$_Tree_node@U?$pair@$$CBV?$basic_string@DU?$char_traits@D@std@@V?$allocator@D@2@@std@@V?$shared_ptr@VRawImageData@@@2@@std@@PAX@std@@@?$allocator@U_Container_proxy@std@@@std@@QAE@ABV?$allocator@U?$_Tree_node@U?$pair@$$CBV?$basic_string@DU?$char_traits@D@std@@V?$allocator@D@2@@std@@V?$shared_ptr@VRawImageData@@@2@@std@@PAX@std@@@1@@Z 0041c060 f i CW3_Player.obj
 0001:0001b080       ??$?0U?$_Tree_node@U?$pair@$$CBV?$basic_string@DU?$char_traits@D@std@@V?$allocator@D@2@@std@@V?$weak_ptr@VRawImageData@@@2@@std@@PAX@std@@@?$allocator@U_Container_proxy@std@@@std@@QAE@ABV?$allocator@U?$_Tree_node@U?$pair@$$CBV?$basic_string@DU?$char_traits@D@std@@V?$allocator@D@2@@std@@V?$weak_ptr@VRawImageData@@@2@@std@@PAX@std@@@1@@Z 0041c080 f i CW3_Player.obj
 0001:0001b0a0       ??$?0U?$pair@VSimpleImage@@H@std@@@?$allocator@U_Container_proxy@std@@@std@@QAE@ABV?$allocator@U?$pair@VSimpleImage@@H@std@@@1@@Z 0041c0a0 f i CW3_Player.obj
 0001:0001b0c0       ??$?0V?$_Tree_iterator@V?$_Tree_val@U?$_Tree_simple_types@U?$pair@$$CBV?$basic_string@DU?$char_traits@D@std@@V?$allocator@D@2@@std@@V?$shared_ptr@VRawImageData@@@2@@std@@@std@@@std@@@std@@_N$0A@@?$pair@V?$_Tree_iterator@V?$_Tree_val@U?$_Tree_simple_types@U?$pair@$$CBV?$basic_string@DU?$char_traits@D@std@@V?$allocator@D@2@@std@@V?$shared_ptr@VRawImageData@@@2@@std@@@std@@@std@@@std@@_N@std@@QAE@$$QAV?$_Tree_iterator@V?$_Tree_val@U?$_Tree_simple_types@U?$pair@$$CBV?$basic_string@DU?$char_traits@D@std@@V?$allocator@D@2@@std@@V?$shared_ptr@VRawImageData@@@2@@std@@@std@@@std@@@1@$$QA_N@Z 0041c0c0 f i CW3_Player.obj
 0001:0001b110       ??$?0V?$_Tree_iterator@V?$_Tree_val@U?$_Tree_simple_types@U?$pair@$$CBV?$basic_string@DU?$char_traits@D@std@@V?$allocator@D@2@@std@@V?$weak_ptr@VRawImageData@@@2@@std@@@std@@@std@@@std@@_N$0A@@?$pair@V?$_Tree_iterator@V?$_Tree_val@U?$_Tree_simple_types@U?$pair@$$CBV?$basic_string@DU?$char_traits@D@std@@V?$allocator@D@2@@std@@V?$weak_ptr@VRawImageData@@@2@@std@@@std@@@std@@@std@@_N@std@@QAE@$$QAV?$_Tree_iterator@V?$_Tree_val@U?$_Tree_simple_types@U?$pair@$$CBV?$basic_string@DU?$char_traits@D@std@@V?$allocator@D@2@@std@@V?$weak_ptr@VRawImageData@@@2@@std@@@std@@@std@@@1@$$QA_N@Z 0041c110 f i CW3_Player.obj
 0001:0001b160       ??$?0V?$allocator@U?$pair@VSimpleImage@@H@std@@@std@@$$V@?$_Compressed_pair@V?$allocator@U?$pair@VSimpleImage@@H@std@@@std@@V?$_Vector_val@U?$_Simple_types@U?$pair@VSimpleImage@@H@std@@@std@@@2@$00@std@@QAE@U_One_then_variadic_args_t@1@$$QAV?$allocator@U?$pair@VSimpleImage@@H@std@@@1@@Z 0041c160 f i CW3_Player.obj
 0001:0001b190       ??$?0V?$allocator@U?$pair@VSimpleImage@@H@std@@@std@@X@?$_Vector_alloc@U?$_Vec_base_types@U?$pair@VSimpleImage@@H@std@@V?$allocator@U?$pair@VSimpleImage@@H@std@@@2@@std@@@std@@QAE@$$QAV?$allocator@U?$pair@VSimpleImage@@H@std@@@1@@Z 0041c190 f i CW3_Player.obj
 0001:0001b1e0       ??$?0V?$basic_string@DU?$char_traits@D@std@@V?$allocator@D@2@@std@@V?$shared_ptr@VRawImageData@@@1@$0A@@?$pair@$$CBV?$basic_string@DU?$char_traits@D@std@@V?$allocator@D@2@@std@@V?$shared_ptr@VRawImageData@@@2@@std@@QAE@$$QAU?$pair@V?$basic_string@DU?$char_traits@D@std@@V?$allocator@D@2@@std@@V?$shared_ptr@VRawImageData@@@2@@1@@Z 0041c1e0 f i CW3_Player.obj
 0001:0001b230       ??$?0V?$basic_string@DU?$char_traits@D@std@@V?$allocator@D@2@@std@@V?$weak_ptr@VRawImageData@@@1@$0A@@?$pair@$$CBV?$basic_string@DU?$char_traits@D@std@@V?$allocator@D@2@@std@@V?$weak_ptr@VRawImageData@@@2@@std@@QAE@$$QAU?$pair@V?$basic_string@DU?$char_traits@D@std@@V?$allocator@D@2@@std@@V?$weak_ptr@VRawImageData@@@2@@1@@Z 0041c230 f i CW3_Player.obj
 0001:0001b280       ??$?0VRawImageData@@$0A@@?$shared_ptr@VRawImageData@@@std@@QAE@PAVRawImageData@@@Z 0041c280 f i CW3_Player.obj
 0001:0001b2c0       ??$?0VRawImageData@@$0A@@?$weak_ptr@VRawImageData@@@std@@QAE@ABV?$shared_ptr@VRawImageData@@@1@@Z 0041c2c0 f i CW3_Player.obj
 0001:0001b330       ??$?0VSimpleImage@@H$0A@@?$pair@VSimpleImage@@H@std@@QAE@$$QAVSimpleImage@@$$QAH@Z 0041c330 f i CW3_Player.obj
 0001:0001b380       ??$?4VSimpleImage@@H$0A@@?$pair@VSimpleImage@@H@std@@QAEAAU01@ABU01@@Z 0041c380 f i CW3_Player.obj
 0001:0001b3c0       ??$?9VRawImageData@@@std@@YA_NABV?$shared_ptr@VRawImageData@@@0@$$T@Z 0041c3c0 f i CW3_Player.obj
 0001:0001b3f0       ??$?CVRawImageData@@$0A@@?$shared_ptr@VRawImageData@@@std@@QBEPAVRawImageData@@XZ 0041c3f0 f i CW3_Player.obj
 0001:0001b410       ??$?MDU?$char_traits@D@std@@V?$allocator@D@1@@std@@YA_NABV?$basic_string@DU?$char_traits@D@std@@V?$allocator@D@2@@0@0@Z 0041c410 f i CW3_Player.obj
 0001:0001b450       ??$_Adl_verify_range1@PAU?$pair@VSimpleImage@@H@std@@PAU12@@std@@YAXABQAU?$pair@VSimpleImage@@H@0@0U?$integral_constant@_N$00@0@@Z 0041c450 f i CW3_Player.obj
 0001:0001b470       ??$_Adl_verify_range@PAU?$pair@VSimpleImage@@H@std@@PAU12@@std@@YAXABQAU?$pair@VSimpleImage@@H@0@0@Z 0041c470 f i CW3_Player.obj
 0001:0001b4a0       ??$_Advance1@PAU?$pair@VSimpleImage@@H@std@@H@std@@YAXAAPAU?$pair@VSimpleImage@@H@0@HUrandom_access_iterator_tag@0@@Z 0041c4a0 f i CW3_Player.obj
 0001:0001b4c0       ??$_Assign_range@PAU?$pair@VSimpleImage@@H@std@@@?$vector@U?$pair@VSimpleImage@@H@std@@V?$allocator@U?$pair@VSimpleImage@@H@std@@@2@@std@@AAEXPAU?$pair@VSimpleImage@@H@1@0Uforward_iterator_tag@1@@Z 0041c4c0 f i CW3_Player.obj
 0001:0001b6e0       ??$_Buy_if_not_node@AAU?$pair@$$CBV?$basic_string@DU?$char_traits@D@std@@V?$allocator@D@2@@std@@V?$shared_ptr@VRawImageData@@@2@@std@@@?$_Tree@V?$_Tmap_traits@V?$basic_string@DU?$char_traits@D@std@@V?$allocator@D@2@@std@@V?$shared_ptr@VRawImageData@@@2@U?$less@V?$basic_string@DU?$char_traits@D@std@@V?$allocator@D@2@@std@@@2@V?$allocator@U?$pair@$$CBV?$basic_string@DU?$char_traits@D@std@@V?$allocator@D@2@@std@@V?$shared_ptr@VRawImageData@@@2@@std@@@2@$0A@@std@@@std@@IAEPAU?$_Tree_node@U?$pair@$$CBV?$basic_string@DU?$char_traits@D@std@@V?$allocator@D@2@@std@@V?$shared_ptr@VRawImageData@@@2@@std@@PAX@1@PAU21@AAU?$pair@$$CBV?$basic_string@DU?$char_traits@D@std@@V?$allocator@D@2@@std@@V?$shared_ptr@VRawImageData@@@2@@1@@Z 0041c6e0 f i CW3_Player.obj
 0001:0001b700       ??$_Buy_if_not_node@AAU?$pair@$$CBV?$basic_string@DU?$char_traits@D@std@@V?$allocator@D@2@@std@@V?$weak_ptr@VRawImageData@@@2@@std@@@?$_Tree@V?$_Tmap_traits@V?$basic_string@DU?$char_traits@D@std@@V?$allocator@D@2@@std@@V?$weak_ptr@VRawImageData@@@2@U?$less@V?$basic_string@DU?$char_traits@D@std@@V?$allocator@D@2@@std@@@2@V?$allocator@U?$pair@$$CBV?$basic_string@DU?$char_traits@D@std@@V?$allocator@D@2@@std@@V?$weak_ptr@VRawImageData@@@2@@std@@@2@$0A@@std@@@std@@IAEPAU?$_Tree_node@U?$pair@$$CBV?$basic_string@DU?$char_traits@D@std@@V?$allocator@D@2@@std@@V?$weak_ptr@VRawImageData@@@2@@std@@PAX@1@PAU21@AAU?$pair@$$CBV?$basic_string@DU?$char_traits@D@std@@V?$allocator@D@2@@std@@V?$weak_ptr@VRawImageData@@@2@@1@@Z 0041c700 f i CW3_Player.obj
 0001:0001b720       ??$_Buynode@U?$pair@V?$basic_string@DU?$char_traits@D@std@@V?$allocator@D@2@@std@@V?$shared_ptr@VRawImageData@@@2@@std@@@?$_Tree_comp_alloc@V?$_Tmap_traits@V?$basic_string@DU?$char_traits@D@std@@V?$allocator@D@2@@std@@V?$shared_ptr@VRawImageData@@@2@U?$less@V?$basic_string@DU?$char_traits@D@std@@V?$allocator@D@2@@std@@@2@V?$allocator@U?$pair@$$CBV?$basic_string@DU?$char_traits@D@std@@V?$allocator@D@2@@std@@V?$shared_ptr@VRawImageData@@@2@@std@@@2@$0A@@std@@@std@@QAEPAU?$_Tree_node@U?$pair@$$CBV?$basic_string@DU?$char_traits@D@std@@V?$allocator@D@2@@std@@V?$shared_ptr@VRawImageData@@@2@@std@@PAX@1@$$QAU?$pair@V?$basic_string@DU?$char_traits@D@std@@V?$allocator@D@2@@std@@V?$shared_ptr@VRawImageData@@@2@@1@@Z 0041c720 f i CW3_Player.obj
 0001:0001b820       ??$_Buynode@U?$pair@V?$basic_string@DU?$char_traits@D@std@@V?$allocator@D@2@@std@@V?$weak_ptr@VRawImageData@@@2@@std@@@?$_Tree_comp_alloc@V?$_Tmap_traits@V?$basic_string@DU?$char_traits@D@std@@V?$allocator@D@2@@std@@V?$weak_ptr@VRawImageData@@@2@U?$less@V?$basic_string@DU?$char_traits@D@std@@V?$allocator@D@2@@std@@@2@V?$allocator@U?$pair@$$CBV?$basic_string@DU?$char_traits@D@std@@V?$allocator@D@2@@std@@V?$weak_ptr@VRawImageData@@@2@@std@@@2@$0A@@std@@@std@@QAEPAU?$_Tree_node@U?$pair@$$CBV?$basic_string@DU?$char_traits@D@std@@V?$allocator@D@2@@std@@V?$weak_ptr@VRawImageData@@@2@@std@@PAX@1@$$QAU?$pair@V?$basic_string@DU?$char_traits@D@std@@V?$allocator@D@2@@std@@V?$weak_ptr@VRawImageData@@@2@@1@@Z 0041c820 f i CW3_Player.obj
 0001:0001b920       ??$_Construct_from_weak@VRawImageData@@@?$_Ptr_base@VRawImageData@@@std@@IAE_NABV?$weak_ptr@VRawImageData@@@1@@Z 0041c920 f i CW3_Player.obj
 0001:0001b980       ??$_Copy_construct_from@VRawImageData@@@?$_Ptr_base@VRawImageData@@@std@@IAEXABV?$shared_ptr@VRawImageData@@@1@@Z 0041c980 f i CW3_Player.obj
 0001:0001b9d0       ??$_Copy_unchecked1@PAU?$pair@VSimpleImage@@H@std@@PAU12@@std@@YAPAU?$pair@VSimpleImage@@H@0@PAU10@00U_General_ptr_iterator_tag@0@@Z 0041c9d0 f i CW3_Player.obj
 0001:0001ba10       ??$_Copy_unchecked@PAU?$pair@VSimpleImage@@H@std@@PAU12@@std@@YAPAU?$pair@VSimpleImage@@H@0@PAU10@00@Z 0041ca10 f i CW3_Player.obj
 0001:0001ba60       ??$_Debug_lt_pred@AAU?$less@V?$basic_string@DU?$char_traits@D@std@@V?$allocator@D@2@@std@@@std@@ABV?$basic_string@DU?$char_traits@D@std@@V?$allocator@D@2@@2@ABV32@@std@@YA_NAAU?$less@V?$basic_string@DU?$char_traits@D@std@@V?$allocator@D@2@@std@@@0@ABV?$basic_string@DU?$char_traits@D@std@@V?$allocator@D@2@@0@1@Z 0041ca60 f i CW3_Player.obj
 0001:0001bb10       ??$_Debug_lt_pred@ABU?$less@V?$basic_string@DU?$char_traits@D@std@@V?$allocator@D@2@@std@@@std@@ABV?$basic_string@DU?$char_traits@D@std@@V?$allocator@D@2@@2@ABV32@@std@@YA_NABU?$less@V?$basic_string@DU?$char_traits@D@std@@V?$allocator@D@2@@std@@@0@ABV?$basic_string@DU?$char_traits@D@std@@V?$allocator@D@2@@0@1@Z 0041cb10 f i CW3_Player.obj
 0001:0001bbc0       ??$_Destroy_range1@V?$allocator@U?$pair@VSimpleImage@@H@std@@@std@@@std@@YAXPAU?$pair@VSimpleImage@@H@0@0AAV?$allocator@U?$pair@VSimpleImage@@H@std@@@0@U?$integral_constant@_N$0A@@0@@Z 0041cbc0 f i CW3_Player.obj
 0001:0001bc00       ??$_Destroy_range@V?$allocator@U?$pair@VSimpleImage@@H@std@@@std@@@std@@YAXPAU?$pair@VSimpleImage@@H@0@0AAV?$allocator@U?$pair@VSimpleImage@@H@std@@@0@@Z 0041cc00 f i CW3_Player.obj
 0001:0001bc30       ??$_Distance1@PAU?$pair@VSimpleImage@@H@std@@@std@@YAHPAU?$pair@VSimpleImage@@H@0@0Urandom_access_iterator_tag@0@@Z 0041cc30 f i CW3_Player.obj
 0001:0001bc50       ??$_Emplace_back@AAU?$pair@VSimpleImage@@H@std@@@?$_Uninitialized_backout_al@PAU?$pair@VSimpleImage@@H@std@@V?$allocator@U?$pair@VSimpleImage@@H@std@@@2@@std@@QAEXAAU?$pair@VSimpleImage@@H@1@@Z 0041cc50 f i CW3_Player.obj
 0001:0001bcb0       ??$_Emplace_back@U?$pair@VSimpleImage@@H@std@@@?$_Uninitialized_backout_al@PAU?$pair@VSimpleImage@@H@std@@V?$allocator@U?$pair@VSimpleImage@@H@std@@@2@@std@@QAEX$$QAU?$pair@VSimpleImage@@H@1@@Z 0041ccb0 f i CW3_Player.obj
 0001:0001bd10       ??$_Emplace_back_with_unused_capacity@U?$pair@VSimpleImage@@H@std@@@?$vector@U?$pair@VSimpleImage@@H@std@@V?$allocator@U?$pair@VSimpleImage@@H@std@@@2@@std@@AAE@$$QAU?$pair@VSimpleImage@@H@1@@Z 0041cd10 f i CW3_Player.obj
 0001:0001bdc0       ??$_Emplace_reallocate@U?$pair@VSimpleImage@@H@std@@@?$vector@U?$pair@VSimpleImage@@H@std@@V?$allocator@U?$pair@VSimpleImage@@H@std@@@2@@std@@QAEPAU?$pair@VSimpleImage@@H@1@QAU21@$$QAU21@@Z 0041cdc0 f i CW3_Player.obj
 0001:0001c020       ??$_Enable_shared_from_this1@VRawImageData@@V1@@std@@YAXABV?$shared_ptr@VRawImageData@@@0@PAVRawImageData@@U?$integral_constant@_N$0A@@0@@Z 0041d020 f i CW3_Player.obj
 0001:0001c030       ??$_Enable_shared_from_this@VRawImageData@@V1@@std@@YAXABV?$shared_ptr@VRawImageData@@@0@PAVRawImageData@@@Z 0041d030 f i CW3_Player.obj
 0001:0001c060       ??$_Freenode0@V?$allocator@U?$_Tree_node@U?$pair@$$CBV?$basic_string@DU?$char_traits@D@std@@V?$allocator@D@2@@std@@V?$shared_ptr@VRawImageData@@@2@@std@@PAX@std@@@std@@@?$_Tree_node@U?$pair@$$CBV?$basic_string@DU?$char_traits@D@std@@V?$allocator@D@2@@std@@V?$shared_ptr@VRawImageData@@@2@@std@@PAX@std@@SAXAAV?$allocator@U?$_Tree_node@U?$pair@$$CBV?$basic_string@DU?$char_traits@D@std@@V?$allocator@D@2@@std@@V?$shared_ptr@VRawImageData@@@2@@std@@PAX@std@@@1@PAU01@@Z 0041d060 f i CW3_Player.obj
 0001:0001c120       ??$_Freenode0@V?$allocator@U?$_Tree_node@U?$pair@$$CBV?$basic_string@DU?$char_traits@D@std@@V?$allocator@D@2@@std@@V?$weak_ptr@VRawImageData@@@2@@std@@PAX@std@@@std@@@?$_Tree_node@U?$pair@$$CBV?$basic_string@DU?$char_traits@D@std@@V?$allocator@D@2@@std@@V?$weak_ptr@VRawImageData@@@2@@std@@PAX@std@@SAXAAV?$allocator@U?$_Tree_node@U?$pair@$$CBV?$basic_string@DU?$char_traits@D@std@@V?$allocator@D@2@@std@@V?$weak_ptr@VRawImageData@@@2@@std@@PAX@std@@@1@PAU01@@Z 0041d120 f i CW3_Player.obj
 0001:0001c1e0       ??$_Get_size_of_n@$0BE@@std@@YAII@Z 0041d1e0 f i CW3_Player.obj
 0001:0001c220       ??$_Get_size_of_n@$0DE@@std@@YAII@Z 0041d220 f i CW3_Player.obj
 0001:0001c260       ??$_Get_unwrapped@U?$pair@VSimpleImage@@H@std@@@std@@YAPAU?$pair@VSimpleImage@@H@0@QAU10@@Z 0041d260 f i CW3_Player.obj
 0001:0001c270       ??$_Get_unwrapped_n@U?$pair@VSimpleImage@@H@std@@H$0A@@std@@YAPAU?$pair@VSimpleImage@@H@0@QAU10@H@Z 0041d270 f i CW3_Player.obj
 0001:0001c280       ??$_Idl_distance1@PAU?$pair@VSimpleImage@@H@std@@PAU12@@std@@YAHABQAU?$pair@VSimpleImage@@H@0@0Urandom_access_iterator_tag@0@@Z 0041d280 f i CW3_Player.obj
 0001:0001c2a0       ??$_Idl_distance@PAU?$pair@VSimpleImage@@H@std@@PAU12@@std@@YA@ABQAU?$pair@VSimpleImage@@H@0@0@Z 0041d2a0 f i CW3_Player.obj
 0001:0001c2d0       ??$_Insert_at@AAU?$pair@$$CBV?$basic_string@DU?$char_traits@D@std@@V?$allocator@D@2@@std@@V?$shared_ptr@VRawImageData@@@2@@std@@PAU?$_Tree_node@U?$pair@$$CBV?$basic_string@DU?$char_traits@D@std@@V?$allocator@D@2@@std@@V?$shared_ptr@VRawImageData@@@2@@std@@PAX@2@@?$_Tree@V?$_Tmap_traits@V?$basic_string@DU?$char_traits@D@std@@V?$allocator@D@2@@std@@V?$shared_ptr@VRawImageData@@@2@U?$less@V?$basic_string@DU?$char_traits@D@std@@V?$allocator@D@2@@std@@@2@V?$allocator@U?$pair@$$CBV?$basic_string@DU?$char_traits@D@std@@V?$allocator@D@2@@std@@V?$shared_ptr@VRawImageData@@@2@@std@@@2@$0A@@std@@@std@@IAE?AV?$_Tree_iterator@V?$_Tree_val@U?$_Tree_simple_types@U?$pair@$$CBV?$basic_string@DU?$char_traits@D@std@@V?$allocator@D@2@@std@@V?$shared_ptr@VRawImageData@@@2@@std@@@std@@@std@@@1@_NPAU?$_Tree_node@U?$pair@$$CBV?$basic_string@DU?$char_traits@D@std@@V?$allocator@D@2@@std@@V?$shared_ptr@VRawImageData@@@2@@std@@PAX@1@AAU?$pair@$$CBV?$basic_string@DU?$char_traits@D@std@@V?$allocator@D@2@@std@@V?$shared_ptr@VRawImageData@@@2@@1@1@Z 0041d2d0 f i CW3_Player.obj
 0001:0001c610       ??$_Insert_at@AAU?$pair@$$CBV?$basic_string@DU?$char_traits@D@std@@V?$allocator@D@2@@std@@V?$weak_ptr@VRawImageData@@@2@@std@@PAU?$_Tree_node@U?$pair@$$CBV?$basic_string@DU?$char_traits@D@std@@V?$allocator@D@2@@std@@V?$weak_ptr@VRawImageData@@@2@@std@@PAX@2@@?$_Tree@V?$_Tmap_traits@V?$basic_string@DU?$char_traits@D@std@@V?$allocator@D@2@@std@@V?$weak_ptr@VRawImageData@@@2@U?$less@V?$basic_string@DU?$char_traits@D@std@@V?$allocator@D@2@@std@@@2@V?$allocator@U?$pair@$$CBV?$basic_string@DU?$char_traits@D@std@@V?$allocator@D@2@@std@@V?$weak_ptr@VRawImageData@@@2@@std@@@2@$0A@@std@@@std@@IAE?AV?$_Tree_iterator@V?$_Tree_val@U?$_Tree_simple_types@U?$pair@$$CBV?$basic_string@DU?$char_traits@D@std@@V?$allocator@D@2@@std@@V?$weak_ptr@VRawImageData@@@2@@std@@@std@@@std@@@1@_NPAU?$_Tree_node@U?$pair@$$CBV?$basic_string@DU?$char_traits@D@std@@V?$allocator@D@2@@std@@V?$weak_ptr@VRawImageData@@@2@@std@@PAX@1@AAU?$pair@$$CBV?$basic_string@DU?$char_traits@D@std@@V?$allocator@D@2@@std@@V?$weak_ptr@VRawImageData@@@2@@1@1@Z 0041d610 f i CW3_Player.obj
 0001:0001c950       ??$_Insert_nohint@AAU?$pair@$$CBV?$basic_string@DU?$char_traits@D@std@@V?$allocator@D@2@@std@@V?$shared_ptr@VRawImageData@@@2@@std@@PAU?$_Tree_node@U?$pair@$$CBV?$basic_string@DU?$char_traits@D@std@@V?$allocator@D@2@@std@@V?$shared_ptr@VRawImageData@@@2@@std@@PAX@2@@?$_Tree@V?$_Tmap_traits@V?$basic_string@DU?$char_traits@D@std@@V?$allocator@D@2@@std@@V?$shared_ptr@VRawImageData@@@2@U?$less@V?$basic_string@DU?$char_traits@D@std@@V?$allocator@D@2@@std@@@2@V?$allocator@U?$pair@$$CBV?$basic_string@DU?$char_traits@D@std@@V?$allocator@D@2@@std@@V?$shared_ptr@VRawImageData@@@2@@std@@@2@$0A@@std@@@std@@IAE?AU?$pair@V?$_Tree_iterator@V?$_Tree_val@U?$_Tree_simple_types@U?$pair@$$CBV?$basic_string@DU?$char_traits@D@std@@V?$allocator@D@2@@std@@V?$shared_ptr@VRawImageData@@@2@@std@@@std@@@std@@@std@@_N@1@_NAAU?$pair@$$CBV?$basic_string@DU?$char_traits@D@std@@V?$allocator@D@2@@std@@V?$shared_ptr@VRawImageData@@@2@@1@PAU?$_Tree_node@U?$pair@$$CBV?$basic_string@DU?$char_traits@D@std@@V?$allocator@D@2@@std@@V?$shared_ptr@VRawImageData@@@2@@std@@PAX@1@@Z 0041d950 f i CW3_Player.obj
 0001:0001ce00       ??$_Insert_nohint@AAU?$pair@$$CBV?$basic_string@DU?$char_traits@D@std@@V?$allocator@D@2@@std@@V?$weak_ptr@VRawImageData@@@2@@std@@PAU?$_Tree_node@U?$pair@$$CBV?$basic_string@DU?$char_traits@D@std@@V?$allocator@D@2@@std@@V?$weak_ptr@VRawImageData@@@2@@std@@PAX@2@@?$_Tree@V?$_Tmap_traits@V?$basic_string@DU?$char_traits@D@std@@V?$allocator@D@2@@std@@V?$weak_ptr@VRawImageData@@@2@U?$less@V?$basic_string@DU?$char_traits@D@std@@V?$allocator@D@2@@std@@@2@V?$allocator@U?$pair@$$CBV?$basic_string@DU?$char_traits@D@std@@V?$allocator@D@2@@std@@V?$weak_ptr@VRawImageData@@@2@@std@@@2@$0A@@std@@@std@@IAE?AU?$pair@V?$_Tree_iterator@V?$_Tree_val@U?$_Tree_simple_types@U?$pair@$$CBV?$basic_string@DU?$char_traits@D@std@@V?$allocator@D@2@@std@@V?$weak_ptr@VRawImageData@@@2@@std@@@std@@@std@@@std@@_N@1@_NAAU?$pair@$$CBV?$basic_string@DU?$char_traits@D@std@@V?$allocator@D@2@@std@@V?$weak_ptr@VRawImageData@@@2@@1@PAU?$_Tree_node@U?$pair@$$CBV?$basic_string@DU?$char_traits@D@std@@V?$allocator@D@2@@std@@V?$weak_ptr@VRawImageData@@@2@@std@@PAX@1@@Z 0041de00 f i CW3_Player.obj
 0001:0001d2b0       ??$_Kfn@$$CBV?$basic_string@DU?$char_traits@D@std@@V?$allocator@D@2@@std@@V?$shared_ptr@VRawImageData@@@2@@?$_Tmap_traits@V?$basic_string@DU?$char_traits@D@std@@V?$allocator@D@2@@std@@V?$shared_ptr@VRawImageData@@@2@U?$less@V?$basic_string@DU?$char_traits@D@std@@V?$allocator@D@2@@std@@@2@V?$allocator@U?$pair@$$CBV?$basic_string@DU?$char_traits@D@std@@V?$allocator@D@2@@std@@V?$shared_ptr@VRawImageData@@@2@@std@@@2@$0A@@std@@SAABV?$basic_string@DU?$char_traits@D@std@@V?$allocator@D@2@@1@ABU?$pair@$$CBV?$basic_string@DU?$char_traits@D@std@@V?$allocator@D@2@@std@@V?$shared_ptr@VRawImageData@@@2@@1@@Z 0041e2b0 f i CW3_Player.obj
 0001:0001d2c0       ??$_Kfn@$$CBV?$basic_string@DU?$char_traits@D@std@@V?$allocator@D@2@@std@@V?$weak_ptr@VRawImageData@@@2@@?$_Tmap_traits@V?$basic_string@DU?$char_traits@D@std@@V?$allocator@D@2@@std@@V?$weak_ptr@VRawImageData@@@2@U?$less@V?$basic_string@DU?$char_traits@D@std@@V?$allocator@D@2@@std@@@2@V?$allocator@U?$pair@$$CBV?$basic_string@DU?$char_traits@D@std@@V?$allocator@D@2@@std@@V?$weak_ptr@VRawImageData@@@2@@std@@@2@$0A@@std@@SAABV?$basic_string@DU?$char_traits@D@std@@V?$allocator@D@2@@1@ABU?$pair@$$CBV?$basic_string@DU?$char_traits@D@std@@V?$allocator@D@2@@std@@V?$weak_ptr@VRawImageData@@@2@@1@@Z 0041e2c0 f i CW3_Player.obj
 0001:0001d2d0       ??$_Lbound@V?$basic_string@DU?$char_traits@D@std@@V?$allocator@D@2@@std@@@?$_Tree@V?$_Tmap_traits@V?$basic_string@DU?$char_traits@D@std@@V?$allocator@D@2@@std@@V?$weak_ptr@VRawImageData@@@2@U?$less@V?$basic_string@DU?$char_traits@D@std@@V?$allocator@D@2@@std@@@2@V?$allocator@U?$pair@$$CBV?$basic_string@DU?$char_traits@D@std@@V?$allocator@D@2@@std@@V?$weak_ptr@VRawImageData@@@2@@std@@@2@$0A@@std@@@std@@IBEPAU?$_Tree_node@U?$pair@$$CBV?$basic_string@DU?$char_traits@D@std@@V?$allocator@D@2@@std@@V?$weak_ptr@VRawImageData@@@2@@std@@PAX@1@ABV?$basic_string@DU?$char_traits@D@std@@V?$allocator@D@2@@1@@Z 0041e2d0 f i CW3_Player.obj
 0001:0001d360       ??$_Move_construct_from@VRawImageData@@@?$_Ptr_base@VRawImageData@@@std@@IAEX$$QAV01@@Z 0041e360 f i CW3_Player.obj
 0001:0001d3b0       ??$_Pocca@V?$allocator@U?$pair@VSimpleImage@@H@std@@@std@@@std@@YAXAAV?$allocator@U?$pair@VSimpleImage@@H@std@@@0@ABV10@@Z 0041e3b0 f i CW3_Player.obj
 0001:0001d3e0       ??$_Pocca@V?$allocator@U?$pair@VSimpleImage@@H@std@@@std@@@std@@YAXAAV?$allocator@U?$pair@VSimpleImage@@H@std@@@0@ABV10@U?$integral_constant@_N$0A@@0@@Z 0041e3e0 f i CW3_Player.obj
 0001:0001d3f0       ??$_Ptr_copy_cat@U?$pair@VSimpleImage@@H@std@@U12@@std@@YA?AU_General_ptr_iterator_tag@0@ABQAU?$pair@VSimpleImage@@H@0@0@Z 0041e3f0 f i CW3_Player.obj
 0001:0001d410       ??$_Ptr_move_cat@U?$pair@VSimpleImage@@H@std@@U12@@std@@YA?AU_General_ptr_iterator_tag@0@ABQAU?$pair@VSimpleImage@@H@0@0@Z 0041e410 f i CW3_Player.obj
 0001:0001d430       ??$_Seek_wrapped@U?$pair@VSimpleImage@@H@std@@@std@@YAXAAPAU?$pair@VSimpleImage@@H@0@QAU10@@Z 0041e430 f i CW3_Player.obj
 0001:0001d440       ??$_Set_ptr_rep_and_enable_shared@VRawImageData@@@?$shared_ptr@VRawImageData@@@std@@AAEXPAVRawImageData@@PAV_Ref_count_base@1@@Z 0041e440 f i CW3_Player.obj
 0001:0001d480       ??$_Setp@VRawImageData@@@?$shared_ptr@VRawImageData@@@std@@AAEXPAVRawImageData@@U?$integral_constant@_N$0A@@1@@Z 0041e480 f i CW3_Player.obj
 0001:0001d5b0       ??$_Traits_compare@U?$char_traits@D@std@@@std@@YAHQBDI0I@Z 0041e5b0 f i CW3_Player.obj
 0001:0001d620       ??$_Ucopy@PAU?$pair@VSimpleImage@@H@std@@@?$vector@U?$pair@VSimpleImage@@H@std@@V?$allocator@U?$pair@VSimpleImage@@H@std@@@2@@std@@AAEPAU?$pair@VSimpleImage@@H@1@PAU21@00@Z 0041e620 f i CW3_Player.obj
 0001:0001d660       ??$_Unfancy@U?$pair@VSimpleImage@@H@std@@@std@@YAPAU?$pair@VSimpleImage@@H@0@PAU10@@Z 0041e660 f i CW3_Player.obj
 0001:0001d670       ??$_Uninitialized_copy@PAU?$pair@VSimpleImage@@H@std@@PAU12@V?$allocator@U?$pair@VSimpleImage@@H@std@@@2@@std@@YAPAU?$pair@VSimpleImage@@H@0@QAU10@0PAU10@AAV?$allocator@U?$pair@VSimpleImage@@H@std@@@0@@Z 0041e670 f i CW3_Player.obj
 0001:0001d730       ??$_Uninitialized_copy_al_unchecked@PAU?$pair@VSimpleImage@@H@std@@PAU12@V?$allocator@U?$pair@VSimpleImage@@H@std@@@2@@std@@YAPAU?$pair@VSimpleImage@@H@0@PAU10@QAU10@1AAV?$allocator@U?$pair@VSimpleImage@@H@std@@@0@U_General_ptr_iterator_tag@0@U_Unused_parameter@0@@Z 0041e730 f i CW3_Player.obj
 0001:0001d7e0       ??$_Uninitialized_move@PAU?$pair@VSimpleImage@@H@std@@PAU12@V?$allocator@U?$pair@VSimpleImage@@H@std@@@2@@std@@YAPAU?$pair@VSimpleImage@@H@0@QAU10@0PAU10@AAV?$allocator@U?$pair@VSimpleImage@@H@std@@@0@@Z 0041e7e0 f i CW3_Player.obj
 0001:0001d8a0       ??$_Uninitialized_move_al_unchecked@PAU?$pair@VSimpleImage@@H@std@@PAU12@V?$allocator@U?$pair@VSimpleImage@@H@std@@@2@@std@@YAPAU?$pair@VSimpleImage@@H@0@PAU10@QAU10@1AAV?$allocator@U?$pair@VSimpleImage@@H@std@@@0@U_General_ptr_iterator_tag@0@U_Unused_parameter@0@@Z 0041e8a0 f i CW3_Player.obj
 0001:0001d960       ??$_Verify_range@U?$pair@VSimpleImage@@H@std@@@std@@YAXQBU?$pair@VSimpleImage@@H@0@0@Z 0041e960 f i CW3_Player.obj
 0001:0001d9e0       ??$_Weakly_construct_from@VRawImageData@@@?$_Ptr_base@VRawImageData@@@std@@IAEXABV01@@Z 0041e9e0 f i CW3_Player.obj
 0001:0001da30       ??$addressof@$$CBV?$vector@U?$pair@VSimpleImage@@H@std@@V?$allocator@U?$pair@VSimpleImage@@H@std@@@2@@std@@@std@@YAPBV?$vector@U?$pair@VSimpleImage@@H@std@@V?$allocator@U?$pair@VSimpleImage@@H@std@@@2@@0@ABV10@@Z 0041ea30 f i CW3_Player.obj
 0001:0001da40       ??$addressof@PAU?$_Tree_node@U?$pair@$$CBV?$basic_string@DU?$char_traits@D@std@@V?$allocator@D@2@@std@@V?$shared_ptr@VRawImageData@@@2@@std@@PAX@std@@@std@@YAPAPAU?$_Tree_node@U?$pair@$$CBV?$basic_string@DU?$char_traits@D@std@@V?$allocator@D@2@@std@@V?$shared_ptr@VRawImageData@@@2@@std@@PAX@0@AAPAU10@@Z 0041ea40 f i CW3_Player.obj
 0001:0001da50       ??$addressof@PAU?$_Tree_node@U?$pair@$$CBV?$basic_string@DU?$char_traits@D@std@@V?$allocator@D@2@@std@@V?$weak_ptr@VRawImageData@@@2@@std@@PAX@std@@@std@@YAPAPAU?$_Tree_node@U?$pair@$$CBV?$basic_string@DU?$char_traits@D@std@@V?$allocator@D@2@@std@@V?$weak_ptr@VRawImageData@@@2@@std@@PAX@0@AAPAU10@@Z 0041ea50 f i CW3_Player.obj
 0001:0001da60       ??$addressof@U?$pair@$$CBV?$basic_string@DU?$char_traits@D@std@@V?$allocator@D@2@@std@@V?$shared_ptr@VRawImageData@@@2@@std@@@std@@YAPAU?$pair@$$CBV?$basic_string@DU?$char_traits@D@std@@V?$allocator@D@2@@std@@V?$shared_ptr@VRawImageData@@@2@@0@AAU10@@Z 0041ea60 f i CW3_Player.obj
 0001:0001da70       ??$addressof@U?$pair@$$CBV?$basic_string@DU?$char_traits@D@std@@V?$allocator@D@2@@std@@V?$weak_ptr@VRawImageData@@@2@@std@@@std@@YAPAU?$pair@$$CBV?$basic_string@DU?$char_traits@D@std@@V?$allocator@D@2@@std@@V?$weak_ptr@VRawImageData@@@2@@0@AAU10@@Z 0041ea70 f i CW3_Player.obj
 0001:0001da80       ??$addressof@V?$_Tree_val@U?$_Tree_simple_types@U?$pair@$$CBV?$basic_string@DU?$char_traits@D@std@@V?$allocator@D@2@@std@@V?$shared_ptr@VRawImageData@@@2@@std@@@std@@@std@@@std@@YAPAV?$_Tree_val@U?$_Tree_simple_types@U?$pair@$$CBV?$basic_string@DU?$char_traits@D@std@@V?$allocator@D@2@@std@@V?$shared_ptr@VRawImageData@@@2@@std@@@std@@@0@AAV10@@Z 0041ea80 f i CW3_Player.obj
 0001:0001da90       ??$addressof@V?$_Tree_val@U?$_Tree_simple_types@U?$pair@$$CBV?$basic_string@DU?$char_traits@D@std@@V?$allocator@D@2@@std@@V?$weak_ptr@VRawImageData@@@2@@std@@@std@@@std@@@std@@YAPAV?$_Tree_val@U?$_Tree_simple_types@U?$pair@$$CBV?$basic_string@DU?$char_traits@D@std@@V?$allocator@D@2@@std@@V?$weak_ptr@VRawImageData@@@2@@std@@@std@@@0@AAV10@@Z 0041ea90 f i CW3_Player.obj
 0001:0001daa0       ??$addressof@V?$_Vector_val@U?$_Simple_types@U?$pair@VSimpleImage@@H@std@@@std@@@std@@@std@@YAPAV?$_Vector_val@U?$_Simple_types@U?$pair@VSimpleImage@@H@std@@@std@@@0@AAV10@@Z 0041eaa0 f i CW3_Player.obj
 0001:0001dab0       ??$advance@PAU?$pair@VSimpleImage@@H@std@@H@std@@YAXAAPAU?$pair@VSimpleImage@@H@0@H@Z 0041eab0 f i CW3_Player.obj
 0001:0001dae0       ??$assign@PAU?$pair@VSimpleImage@@H@std@@X@?$vector@U?$pair@VSimpleImage@@H@std@@V?$allocator@U?$pair@VSimpleImage@@H@std@@@2@@std@@QAEXPAU?$pair@VSimpleImage@@H@1@0@Z 0041eae0 f i CW3_Player.obj
 0001:0001db40       ??$construct@PAU?$_Tree_node@U?$pair@$$CBV?$basic_string@DU?$char_traits@D@std@@V?$allocator@D@2@@std@@V?$shared_ptr@VRawImageData@@@2@@std@@PAX@std@@AAPAU12@@?$_Default_allocator_traits@V?$allocator@U?$_Tree_node@U?$pair@$$CBV?$basic_string@DU?$char_traits@D@std@@V?$allocator@D@2@@std@@V?$shared_ptr@VRawImageData@@@2@@std@@PAX@std@@@std@@@std@@SAXAAV?$allocator@U?$_Tree_node@U?$pair@$$CBV?$basic_string@DU?$char_traits@D@std@@V?$allocator@D@2@@std@@V?$shared_ptr@VRawImageData@@@2@@std@@PAX@std@@@1@QAPAU?$_Tree_node@U?$pair@$$CBV?$basic_string@DU?$char_traits@D@std@@V?$allocator@D@2@@std@@V?$shared_ptr@VRawImageData@@@2@@std@@PAX@1@AAPAU31@@Z 0041eb40 f i CW3_Player.obj
 0001:0001db80       ??$construct@PAU?$_Tree_node@U?$pair@$$CBV?$basic_string@DU?$char_traits@D@std@@V?$allocator@D@2@@std@@V?$weak_ptr@VRawImageData@@@2@@std@@PAX@std@@AAPAU12@@?$_Default_allocator_traits@V?$allocator@U?$_Tree_node@U?$pair@$$CBV?$basic_string@DU?$char_traits@D@std@@V?$allocator@D@2@@std@@V?$weak_ptr@VRawImageData@@@2@@std@@PAX@std@@@std@@@std@@SAXAAV?$allocator@U?$_Tree_node@U?$pair@$$CBV?$basic_string@DU?$char_traits@D@std@@V?$allocator@D@2@@std@@V?$weak_ptr@VRawImageData@@@2@@std@@PAX@std@@@1@QAPAU?$_Tree_node@U?$pair@$$CBV?$basic_string@DU?$char_traits@D@std@@V?$allocator@D@2@@std@@V?$weak_ptr@VRawImageData@@@2@@std@@PAX@1@AAPAU31@@Z 0041eb80 f i CW3_Player.obj
 0001:0001dbc0       ??$construct@U?$pair@$$CBV?$basic_string@DU?$char_traits@D@std@@V?$allocator@D@2@@std@@V?$shared_ptr@VRawImageData@@@2@@std@@U?$pair@V?$basic_string@DU?$char_traits@D@std@@V?$allocator@D@2@@std@@V?$shared_ptr@VRawImageData@@@2@@2@@?$_Default_allocator_traits@V?$allocator@U?$_Tree_node@U?$pair@$$CBV?$basic_string@DU?$char_traits@D@std@@V?$allocator@D@2@@std@@V?$shared_ptr@VRawImageData@@@2@@std@@PAX@std@@@std@@@std@@SAXAAV?$allocator@U?$_Tree_node@U?$pair@$$CBV?$basic_string@DU?$char_traits@D@std@@V?$allocator@D@2@@std@@V?$shared_ptr@VRawImageData@@@2@@std@@PAX@std@@@1@QAU?$pair@$$CBV?$basic_string@DU?$char_traits@D@std@@V?$allocator@D@2@@std@@V?$shared_ptr@VRawImageData@@@2@@1@$$QAU?$pair@V?$basic_string@DU?$char_traits@D@std@@V?$allocator@D@2@@std@@V?$shared_ptr@VRawImageData@@@2@@1@@Z 0041ebc0 f i CW3_Player.obj
 0001:0001dc00       ??$construct@U?$pair@$$CBV?$basic_string@DU?$char_traits@D@std@@V?$allocator@D@2@@std@@V?$weak_ptr@VRawImageData@@@2@@std@@U?$pair@V?$basic_string@DU?$char_traits@D@std@@V?$allocator@D@2@@std@@V?$weak_ptr@VRawImageData@@@2@@2@@?$_Default_allocator_traits@V?$allocator@U?$_Tree_node@U?$pair@$$CBV?$basic_string@DU?$char_traits@D@std@@V?$allocator@D@2@@std@@V?$weak_ptr@VRawImageData@@@2@@std@@PAX@std@@@std@@@std@@SAXAAV?$allocator@U?$_Tree_node@U?$pair@$$CBV?$basic_string@DU?$char_traits@D@std@@V?$allocator@D@2@@std@@V?$weak_ptr@VRawImageData@@@2@@std@@PAX@std@@@1@QAU?$pair@$$CBV?$basic_string@DU?$char_traits@D@std@@V?$allocator@D@2@@std@@V?$weak_ptr@VRawImageData@@@2@@1@$$QAU?$pair@V?$basic_string@DU?$char_traits@D@std@@V?$allocator@D@2@@std@@V?$weak_ptr@VRawImageData@@@2@@1@@Z 0041ec00 f i CW3_Player.obj
 0001:0001dc40       ??$construct@U?$pair@VSimpleImage@@H@std@@AAU12@@?$_Default_allocator_traits@V?$allocator@U?$pair@VSimpleImage@@H@std@@@std@@@std@@SAXAAV?$allocator@U?$pair@VSimpleImage@@H@std@@@1@QAU?$pair@VSimpleImage@@H@1@AAU31@@Z 0041ec40 f i CW3_Player.obj
 0001:0001dc80       ??$construct@U?$pair@VSimpleImage@@H@std@@U12@@?$_Default_allocator_traits@V?$allocator@U?$pair@VSimpleImage@@H@std@@@std@@@std@@SAXAAV?$allocator@U?$pair@VSimpleImage@@H@std@@@1@QAU?$pair@VSimpleImage@@H@1@$$QAU31@@Z 0041ec80 f i CW3_Player.obj
 0001:0001dcc0       ??$destroy@PAU?$_Tree_node@U?$pair@$$CBV?$basic_string@DU?$char_traits@D@std@@V?$allocator@D@2@@std@@V?$shared_ptr@VRawImageData@@@2@@std@@PAX@std@@@?$_Default_allocator_traits@V?$allocator@U?$_Tree_node@U?$pair@$$CBV?$basic_string@DU?$char_traits@D@std@@V?$allocator@D@2@@std@@V?$shared_ptr@VRawImageData@@@2@@std@@PAX@std@@@std@@@std@@SAXAAV?$allocator@U?$_Tree_node@U?$pair@$$CBV?$basic_string@DU?$char_traits@D@std@@V?$allocator@D@2@@std@@V?$shared_ptr@VRawImageData@@@2@@std@@PAX@std@@@1@QAPAU?$_Tree_node@U?$pair@$$CBV?$basic_string@DU?$char_traits@D@std@@V?$allocator@D@2@@std@@V?$shared_ptr@VRawImageData@@@2@@std@@PAX@1@@Z 0041ecc0 f i CW3_Player.obj
 0001:0001dcd0       ??$destroy@PAU?$_Tree_node@U?$pair@$$CBV?$basic_string@DU?$char_traits@D@std@@V?$allocator@D@2@@std@@V?$weak_ptr@VRawImageData@@@2@@std@@PAX@std@@@?$_Default_allocator_traits@V?$allocator@U?$_Tree_node@U?$pair@$$CBV?$basic_string@DU?$char_traits@D@std@@V?$allocator@D@2@@std@@V?$weak_ptr@VRawImageData@@@2@@std@@PAX@std@@@std@@@std@@SAXAAV?$allocator@U?$_Tree_node@U?$pair@$$CBV?$basic_string@DU?$char_traits@D@std@@V?$allocator@D@2@@std@@V?$weak_ptr@VRawImageData@@@2@@std@@PAX@std@@@1@QAPAU?$_Tree_node@U?$pair@$$CBV?$basic_string@DU?$char_traits@D@std@@V?$allocator@D@2@@std@@V?$weak_ptr@VRawImageData@@@2@@std@@PAX@1@@Z 0041ecd0 f i CW3_Player.obj
 0001:0001dce0       ??$destroy@U?$pair@$$CBV?$basic_string@DU?$char_traits@D@std@@V?$allocator@D@2@@std@@V?$shared_ptr@VRawImageData@@@2@@std@@@?$_Default_allocator_traits@V?$allocator@U?$_Tree_node@U?$pair@$$CBV?$basic_string@DU?$char_traits@D@std@@V?$allocator@D@2@@std@@V?$shared_ptr@VRawImageData@@@2@@std@@PAX@std@@@std@@@std@@SAXAAV?$allocator@U?$_Tree_node@U?$pair@$$CBV?$basic_string@DU?$char_traits@D@std@@V?$allocator@D@2@@std@@V?$shared_ptr@VRawImageData@@@2@@std@@PAX@std@@@1@QAU?$pair@$$CBV?$basic_string@DU?$char_traits@D@std@@V?$allocator@D@2@@std@@V?$shared_ptr@VRawImageData@@@2@@1@@Z 0041ece0 f i CW3_Player.obj
 0001:0001dd00       ??$destroy@U?$pair@$$CBV?$basic_string@DU?$char_traits@D@std@@V?$allocator@D@2@@std@@V?$weak_ptr@VRawImageData@@@2@@std@@@?$_Default_allocator_traits@V?$allocator@U?$_Tree_node@U?$pair@$$CBV?$basic_string@DU?$char_traits@D@std@@V?$allocator@D@2@@std@@V?$weak_ptr@VRawImageData@@@2@@std@@PAX@std@@@std@@@std@@SAXAAV?$allocator@U?$_Tree_node@U?$pair@$$CBV?$basic_string@DU?$char_traits@D@std@@V?$allocator@D@2@@std@@V?$weak_ptr@VRawImageData@@@2@@std@@PAX@std@@@1@QAU?$pair@$$CBV?$basic_string@DU?$char_traits@D@std@@V?$allocator@D@2@@std@@V?$weak_ptr@VRawImageData@@@2@@1@@Z 0041ed00 f i CW3_Player.obj
 0001:0001dd20       ??$destroy@U?$pair@VSimpleImage@@H@std@@@?$_Default_allocator_traits@V?$allocator@U?$pair@VSimpleImage@@H@std@@@std@@@std@@SAXAAV?$allocator@U?$pair@VSimpleImage@@H@std@@@1@QAU?$pair@VSimpleImage@@H@1@@Z 0041ed20 f i CW3_Player.obj
 0001:0001dd40       ??$distance@PAU?$pair@VSimpleImage@@H@std@@@std@@YAHPAU?$pair@VSimpleImage@@H@0@0@Z 0041ed40 f i CW3_Player.obj
 0001:0001dd70       ??$emplace@U?$pair@V?$basic_string@DU?$char_traits@D@std@@V?$allocator@D@2@@std@@V?$shared_ptr@VRawImageData@@@2@@std@@@?$_Tree@V?$_Tmap_traits@V?$basic_string@DU?$char_traits@D@std@@V?$allocator@D@2@@std@@V?$shared_ptr@VRawImageData@@@2@U?$less@V?$basic_string@DU?$char_traits@D@std@@V?$allocator@D@2@@std@@@2@V?$allocator@U?$pair@$$CBV?$basic_string@DU?$char_traits@D@std@@V?$allocator@D@2@@std@@V?$shared_ptr@VRawImageData@@@2@@std@@@2@$0A@@std@@@std@@QAE?AU?$pair@V?$_Tree_iterator@V?$_Tree_val@U?$_Tree_simple_types@U?$pair@$$CBV?$basic_string@DU?$char_traits@D@std@@V?$allocator@D@2@@std@@V?$shared_ptr@VRawImageData@@@2@@std@@@std@@@std@@@std@@_N@1@$$QAU?$pair@V?$basic_string@DU?$char_traits@D@std@@V?$allocator@D@2@@std@@V?$shared_ptr@VRawImageData@@@2@@1@@Z 0041ed70 f i CW3_Player.obj
 0001:0001dde0       ??$emplace@U?$pair@V?$basic_string@DU?$char_traits@D@std@@V?$allocator@D@2@@std@@V?$weak_ptr@VRawImageData@@@2@@std@@@?$_Tree@V?$_Tmap_traits@V?$basic_string@DU?$char_traits@D@std@@V?$allocator@D@2@@std@@V?$weak_ptr@VRawImageData@@@2@U?$less@V?$basic_string@DU?$char_traits@D@std@@V?$allocator@D@2@@std@@@2@V?$allocator@U?$pair@$$CBV?$basic_string@DU?$char_traits@D@std@@V?$allocator@D@2@@std@@V?$weak_ptr@VRawImageData@@@2@@std@@@2@$0A@@std@@@std@@QAE?AU?$pair@V?$_Tree_iterator@V?$_Tree_val@U?$_Tree_simple_types@U?$pair@$$CBV?$basic_string@DU?$char_traits@D@std@@V?$allocator@D@2@@std@@V?$weak_ptr@VRawImageData@@@2@@std@@@std@@@std@@@std@@_N@1@$$QAU?$pair@V?$basic_string@DU?$char_traits@D@std@@V?$allocator@D@2@@std@@V?$weak_ptr@VRawImageData@@@2@@1@@Z 0041ede0 f i CW3_Player.obj
 0001:0001de50       ??$emplace_back@U?$pair@VSimpleImage@@H@std@@@?$vector@U?$pair@VSimpleImage@@H@std@@V?$allocator@U?$pair@VSimpleImage@@H@std@@@2@@std@@QAE@$$QAU?$pair@VSimpleImage@@H@1@@Z 0041ee50 f i CW3_Player.obj
 0001:0001dec0       ??$endl@DU?$char_traits@D@std@@@std@@YAAAV?$basic_ostream@DU?$char_traits@D@std@@@0@AAV10@@Z 0041eec0 f i CW3_Player.obj
 0001:0001df00       ??$erase@V?$_Tree_iterator@V?$_Tree_val@U?$_Tree_simple_types@U?$pair@$$CBV?$basic_string@DU?$char_traits@D@std@@V?$allocator@D@2@@std@@V?$weak_ptr@VRawImageData@@@2@@std@@@std@@@std@@@std@@X@?$_Tree@V?$_Tmap_traits@V?$basic_string@DU?$char_traits@D@std@@V?$allocator@D@2@@std@@V?$weak_ptr@VRawImageData@@@2@U?$less@V?$basic_string@DU?$char_traits@D@std@@V?$allocator@D@2@@std@@@2@V?$allocator@U?$pair@$$CBV?$basic_string@DU?$char_traits@D@std@@V?$allocator@D@2@@std@@V?$weak_ptr@VRawImageData@@@2@@std@@@2@$0A@@std@@@std@@QAE?AV?$_Tree_iterator@V?$_Tree_val@U?$_Tree_simple_types@U?$pair@$$CBV?$basic_string@DU?$char_traits@D@std@@V?$allocator@D@2@@std@@V?$weak_ptr@VRawImageData@@@2@@std@@@std@@@std@@@1@V21@@Z 0041ef00 f i CW3_Player.obj
 0001:0001dfb0       ??$forward@AAPAU?$_Tree_node@U?$pair@$$CBV?$basic_string@DU?$char_traits@D@std@@V?$allocator@D@2@@std@@V?$shared_ptr@VRawImageData@@@2@@std@@PAX@std@@@std@@YAAAPAU?$_Tree_node@U?$pair@$$CBV?$basic_string@DU?$char_traits@D@std@@V?$allocator@D@2@@std@@V?$shared_ptr@VRawImageData@@@2@@std@@PAX@0@AAPAU10@@Z 0041efb0 f i CW3_Player.obj
 0001:0001dfc0       ??$forward@AAPAU?$_Tree_node@U?$pair@$$CBV?$basic_string@DU?$char_traits@D@std@@V?$allocator@D@2@@std@@V?$weak_ptr@VRawImageData@@@2@@std@@PAX@std@@@std@@YAAAPAU?$_Tree_node@U?$pair@$$CBV?$basic_string@DU?$char_traits@D@std@@V?$allocator@D@2@@std@@V?$weak_ptr@VRawImageData@@@2@@std@@PAX@0@AAPAU10@@Z 0041efc0 f i CW3_Player.obj
 0001:0001dfd0       ??$forward@AAU?$pair@$$CBV?$basic_string@DU?$char_traits@D@std@@V?$allocator@D@2@@std@@V?$shared_ptr@VRawImageData@@@2@@std@@@std@@YAAAU?$pair@$$CBV?$basic_string@DU?$char_traits@D@std@@V?$allocator@D@2@@std@@V?$shared_ptr@VRawImageData@@@2@@0@AAU10@@Z 0041efd0 f i CW3_Player.obj
 0001:0001dfe0       ??$forward@AAU?$pair@$$CBV?$basic_string@DU?$char_traits@D@std@@V?$allocator@D@2@@std@@V?$weak_ptr@VRawImageData@@@2@@std@@@std@@YAAAU?$pair@$$CBV?$basic_string@DU?$char_traits@D@std@@V?$allocator@D@2@@std@@V?$weak_ptr@VRawImageData@@@2@@0@AAU10@@Z 0041efe0 f i CW3_Player.obj
 0001:0001dff0       ??$forward@AAU?$pair@VSimpleImage@@H@std@@@std@@YAAAU?$pair@VSimpleImage@@H@0@AAU10@@Z 0041eff0 f i CW3_Player.obj
 0001:0001e000       ??$forward@AAV?$_Tree_iterator@V?$_Tree_val@U?$_Tree_simple_types@U?$pair@$$CBV?$basic_string@DU?$char_traits@D@std@@V?$allocator@D@2@@std@@V?$shared_ptr@VRawImageData@@@2@@std@@@std@@@std@@@std@@@std@@YAAAV?$_Tree_iterator@V?$_Tree_val@U?$_Tree_simple_types@U?$pair@$$CBV?$basic_string@DU?$char_traits@D@std@@V?$allocator@D@2@@std@@V?$shared_ptr@VRawImageData@@@2@@std@@@std@@@std@@@0@AAV10@@Z 0041f000 f i CW3_Player.obj
 0001:0001e010       ??$forward@AAV?$_Tree_iterator@V?$_Tree_val@U?$_Tree_simple_types@U?$pair@$$CBV?$basic_string@DU?$char_traits@D@std@@V?$allocator@D@2@@std@@V?$weak_ptr@VRawImageData@@@2@@std@@@std@@@std@@@std@@@std@@YAAAV?$_Tree_iterator@V?$_Tree_val@U?$_Tree_simple_types@U?$pair@$$CBV?$basic_string@DU?$char_traits@D@std@@V?$allocator@D@2@@std@@V?$weak_ptr@VRawImageData@@@2@@std@@@std@@@std@@@0@AAV10@@Z 0041f010 f i CW3_Player.obj
 0001:0001e020       ??$forward@AAV?$basic_string@DU?$char_traits@D@std@@V?$allocator@D@2@@std@@@std@@YAAAV?$basic_string@DU?$char_traits@D@std@@V?$allocator@D@2@@0@AAV10@@Z 0041f020 f i CW3_Player.obj
 0001:0001e030       ??$forward@AAV?$shared_ptr@VRawImageData@@@std@@@std@@YAAAV?$shared_ptr@VRawImageData@@@0@AAV10@@Z 0041f030 f i CW3_Player.obj
 0001:0001e040       ??$forward@AAV?$weak_ptr@VRawImageData@@@std@@@std@@YAAAV?$weak_ptr@VRawImageData@@@0@AAV10@@Z 0041f040 f i CW3_Player.obj
 0001:0001e050       ??$forward@ABU?$less@V?$basic_string@DU?$char_traits@D@std@@V?$allocator@D@2@@std@@@std@@@std@@YAABU?$less@V?$basic_string@DU?$char_traits@D@std@@V?$allocator@D@2@@std@@@0@ABU10@@Z 0041f050 f i CW3_Player.obj
 0001:0001e060       ??$forward@U?$pair@V?$basic_string@DU?$char_traits@D@std@@V?$allocator@D@2@@std@@V?$shared_ptr@VRawImageData@@@2@@std@@@std@@YA$$QAU?$pair@V?$basic_string@DU?$char_traits@D@std@@V?$allocator@D@2@@std@@V?$shared_ptr@VRawImageData@@@2@@0@AAU10@@Z 0041f060 f i CW3_Player.obj
 0001:0001e070       ??$forward@U?$pair@V?$basic_string@DU?$char_traits@D@std@@V?$allocator@D@2@@std@@V?$weak_ptr@VRawImageData@@@2@@std@@@std@@YA$$QAU?$pair@V?$basic_string@DU?$char_traits@D@std@@V?$allocator@D@2@@std@@V?$weak_ptr@VRawImageData@@@2@@0@AAU10@@Z 0041f070 f i CW3_Player.obj
 0001:0001e080       ??$forward@U?$pair@VSimpleImage@@H@std@@@std@@YA$$QAU?$pair@VSimpleImage@@H@0@AAU10@@Z 0041f080 f i CW3_Player.obj
 0001:0001e090       ??$forward@U_Zero_then_variadic_args_t@std@@@std@@YA$$QAU_Zero_then_variadic_args_t@0@AAU10@@Z 0041f090 f i CW3_Player.obj
 0001:0001e0a0       ??$forward@V?$_Tree_iterator@V?$_Tree_val@U?$_Tree_simple_types@U?$pair@$$CBV?$basic_string@DU?$char_traits@D@std@@V?$allocator@D@2@@std@@V?$shared_ptr@VRawImageData@@@2@@std@@@std@@@std@@@std@@@std@@YA$$QAV?$_Tree_iterator@V?$_Tree_val@U?$_Tree_simple_types@U?$pair@$$CBV?$basic_string@DU?$char_traits@D@std@@V?$allocator@D@2@@std@@V?$shared_ptr@VRawImageData@@@2@@std@@@std@@@std@@@0@AAV10@@Z 0041f0a0 f i CW3_Player.obj
 0001:0001e0b0       ??$forward@V?$_Tree_iterator@V?$_Tree_val@U?$_Tree_simple_types@U?$pair@$$CBV?$basic_string@DU?$char_traits@D@std@@V?$allocator@D@2@@std@@V?$weak_ptr@VRawImageData@@@2@@std@@@std@@@std@@@std@@@std@@YA$$QAV?$_Tree_iterator@V?$_Tree_val@U?$_Tree_simple_types@U?$pair@$$CBV?$basic_string@DU?$char_traits@D@std@@V?$allocator@D@2@@std@@V?$weak_ptr@VRawImageData@@@2@@std@@@std@@@std@@@0@AAV10@@Z 0041f0b0 f i CW3_Player.obj
 0001:0001e0c0       ??$forward@V?$allocator@U?$pair@VSimpleImage@@H@std@@@std@@@std@@YA$$QAV?$allocator@U?$pair@VSimpleImage@@H@std@@@0@AAV10@@Z 0041f0c0 f i CW3_Player.obj
 0001:0001e0d0       ??$forward@V?$shared_ptr@VRawImageData@@@std@@@std@@YA$$QAV?$shared_ptr@VRawImageData@@@0@AAV10@@Z 0041f0d0 f i CW3_Player.obj
 0001:0001e0e0       ??$forward@V?$weak_ptr@VRawImageData@@@std@@@std@@YA$$QAV?$weak_ptr@VRawImageData@@@0@AAV10@@Z 0041f0e0 f i CW3_Player.obj
 0001:0001e0f0       ??$forward@VSimpleImage@@@std@@YA$$QAVSimpleImage@@AAV1@@Z 0041f0f0 f i CW3_Player.obj
 0001:0001e100       ??$forward@_N@std@@YA$$QA_NAA_N@Z 0041f100 f i CW3_Player.obj
 0001:0001e110       ??$insert@U?$pair@V?$basic_string@DU?$char_traits@D@std@@V?$allocator@D@2@@std@@V?$shared_ptr@VRawImageData@@@2@@std@@X@?$map@V?$basic_string@DU?$char_traits@D@std@@V?$allocator@D@2@@std@@V?$shared_ptr@VRawImageData@@@2@U?$less@V?$basic_string@DU?$char_traits@D@std@@V?$allocator@D@2@@std@@@2@V?$allocator@U?$pair@$$CBV?$basic_string@DU?$char_traits@D@std@@V?$allocator@D@2@@std@@V?$shared_ptr@VRawImageData@@@2@@std@@@2@@std@@QAE?AU?$pair@V?$_Tree_iterator@V?$_Tree_val@U?$_Tree_simple_types@U?$pair@$$CBV?$basic_string@DU?$char_traits@D@std@@V?$allocator@D@2@@std@@V?$shared_ptr@VRawImageData@@@2@@std@@@std@@@std@@@std@@_N@1@$$QAU?$pair@V?$basic_string@DU?$char_traits@D@std@@V?$allocator@D@2@@std@@V?$shared_ptr@VRawImageData@@@2@@1@@Z 0041f110 f i CW3_Player.obj
 0001:0001e160       ??$insert@U?$pair@V?$basic_string@DU?$char_traits@D@std@@V?$allocator@D@2@@std@@V?$weak_ptr@VRawImageData@@@2@@std@@X@?$map@V?$basic_string@DU?$char_traits@D@std@@V?$allocator@D@2@@std@@V?$weak_ptr@VRawImageData@@@2@U?$less@V?$basic_string@DU?$char_traits@D@std@@V?$allocator@D@2@@std@@@2@V?$allocator@U?$pair@$$CBV?$basic_string@DU?$char_traits@D@std@@V?$allocator@D@2@@std@@V?$weak_ptr@VRawImageData@@@2@@std@@@2@@std@@QAE?AU?$pair@V?$_Tree_iterator@V?$_Tree_val@U?$_Tree_simple_types@U?$pair@$$CBV?$basic_string@DU?$char_traits@D@std@@V?$allocator@D@2@@std@@V?$weak_ptr@VRawImageData@@@2@@std@@@std@@@std@@@std@@_N@1@$$QAU?$pair@V?$basic_string@DU?$char_traits@D@std@@V?$allocator@D@2@@std@@V?$weak_ptr@VRawImageData@@@2@@1@@Z 0041f160 f i CW3_Player.obj
 0001:0001e1b0       ??$make_pair@VSimpleImage@@H@std@@YA?AU?$pair@VSimpleImage@@H@0@$$QAVSimpleImage@@$$QAH@Z 0041f1b0 f i CW3_Player.obj
 0001:0001e200       ??$move@AAD@std@@YA$$QADAAD@Z 0041f200 f i CW3_Player.obj
 0001:0001e210       ??$move@AAPAVRawImageData@@@std@@YA$$QAPAVRawImageData@@AAPAV1@@Z 0041f210 f i CW3_Player.obj
 0001:0001e220       ??$move@AAPAV_Ref_count_base@std@@@std@@YA$$QAPAV_Ref_count_base@0@AAPAV10@@Z 0041f220 f i CW3_Player.obj
 0001:0001e230       ??$move@AAU?$pair@VSimpleImage@@H@std@@@std@@YA$$QAU?$pair@VSimpleImage@@H@0@AAU10@@Z 0041f230 f i CW3_Player.obj
 0001:0001e240       ??$move@AAV?$shared_ptr@VRawImageData@@@std@@@std@@YA$$QAV?$shared_ptr@VRawImageData@@@0@AAV10@@Z 0041f240 f i CW3_Player.obj
 0001:0001e250       ??$move@AAV?$weak_ptr@VRawImageData@@@std@@@std@@YA$$QAV?$weak_ptr@VRawImageData@@@0@AAV10@@Z 0041f250 f i CW3_Player.obj
 0001:0001e260       ??$next@PAU?$pair@VSimpleImage@@H@std@@@std@@YAPAU?$pair@VSimpleImage@@H@0@PAU10@H@Z 0041f260 f i CW3_Player.obj
 0001:0001e280       ??$swap@DX@std@@YAXAAD0@Z  0041f280 f i CW3_Player.obj
 0001:0001e2d0       ??$swap@PAVRawImageData@@X@std@@YAXAAPAVRawImageData@@0@Z 0041f2d0 f i CW3_Player.obj
 0001:0001e320       ??$swap@PAV_Ref_count_base@std@@X@std@@YAXAAPAV_Ref_count_base@0@0@Z 0041f320 f i CW3_Player.obj
 0001:0001e370       ??0?$_Ptr_base@VRawImageData@@@std@@IAE@XZ 0041f370 f i CW3_Player.obj
 0001:0001e3a0       ??0?$_Ref_count@VRawImageData@@@std@@QAE@PAVRawImageData@@@Z 0041f3a0 f i CW3_Player.obj
 0001:0001e3e0       ??0?$_Tree@V?$_Tmap_traits@V?$basic_string@DU?$char_traits@D@std@@V?$allocator@D@2@@std@@V?$shared_ptr@VRawImageData@@@2@U?$less@V?$basic_string@DU?$char_traits@D@std@@V?$allocator@D@2@@std@@@2@V?$allocator@U?$pair@$$CBV?$basic_string@DU?$char_traits@D@std@@V?$allocator@D@2@@std@@V?$shared_ptr@VRawImageData@@@2@@std@@@2@$0A@@std@@@std@@QAE@ABU?$less@V?$basic_string@DU?$char_traits@D@std@@V?$allocator@D@2@@std@@@1@@Z 0041f3e0 f i CW3_Player.obj
 0001:0001e410       ??0?$_Tree@V?$_Tmap_traits@V?$basic_string@DU?$char_traits@D@std@@V?$allocator@D@2@@std@@V?$weak_ptr@VRawImageData@@@2@U?$less@V?$basic_string@DU?$char_traits@D@std@@V?$allocator@D@2@@std@@@2@V?$allocator@U?$pair@$$CBV?$basic_string@DU?$char_traits@D@std@@V?$allocator@D@2@@std@@V?$weak_ptr@VRawImageData@@@2@@std@@@2@$0A@@std@@@std@@QAE@ABU?$less@V?$basic_string@DU?$char_traits@D@std@@V?$allocator@D@2@@std@@@1@@Z 0041f410 f i CW3_Player.obj
 0001:0001e440       ??0?$_Tree_comp_alloc@V?$_Tmap_traits@V?$basic_string@DU?$char_traits@D@std@@V?$allocator@D@2@@std@@V?$shared_ptr@VRawImageData@@@2@U?$less@V?$basic_string@DU?$char_traits@D@std@@V?$allocator@D@2@@std@@@2@V?$allocator@U?$pair@$$CBV?$basic_string@DU?$char_traits@D@std@@V?$allocator@D@2@@std@@V?$shared_ptr@VRawImageData@@@2@@std@@@2@$0A@@std@@@std@@QAE@ABU?$less@V?$basic_string@DU?$char_traits@D@std@@V?$allocator@D@2@@std@@@1@@Z 0041f440 f i CW3_Player.obj
 0001:0001e480       ??0?$_Tree_comp_alloc@V?$_Tmap_traits@V?$basic_string@DU?$char_traits@D@std@@V?$allocator@D@2@@std@@V?$weak_ptr@VRawImageData@@@2@U?$less@V?$basic_string@DU?$char_traits@D@std@@V?$allocator@D@2@@std@@@2@V?$allocator@U?$pair@$$CBV?$basic_string@DU?$char_traits@D@std@@V?$allocator@D@2@@std@@V?$weak_ptr@VRawImageData@@@2@@std@@@2@$0A@@std@@@std@@QAE@ABU?$less@V?$basic_string@DU?$char_traits@D@std@@V?$allocator@D@2@@std@@@1@@Z 0041f480 f i CW3_Player.obj
 0001:0001e4c0       ??0?$_Tree_const_iterator@V?$_Tree_val@U?$_Tree_simple_types@U?$pair@$$CBV?$basic_string@DU?$char_traits@D@std@@V?$allocator@D@2@@std@@V?$shared_ptr@VRawImageData@@@2@@std@@@std@@@std@@@std@@QAE@$$QAV01@@Z 0041f4c0 f i CW3_Player.obj
 0001:0001e4f0       ??0?$_Tree_const_iterator@V?$_Tree_val@U?$_Tree_simple_types@U?$pair@$$CBV?$basic_string@DU?$char_traits@D@std@@V?$allocator@D@2@@std@@V?$shared_ptr@VRawImageData@@@2@@std@@@std@@@std@@@std@@QAE@ABV01@@Z 0041f4f0 f i CW3_Player.obj
 0001:0001e520       ??0?$_Tree_const_iterator@V?$_Tree_val@U?$_Tree_simple_types@U?$pair@$$CBV?$basic_string@DU?$char_traits@D@std@@V?$allocator@D@2@@std@@V?$shared_ptr@VRawImageData@@@2@@std@@@std@@@std@@@std@@QAE@PAU?$_Tree_node@U?$pair@$$CBV?$basic_string@DU?$char_traits@D@std@@V?$allocator@D@2@@std@@V?$shared_ptr@VRawImageData@@@2@@std@@PAX@1@PBV?$_Tree_val@U?$_Tree_simple_types@U?$pair@$$CBV?$basic_string@DU?$char_traits@D@std@@V?$allocator@D@2@@std@@V?$shared_ptr@VRawImageData@@@2@@std@@@std@@@1@@Z 0041f520 f i CW3_Player.obj
 0001:0001e550       ??0?$_Tree_const_iterator@V?$_Tree_val@U?$_Tree_simple_types@U?$pair@$$CBV?$basic_string@DU?$char_traits@D@std@@V?$allocator@D@2@@std@@V?$weak_ptr@VRawImageData@@@2@@std@@@std@@@std@@@std@@QAE@$$QAV01@@Z 0041f550 f i CW3_Player.obj
 0001:0001e580       ??0?$_Tree_const_iterator@V?$_Tree_val@U?$_Tree_simple_types@U?$pair@$$CBV?$basic_string@DU?$char_traits@D@std@@V?$allocator@D@2@@std@@V?$weak_ptr@VRawImageData@@@2@@std@@@std@@@std@@@std@@QAE@ABV01@@Z 0041f580 f i CW3_Player.obj
 0001:0001e5b0       ??0?$_Tree_const_iterator@V?$_Tree_val@U?$_Tree_simple_types@U?$pair@$$CBV?$basic_string@DU?$char_traits@D@std@@V?$allocator@D@2@@std@@V?$weak_ptr@VRawImageData@@@2@@std@@@std@@@std@@@std@@QAE@PAU?$_Tree_node@U?$pair@$$CBV?$basic_string@DU?$char_traits@D@std@@V?$allocator@D@2@@std@@V?$weak_ptr@VRawImageData@@@2@@std@@PAX@1@PBV?$_Tree_val@U?$_Tree_simple_types@U?$pair@$$CBV?$basic_string@DU?$char_traits@D@std@@V?$allocator@D@2@@std@@V?$weak_ptr@VRawImageData@@@2@@std@@@std@@@1@@Z 0041f5b0 f i CW3_Player.obj
 0001:0001e5e0       ??0?$_Tree_iterator@V?$_Tree_val@U?$_Tree_simple_types@U?$pair@$$CBV?$basic_string@DU?$char_traits@D@std@@V?$allocator@D@2@@std@@V?$shared_ptr@VRawImageData@@@2@@std@@@std@@@std@@@std@@QAE@$$QAV01@@Z 0041f5e0 f i CW3_Player.obj
 0001:0001e610       ??0?$_Tree_iterator@V?$_Tree_val@U?$_Tree_simple_types@U?$pair@$$CBV?$basic_string@DU?$char_traits@D@std@@V?$allocator@D@2@@std@@V?$shared_ptr@VRawImageData@@@2@@std@@@std@@@std@@@std@@QAE@ABV01@@Z 0041f610 f i CW3_Player.obj
 0001:0001e640       ??0?$_Tree_iterator@V?$_Tree_val@U?$_Tree_simple_types@U?$pair@$$CBV?$basic_string@DU?$char_traits@D@std@@V?$allocator@D@2@@std@@V?$shared_ptr@VRawImageData@@@2@@std@@@std@@@std@@@std@@QAE@PAU?$_Tree_node@U?$pair@$$CBV?$basic_string@DU?$char_traits@D@std@@V?$allocator@D@2@@std@@V?$shared_ptr@VRawImageData@@@2@@std@@PAX@1@PBV?$_Tree_val@U?$_Tree_simple_types@U?$pair@$$CBV?$basic_string@DU?$char_traits@D@std@@V?$allocator@D@2@@std@@V?$shared_ptr@VRawImageData@@@2@@std@@@std@@@1@@Z 0041f640 f i CW3_Player.obj
 0001:0001e670       ??0?$_Tree_iterator@V?$_Tree_val@U?$_Tree_simple_types@U?$pair@$$CBV?$basic_string@DU?$char_traits@D@std@@V?$allocator@D@2@@std@@V?$weak_ptr@VRawImageData@@@2@@std@@@std@@@std@@@std@@QAE@$$QAV01@@Z 0041f670 f i CW3_Player.obj
 0001:0001e6a0       ??0?$_Tree_iterator@V?$_Tree_val@U?$_Tree_simple_types@U?$pair@$$CBV?$basic_string@DU?$char_traits@D@std@@V?$allocator@D@2@@std@@V?$weak_ptr@VRawImageData@@@2@@std@@@std@@@std@@@std@@QAE@ABV01@@Z 0041f6a0 f i CW3_Player.obj
 0001:0001e6d0       ??0?$_Tree_iterator@V?$_Tree_val@U?$_Tree_simple_types@U?$pair@$$CBV?$basic_string@DU?$char_traits@D@std@@V?$allocator@D@2@@std@@V?$weak_ptr@VRawImageData@@@2@@std@@@std@@@std@@@std@@QAE@PAU?$_Tree_node@U?$pair@$$CBV?$basic_string@DU?$char_traits@D@std@@V?$allocator@D@2@@std@@V?$weak_ptr@VRawImageData@@@2@@std@@PAX@1@PBV?$_Tree_val@U?$_Tree_simple_types@U?$pair@$$CBV?$basic_string@DU?$char_traits@D@std@@V?$allocator@D@2@@std@@V?$weak_ptr@VRawImageData@@@2@@std@@@std@@@1@@Z 0041f6d0 f i CW3_Player.obj
 0001:0001e700       ??0?$_Tree_unchecked_const_iterator@V?$_Tree_val@U?$_Tree_simple_types@U?$pair@$$CBV?$basic_string@DU?$char_traits@D@std@@V?$allocator@D@2@@std@@V?$shared_ptr@VRawImageData@@@2@@std@@@std@@@std@@U_Iterator_base12@2@@std@@QAE@$$QAV01@@Z 0041f700 f i CW3_Player.obj
 0001:0001e740       ??0?$_Tree_unchecked_const_iterator@V?$_Tree_val@U?$_Tree_simple_types@U?$pair@$$CBV?$basic_string@DU?$char_traits@D@std@@V?$allocator@D@2@@std@@V?$shared_ptr@VRawImageData@@@2@@std@@@std@@@std@@U_Iterator_base12@2@@std@@QAE@ABV01@@Z 0041f740 f i CW3_Player.obj
 0001:0001e780       ??0?$_Tree_unchecked_const_iterator@V?$_Tree_val@U?$_Tree_simple_types@U?$pair@$$CBV?$basic_string@DU?$char_traits@D@std@@V?$allocator@D@2@@std@@V?$shared_ptr@VRawImageData@@@2@@std@@@std@@@std@@U_Iterator_base12@2@@std@@QAE@PAU?$_Tree_node@U?$pair@$$CBV?$basic_string@DU?$char_traits@D@std@@V?$allocator@D@2@@std@@V?$shared_ptr@VRawImageData@@@2@@std@@PAX@1@PBV?$_Tree_val@U?$_Tree_simple_types@U?$pair@$$CBV?$basic_string@DU?$char_traits@D@std@@V?$allocator@D@2@@std@@V?$shared_ptr@VRawImageData@@@2@@std@@@std@@@1@@Z 0041f780 f i CW3_Player.obj
 0001:0001e7c0       ??0?$_Tree_unchecked_const_iterator@V?$_Tree_val@U?$_Tree_simple_types@U?$pair@$$CBV?$basic_string@DU?$char_traits@D@std@@V?$allocator@D@2@@std@@V?$weak_ptr@VRawImageData@@@2@@std@@@std@@@std@@U_Iterator_base12@2@@std@@QAE@$$QAV01@@Z 0041f7c0 f i CW3_Player.obj
 0001:0001e800       ??0?$_Tree_unchecked_const_iterator@V?$_Tree_val@U?$_Tree_simple_types@U?$pair@$$CBV?$basic_string@DU?$char_traits@D@std@@V?$allocator@D@2@@std@@V?$weak_ptr@VRawImageData@@@2@@std@@@std@@@std@@U_Iterator_base12@2@@std@@QAE@ABV01@@Z 0041f800 f i CW3_Player.obj
 0001:0001e840       ??0?$_Tree_unchecked_const_iterator@V?$_Tree_val@U?$_Tree_simple_types@U?$pair@$$CBV?$basic_string@DU?$char_traits@D@std@@V?$allocator@D@2@@std@@V?$weak_ptr@VRawImageData@@@2@@std@@@std@@@std@@U_Iterator_base12@2@@std@@QAE@PAU?$_Tree_node@U?$pair@$$CBV?$basic_string@DU?$char_traits@D@std@@V?$allocator@D@2@@std@@V?$weak_ptr@VRawImageData@@@2@@std@@PAX@1@PBV?$_Tree_val@U?$_Tree_simple_types@U?$pair@$$CBV?$basic_string@DU?$char_traits@D@std@@V?$allocator@D@2@@std@@V?$weak_ptr@VRawImageData@@@2@@std@@@std@@@1@@Z 0041f840 f i CW3_Player.obj
 0001:0001e880       ??0?$_Tree_val@U?$_Tree_simple_types@U?$pair@$$CBV?$basic_string@DU?$char_traits@D@std@@V?$allocator@D@2@@std@@V?$shared_ptr@VRawImageData@@@2@@std@@@std@@@std@@QAE@XZ 0041f880 f i CW3_Player.obj
 0001:0001e8c0       ??0?$_Tree_val@U?$_Tree_simple_types@U?$pair@$$CBV?$basic_string@DU?$char_traits@D@std@@V?$allocator@D@2@@std@@V?$weak_ptr@VRawImageData@@@2@@std@@@std@@@std@@QAE@XZ 0041f8c0 f i CW3_Player.obj
 0001:0001e900       ??0?$_Uninitialized_backout_al@PAU?$pair@VSimpleImage@@H@std@@V?$allocator@U?$pair@VSimpleImage@@H@std@@@2@@std@@QAE@PAU?$pair@VSimpleImage@@H@1@AAV?$allocator@U?$pair@VSimpleImage@@H@std@@@1@@Z 0041f900 f i CW3_Player.obj
 0001:0001e940       ??0?$_Vector_alloc@U?$_Vec_base_types@U?$pair@VSimpleImage@@H@std@@V?$allocator@U?$pair@VSimpleImage@@H@std@@@2@@std@@@std@@QAE@XZ 0041f940 f i CW3_Player.obj
 0001:0001e970       ??0?$_Vector_val@U?$_Simple_types@U?$pair@VSimpleImage@@H@std@@@std@@@std@@QAE@XZ 0041f970 f i CW3_Player.obj
 0001:0001e9c0       ??0?$allocator@U?$_Tree_node@U?$pair@$$CBV?$basic_string@DU?$char_traits@D@std@@V?$allocator@D@2@@std@@V?$shared_ptr@VRawImageData@@@2@@std@@PAX@std@@@std@@QAE@XZ 0041f9c0 f i CW3_Player.obj
 0001:0001e9e0       ??0?$allocator@U?$_Tree_node@U?$pair@$$CBV?$basic_string@DU?$char_traits@D@std@@V?$allocator@D@2@@std@@V?$weak_ptr@VRawImageData@@@2@@std@@PAX@std@@@std@@QAE@XZ 0041f9e0 f i CW3_Player.obj
 0001:0001ea00       ??0?$allocator@U?$pair@VSimpleImage@@H@std@@@std@@QAE@XZ 0041fa00 f i CW3_Player.obj
 0001:0001ea20       ??0?$basic_string@DU?$char_traits@D@std@@V?$allocator@D@2@@std@@QAE@QBD@Z 0041fa20 f i CW3_Player.obj
 0001:0001eaa0       ??0?$map@V?$basic_string@DU?$char_traits@D@std@@V?$allocator@D@2@@std@@V?$shared_ptr@VRawImageData@@@2@U?$less@V?$basic_string@DU?$char_traits@D@std@@V?$allocator@D@2@@std@@@2@V?$allocator@U?$pair@$$CBV?$basic_string@DU?$char_traits@D@std@@V?$allocator@D@2@@std@@V?$shared_ptr@VRawImageData@@@2@@std@@@2@@std@@QAE@XZ 0041faa0 f i CW3_Player.obj
 0001:0001ead0       ??0?$map@V?$basic_string@DU?$char_traits@D@std@@V?$allocator@D@2@@std@@V?$weak_ptr@VRawImageData@@@2@U?$less@V?$basic_string@DU?$char_traits@D@std@@V?$allocator@D@2@@std@@@2@V?$allocator@U?$pair@$$CBV?$basic_string@DU?$char_traits@D@std@@V?$allocator@D@2@@std@@V?$weak_ptr@VRawImageData@@@2@@std@@@2@@std@@QAE@XZ 0041fad0 f i CW3_Player.obj
 0001:0001eb00       ??0?$pair@VSimpleImage@@H@std@@QAE@$$QAU01@@Z 0041fb00 f i CW3_Player.obj
 0001:0001eb40       ??0?$pair@VSimpleImage@@H@std@@QAE@ABU01@@Z 0041fb40 f i CW3_Player.obj
 0001:0001eb80       ??0?$shared_ptr@VRawImageData@@@std@@QAE@$$QAV01@@Z 0041fb80 f i CW3_Player.obj
 0001:0001ebf0       ??0?$shared_ptr@VRawImageData@@@std@@QAE@$$T@Z 0041fbf0 f i CW3_Player.obj
 0001:0001ec10       ??0?$shared_ptr@VRawImageData@@@std@@QAE@ABV01@@Z 0041fc10 f i CW3_Player.obj
 0001:0001ec80       ??0?$shared_ptr@VRawImageData@@@std@@QAE@XZ 0041fc80 f i CW3_Player.obj
 0001:0001eca0       ??0?$vector@U?$pair@VSimpleImage@@H@std@@V?$allocator@U?$pair@VSimpleImage@@H@std@@@2@@std@@QAE@ABV01@@Z 0041fca0 f i CW3_Player.obj
 0001:0001edd0       ??0?$vector@U?$pair@VSimpleImage@@H@std@@V?$allocator@U?$pair@VSimpleImage@@H@std@@@2@@std@@QAE@XZ 0041fdd0 f i CW3_Player.obj
 0001:0001ee20       ??0?$weak_ptr@VRawImageData@@@std@@QAE@$$QAV01@@Z 0041fe20 f i CW3_Player.obj
 0001:0001ee90       ??0?$weak_ptr@VRawImageData@@@std@@QAE@ABV01@@Z 0041fe90 f i CW3_Player.obj
 0001:0001ef00       ??0CW3_AnimatedImage@@QAE@V?$vector@U?$pair@VSimpleImage@@H@std@@V?$allocator@U?$pair@VSimpleImage@@H@std@@@2@@std@@@Z 0041ff00 f i CW3_Player.obj
 0001:0001efb0       ??0CW3_GameObject@@QAE@HHPAVBaseEngine@@HH@Z 0041ffb0 f i CW3_Player.obj
 0001:0001f090       ??0CW3_LivingGameObject@@QAE@HHPAVBaseEngine@@HHH@Z 00420090 f i CW3_Player.obj
 0001:0001f0f0       ??0ImageManager@@QAE@XZ    004200f0 f i CW3_Player.obj
 0001:0001f170       ??0RawImageData@@QAE@V?$basic_string@DU?$char_traits@D@std@@V?$allocator@D@2@@std@@@Z 00420170 f i CW3_Player.obj
 0001:0001f220       ??0SimpleImage@@QAE@ABV0@@Z 00420220 f i CW3_Player.obj
 0001:0001f270       ??0_Ref_count_base@std@@IAE@XZ 00420270 f i CW3_Player.obj
 0001:0001f2a0       ??1?$_Ref_count@VRawImageData@@@std@@UAE@XZ 004202a0 f i CW3_Player.obj
 0001:0001f2c0       ??1?$_Tree@V?$_Tmap_traits@V?$basic_string@DU?$char_traits@D@std@@V?$allocator@D@2@@std@@V?$shared_ptr@VRawImageData@@@2@U?$less@V?$basic_string@DU?$char_traits@D@std@@V?$allocator@D@2@@std@@@2@V?$allocator@U?$pair@$$CBV?$basic_string@DU?$char_traits@D@std@@V?$allocator@D@2@@std@@V?$shared_ptr@VRawImageData@@@2@@std@@@2@$0A@@std@@@std@@QAE@XZ 004202c0 f i CW3_Player.obj
 0001:0001f320       ??1?$_Tree@V?$_Tmap_traits@V?$basic_string@DU?$char_traits@D@std@@V?$allocator@D@2@@std@@V?$weak_ptr@VRawImageData@@@2@U?$less@V?$basic_string@DU?$char_traits@D@std@@V?$allocator@D@2@@std@@@2@V?$allocator@U?$pair@$$CBV?$basic_string@DU?$char_traits@D@std@@V?$allocator@D@2@@std@@V?$weak_ptr@VRawImageData@@@2@@std@@@2@$0A@@std@@@std@@QAE@XZ 00420320 f i CW3_Player.obj
 0001:0001f380       ??1?$_Tree_comp_alloc@V?$_Tmap_traits@V?$basic_string@DU?$char_traits@D@std@@V?$allocator@D@2@@std@@V?$shared_ptr@VRawImageData@@@2@U?$less@V?$basic_string@DU?$char_traits@D@std@@V?$allocator@D@2@@std@@@2@V?$allocator@U?$pair@$$CBV?$basic_string@DU?$char_traits@D@std@@V?$allocator@D@2@@std@@V?$shared_ptr@VRawImageData@@@2@@std@@@2@$0A@@std@@@std@@QAE@XZ 00420380 f i CW3_Player.obj
 0001:0001f3f0       ??1?$_Tree_comp_alloc@V?$_Tmap_traits@V?$basic_string@DU?$char_traits@D@std@@V?$allocator@D@2@@std@@V?$weak_ptr@VRawImageData@@@2@U?$less@V?$basic_string@DU?$char_traits@D@std@@V?$allocator@D@2@@std@@@2@V?$allocator@U?$pair@$$CBV?$basic_string@DU?$char_traits@D@std@@V?$allocator@D@2@@std@@V?$weak_ptr@VRawImageData@@@2@@std@@@2@$0A@@std@@@std@@QAE@XZ 004203f0 f i CW3_Player.obj
 0001:0001f460       ??1?$_Tree_const_iterator@V?$_Tree_val@U?$_Tree_simple_types@U?$pair@$$CBV?$basic_string@DU?$char_traits@D@std@@V?$allocator@D@2@@std@@V?$shared_ptr@VRawImageData@@@2@@std@@@std@@@std@@@std@@QAE@XZ 00420460 f i CW3_Player.obj
 0001:0001f480       ??1?$_Tree_const_iterator@V?$_Tree_val@U?$_Tree_simple_types@U?$pair@$$CBV?$basic_string@DU?$char_traits@D@std@@V?$allocator@D@2@@std@@V?$weak_ptr@VRawImageData@@@2@@std@@@std@@@std@@@std@@QAE@XZ 00420480 f i CW3_Player.obj
 0001:0001f4a0       ??1?$_Tree_iterator@V?$_Tree_val@U?$_Tree_simple_types@U?$pair@$$CBV?$basic_string@DU?$char_traits@D@std@@V?$allocator@D@2@@std@@V?$shared_ptr@VRawImageData@@@2@@std@@@std@@@std@@@std@@QAE@XZ 004204a0 f i CW3_Player.obj
 0001:0001f4c0       ??1?$_Tree_iterator@V?$_Tree_val@U?$_Tree_simple_types@U?$pair@$$CBV?$basic_string@DU?$char_traits@D@std@@V?$allocator@D@2@@std@@V?$weak_ptr@VRawImageData@@@2@@std@@@std@@@std@@@std@@QAE@XZ 004204c0 f i CW3_Player.obj
 0001:0001f4e0       ??1?$_Tree_unchecked_const_iterator@V?$_Tree_val@U?$_Tree_simple_types@U?$pair@$$CBV?$basic_string@DU?$char_traits@D@std@@V?$allocator@D@2@@std@@V?$shared_ptr@VRawImageData@@@2@@std@@@std@@@std@@U_Iterator_base12@2@@std@@QAE@XZ 004204e0 f i CW3_Player.obj
 0001:0001f500       ??1?$_Tree_unchecked_const_iterator@V?$_Tree_val@U?$_Tree_simple_types@U?$pair@$$CBV?$basic_string@DU?$char_traits@D@std@@V?$allocator@D@2@@std@@V?$weak_ptr@VRawImageData@@@2@@std@@@std@@@std@@U_Iterator_base12@2@@std@@QAE@XZ 00420500 f i CW3_Player.obj
 0001:0001f520       ??1?$_Uninitialized_backout_al@PAU?$pair@VSimpleImage@@H@std@@V?$allocator@U?$pair@VSimpleImage@@H@std@@@2@@std@@QAE@XZ 00420520 f i CW3_Player.obj
 0001:0001f590       ??1?$_Vector_alloc@U?$_Vec_base_types@U?$pair@VSimpleImage@@H@std@@V?$allocator@U?$pair@VSimpleImage@@H@std@@@2@@std@@@std@@QAE@XZ 00420590 f i CW3_Player.obj
 0001:0001f5e0       ??1?$map@V?$basic_string@DU?$char_traits@D@std@@V?$allocator@D@2@@std@@V?$shared_ptr@VRawImageData@@@2@U?$less@V?$basic_string@DU?$char_traits@D@std@@V?$allocator@D@2@@std@@@2@V?$allocator@U?$pair@$$CBV?$basic_string@DU?$char_traits@D@std@@V?$allocator@D@2@@std@@V?$shared_ptr@VRawImageData@@@2@@std@@@2@@std@@QAE@XZ 004205e0 f i CW3_Player.obj
 0001:0001f600       ??1?$map@V?$basic_string@DU?$char_traits@D@std@@V?$allocator@D@2@@std@@V?$weak_ptr@VRawImageData@@@2@U?$less@V?$basic_string@DU?$char_traits@D@std@@V?$allocator@D@2@@std@@@2@V?$allocator@U?$pair@$$CBV?$basic_string@DU?$char_traits@D@std@@V?$allocator@D@2@@std@@V?$weak_ptr@VRawImageData@@@2@@std@@@2@@std@@QAE@XZ 00420600 f i CW3_Player.obj
 0001:0001f620       ??1?$pair@$$CBV?$basic_string@DU?$char_traits@D@std@@V?$allocator@D@2@@std@@V?$shared_ptr@VRawImageData@@@2@@std@@QAE@XZ 00420620 f i CW3_Player.obj
 0001:0001f650       ??1?$pair@$$CBV?$basic_string@DU?$char_traits@D@std@@V?$allocator@D@2@@std@@V?$weak_ptr@VRawImageData@@@2@@std@@QAE@XZ 00420650 f i CW3_Player.obj
 0001:0001f680       ??1?$pair@V?$_Tree_iterator@V?$_Tree_val@U?$_Tree_simple_types@U?$pair@$$CBV?$basic_string@DU?$char_traits@D@std@@V?$allocator@D@2@@std@@V?$shared_ptr@VRawImageData@@@2@@std@@@std@@@std@@@std@@_N@std@@QAE@XZ 00420680 f i CW3_Player.obj
 0001:0001f6a0       ??1?$pair@V?$_Tree_iterator@V?$_Tree_val@U?$_Tree_simple_types@U?$pair@$$CBV?$basic_string@DU?$char_traits@D@std@@V?$allocator@D@2@@std@@V?$weak_ptr@VRawImageData@@@2@@std@@@std@@@std@@@std@@_N@std@@QAE@XZ 004206a0 f i CW3_Player.obj
 0001:0001f6c0       ??1?$pair@V?$basic_string@DU?$char_traits@D@std@@V?$allocator@D@2@@std@@V?$shared_ptr@VRawImageData@@@2@@std@@QAE@XZ 004206c0 f i CW3_Player.obj
 0001:0001f6f0       ??1?$pair@V?$basic_string@DU?$char_traits@D@std@@V?$allocator@D@2@@std@@V?$weak_ptr@VRawImageData@@@2@@std@@QAE@XZ 004206f0 f i CW3_Player.obj
 0001:0001f720       ??1?$pair@VSimpleImage@@H@std@@QAE@XZ 00420720 f i CW3_Player.obj
 0001:0001f740       ??1?$shared_ptr@VRawImageData@@@std@@QAE@XZ 00420740 f i CW3_Player.obj
 0001:0001f790       ??1?$vector@U?$pair@VSimpleImage@@H@std@@V?$allocator@U?$pair@VSimpleImage@@H@std@@@2@@std@@QAE@XZ 00420790 f i CW3_Player.obj
 0001:0001f7f0       ??1?$weak_ptr@VRawImageData@@@std@@QAE@XZ 004207f0 f i CW3_Player.obj
 0001:0001f840       ??1CW3_AnimatedImage@@QAE@XZ 00420840 f i CW3_Player.obj
 0001:0001f870       ??1CW3_GameObject@@UAE@XZ  00420870 f i CW3_Player.obj
 0001:0001f890       ??1CW3_LivingGameObject@@UAE@XZ 00420890 f i CW3_Player.obj
 0001:0001f8b0       ??1RawImageData@@QAE@XZ    004208b0 f i CW3_Player.obj
 0001:0001f910       ??1SimpleImage@@QAE@XZ     00420910 f i CW3_Player.obj
 0001:0001f960       ??1_Ref_count_base@std@@UAE@XZ 00420960 f i CW3_Player.obj
 0001:0001f970       ??4?$shared_ptr@VRawImageData@@@std@@QAEAAV01@ABV01@@Z 00420970 f i CW3_Player.obj
 0001:0001f9b0       ??4?$vector@U?$pair@VSimpleImage@@H@std@@V?$allocator@U?$pair@VSimpleImage@@H@std@@@2@@std@@QAEAAV01@ABV01@@Z 004209b0 f i CW3_Player.obj
 0001:0001fa30       ??4SimpleImage@@QAEAAV0@ABV0@@Z 00420a30 f i CW3_Player.obj
 0001:0001fa80       ??8?$_Tree_const_iterator@V?$_Tree_val@U?$_Tree_simple_types@U?$pair@$$CBV?$basic_string@DU?$char_traits@D@std@@V?$allocator@D@2@@std@@V?$shared_ptr@VRawImageData@@@2@@std@@@std@@@std@@@std@@QBE_NABV01@@Z 00420a80 f i CW3_Player.obj
 0001:0001fb40       ??8?$_Tree_const_iterator@V?$_Tree_val@U?$_Tree_simple_types@U?$pair@$$CBV?$basic_string@DU?$char_traits@D@std@@V?$allocator@D@2@@std@@V?$weak_ptr@VRawImageData@@@2@@std@@@std@@@std@@@std@@QBE_NABV01@@Z 00420b40 f i CW3_Player.obj
 0001:0001fc00       ??9?$_Tree_const_iterator@V?$_Tree_val@U?$_Tree_simple_types@U?$pair@$$CBV?$basic_string@DU?$char_traits@D@std@@V?$allocator@D@2@@std@@V?$shared_ptr@VRawImageData@@@2@@std@@@std@@@std@@@std@@QBE_NABV01@@Z 00420c00 f i CW3_Player.obj
 0001:0001fc50       ??9?$_Tree_const_iterator@V?$_Tree_val@U?$_Tree_simple_types@U?$pair@$$CBV?$basic_string@DU?$char_traits@D@std@@V?$allocator@D@2@@std@@V?$weak_ptr@VRawImageData@@@2@@std@@@std@@@std@@@std@@QBE_NABV01@@Z 00420c50 f i CW3_Player.obj
 0001:0001fca0       ??C?$_Tree_iterator@V?$_Tree_val@U?$_Tree_simple_types@U?$pair@$$CBV?$basic_string@DU?$char_traits@D@std@@V?$allocator@D@2@@std@@V?$weak_ptr@VRawImageData@@@2@@std@@@std@@@std@@@std@@QBEPAU?$pair@$$CBV?$basic_string@DU?$char_traits@D@std@@V?$allocator@D@2@@std@@V?$weak_ptr@VRawImageData@@@2@@1@XZ 00420ca0 f i CW3_Player.obj
 0001:0001fcd0       ??D?$_Tree_const_iterator@V?$_Tree_val@U?$_Tree_simple_types@U?$pair@$$CBV?$basic_string@DU?$char_traits@D@std@@V?$allocator@D@2@@std@@V?$weak_ptr@VRawImageData@@@2@@std@@@std@@@std@@@std@@QBEABU?$pair@$$CBV?$basic_string@DU?$char_traits@D@std@@V?$allocator@D@2@@std@@V?$weak_ptr@VRawImageData@@@2@@1@XZ 00420cd0 f i CW3_Player.obj
 0001:0001fde0       ??D?$_Tree_iterator@V?$_Tree_val@U?$_Tree_simple_types@U?$pair@$$CBV?$basic_string@DU?$char_traits@D@std@@V?$allocator@D@2@@std@@V?$weak_ptr@VRawImageData@@@2@@std@@@std@@@std@@@std@@QBEAAU?$pair@$$CBV?$basic_string@DU?$char_traits@D@std@@V?$allocator@D@2@@std@@V?$weak_ptr@VRawImageData@@@2@@1@XZ 00420de0 f i CW3_Player.obj
 0001:0001fe00       ??E?$_Tree_const_iterator@V?$_Tree_val@U?$_Tree_simple_types@U?$pair@$$CBV?$basic_string@DU?$char_traits@D@std@@V?$allocator@D@2@@std@@V?$shared_ptr@VRawImageData@@@2@@std@@@std@@@std@@@std@@QAE?AV01@H@Z 00420e00 f i CW3_Player.obj
 0001:0001feb0       ??E?$_Tree_const_iterator@V?$_Tree_val@U?$_Tree_simple_types@U?$pair@$$CBV?$basic_string@DU?$char_traits@D@std@@V?$allocator@D@2@@std@@V?$shared_ptr@VRawImageData@@@2@@std@@@std@@@std@@@std@@QAEAAV01@XZ 00420eb0 f i CW3_Player.obj
 0001:0001ffc0       ??E?$_Tree_const_iterator@V?$_Tree_val@U?$_Tree_simple_types@U?$pair@$$CBV?$basic_string@DU?$char_traits@D@std@@V?$allocator@D@2@@std@@V?$weak_ptr@VRawImageData@@@2@@std@@@std@@@std@@@std@@QAE?AV01@H@Z 00420fc0 f i CW3_Player.obj
 0001:00020070       ??E?$_Tree_const_iterator@V?$_Tree_val@U?$_Tree_simple_types@U?$pair@$$CBV?$basic_string@DU?$char_traits@D@std@@V?$allocator@D@2@@std@@V?$weak_ptr@VRawImageData@@@2@@std@@@std@@@std@@@std@@QAEAAV01@XZ 00421070 f i CW3_Player.obj
 0001:00020180       ??E?$_Tree_unchecked_const_iterator@V?$_Tree_val@U?$_Tree_simple_types@U?$pair@$$CBV?$basic_string@DU?$char_traits@D@std@@V?$allocator@D@2@@std@@V?$shared_ptr@VRawImageData@@@2@@std@@@std@@@std@@U_Iterator_base12@2@@std@@QAEAAV01@XZ 00421180 f i CW3_Player.obj
 0001:00020220       ??E?$_Tree_unchecked_const_iterator@V?$_Tree_val@U?$_Tree_simple_types@U?$pair@$$CBV?$basic_string@DU?$char_traits@D@std@@V?$allocator@D@2@@std@@V?$weak_ptr@VRawImageData@@@2@@std@@@std@@@std@@U_Iterator_base12@2@@std@@QAEAAV01@XZ 00421220 f i CW3_Player.obj
 0001:000202c0       ??F?$_Tree_const_iterator@V?$_Tree_val@U?$_Tree_simple_types@U?$pair@$$CBV?$basic_string@DU?$char_traits@D@std@@V?$allocator@D@2@@std@@V?$shared_ptr@VRawImageData@@@2@@std@@@std@@@std@@@std@@QAEAAV01@XZ 004212c0 f i CW3_Player.obj
 0001:000203d0       ??F?$_Tree_const_iterator@V?$_Tree_val@U?$_Tree_simple_types@U?$pair@$$CBV?$basic_string@DU?$char_traits@D@std@@V?$allocator@D@2@@std@@V?$weak_ptr@VRawImageData@@@2@@std@@@std@@@std@@@std@@QAEAAV01@XZ 004213d0 f i CW3_Player.obj
 0001:000204e0       ??F?$_Tree_iterator@V?$_Tree_val@U?$_Tree_simple_types@U?$pair@$$CBV?$basic_string@DU?$char_traits@D@std@@V?$allocator@D@2@@std@@V?$shared_ptr@VRawImageData@@@2@@std@@@std@@@std@@@std@@QAEAAV01@XZ 004214e0 f i CW3_Player.obj
 0001:00020500       ??F?$_Tree_iterator@V?$_Tree_val@U?$_Tree_simple_types@U?$pair@$$CBV?$basic_string@DU?$char_traits@D@std@@V?$allocator@D@2@@std@@V?$weak_ptr@VRawImageData@@@2@@std@@@std@@@std@@@std@@QAEAAV01@XZ 00421500 f i CW3_Player.obj
 0001:00020520       ??F?$_Tree_unchecked_const_iterator@V?$_Tree_val@U?$_Tree_simple_types@U?$pair@$$CBV?$basic_string@DU?$char_traits@D@std@@V?$allocator@D@2@@std@@V?$shared_ptr@VRawImageData@@@2@@std@@@std@@@std@@U_Iterator_base12@2@@std@@QAEAAV01@XZ 00421520 f i CW3_Player.obj
 0001:000205f0       ??F?$_Tree_unchecked_const_iterator@V?$_Tree_val@U?$_Tree_simple_types@U?$pair@$$CBV?$basic_string@DU?$char_traits@D@std@@V?$allocator@D@2@@std@@V?$weak_ptr@VRawImageData@@@2@@std@@@std@@@std@@U_Iterator_base12@2@@std@@QAEAAV01@XZ 004215f0 f i CW3_Player.obj
 0001:000206c0       ??R?$less@V?$basic_string@DU?$char_traits@D@std@@V?$allocator@D@2@@std@@@std@@QBE_NABV?$basic_string@DU?$char_traits@D@std@@V?$allocator@D@2@@1@0@Z 004216c0 f i CW3_Player.obj
 0001:000206f0       ??_E?$_Ref_count@VRawImageData@@@std@@UAEPAXI@Z 004216f0 f i CW3_Player.obj
 0001:000206f0       ??_G?$_Ref_count@VRawImageData@@@std@@UAEPAXI@Z 004216f0 f i CW3_Player.obj
 0001:00020730       ??_G?$pair@$$CBV?$basic_string@DU?$char_traits@D@std@@V?$allocator@D@2@@std@@V?$shared_ptr@VRawImageData@@@2@@std@@QAEPAXI@Z 00421730 f i CW3_Player.obj
 0001:00020770       ??_G?$pair@$$CBV?$basic_string@DU?$char_traits@D@std@@V?$allocator@D@2@@std@@V?$weak_ptr@VRawImageData@@@2@@std@@QAEPAXI@Z 00421770 f i CW3_Player.obj
 0001:000207b0       ??_G?$pair@VSimpleImage@@H@std@@QAEPAXI@Z 004217b0 f i CW3_Player.obj
 0001:000207f0       ??_GCW3_AnimatedImage@@QAEPAXI@Z 004217f0 f i CW3_Player.obj
 0001:00020830       ??_GCW3_GameObject@@UAEPAXI@Z 00421830 f i CW3_Player.obj
 0001:00020830       ??_ECW3_GameObject@@UAEPAXI@Z 00421830 f i CW3_Player.obj
 0001:00020870       ??_ECW3_LivingGameObject@@UAEPAXI@Z 00421870 f i CW3_Player.obj
 0001:00020870       ??_GCW3_LivingGameObject@@UAEPAXI@Z 00421870 f i CW3_Player.obj
 0001:000208b0       ??_ECW3_Player@@UAEPAXI@Z  004218b0 f i CW3_Player.obj
 0001:000208b0       ??_GCW3_Player@@UAEPAXI@Z  004218b0 f i CW3_Player.obj
 0001:000208f0       ??_GRawImageData@@QAEPAXI@Z 004218f0 f i CW3_Player.obj
 0001:00020930       ?_Alloc_proxy@?$_Tree_comp_alloc@V?$_Tmap_traits@V?$basic_string@DU?$char_traits@D@std@@V?$allocator@D@2@@std@@V?$shared_ptr@VRawImageData@@@2@U?$less@V?$basic_string@DU?$char_traits@D@std@@V?$allocator@D@2@@std@@@2@V?$allocator@U?$pair@$$CBV?$basic_string@DU?$char_traits@D@std@@V?$allocator@D@2@@std@@V?$shared_ptr@VRawImageData@@@2@@std@@@2@$0A@@std@@@std@@QAEXXZ 00421930 f i CW3_Player.obj
 0001:000209d0       ?_Alloc_proxy@?$_Tree_comp_alloc@V?$_Tmap_traits@V?$basic_string@DU?$char_traits@D@std@@V?$allocator@D@2@@std@@V?$weak_ptr@VRawImageData@@@2@U?$less@V?$basic_string@DU?$char_traits@D@std@@V?$allocator@D@2@@std@@@2@V?$allocator@U?$pair@$$CBV?$basic_string@DU?$char_traits@D@std@@V?$allocator@D@2@@std@@V?$weak_ptr@VRawImageData@@@2@@std@@@2@$0A@@std@@@std@@QAEXXZ 004219d0 f i CW3_Player.obj
 0001:00020a70       ?_Alloc_proxy@?$_Vector_alloc@U?$_Vec_base_types@U?$pair@VSimpleImage@@H@std@@V?$allocator@U?$pair@VSimpleImage@@H@std@@@2@@std@@@std@@QAEXXZ 00421a70 f i CW3_Player.obj
 0001:00020b10       ?_Buy@?$vector@U?$pair@VSimpleImage@@H@std@@V?$allocator@U?$pair@VSimpleImage@@H@std@@@2@@std@@AAE_NI@Z 00421b10 f i CW3_Player.obj
 0001:00020be0       ?_Buyheadnode@?$_Tree_comp_alloc@V?$_Tmap_traits@V?$basic_string@DU?$char_traits@D@std@@V?$allocator@D@2@@std@@V?$shared_ptr@VRawImageData@@@2@U?$less@V?$basic_string@DU?$char_traits@D@std@@V?$allocator@D@2@@std@@@2@V?$allocator@U?$pair@$$CBV?$basic_string@DU?$char_traits@D@std@@V?$allocator@D@2@@std@@V?$shared_ptr@VRawImageData@@@2@@std@@@2@$0A@@std@@@std@@QAEPAU?$_Tree_node@U?$pair@$$CBV?$basic_string@DU?$char_traits@D@std@@V?$allocator@D@2@@std@@V?$shared_ptr@VRawImageData@@@2@@std@@PAX@2@XZ 00421be0 f i CW3_Player.obj
 0001:00020d20       ?_Buyheadnode@?$_Tree_comp_alloc@V?$_Tmap_traits@V?$basic_string@DU?$char_traits@D@std@@V?$allocator@D@2@@std@@V?$weak_ptr@VRawImageData@@@2@U?$less@V?$basic_string@DU?$char_traits@D@std@@V?$allocator@D@2@@std@@@2@V?$allocator@U?$pair@$$CBV?$basic_string@DU?$char_traits@D@std@@V?$allocator@D@2@@std@@V?$weak_ptr@VRawImageData@@@2@@std@@@2@$0A@@std@@@std@@QAEPAU?$_Tree_node@U?$pair@$$CBV?$basic_string@DU?$char_traits@D@std@@V?$allocator@D@2@@std@@V?$weak_ptr@VRawImageData@@@2@@std@@PAX@2@XZ 00421d20 f i CW3_Player.obj
 0001:00020e60       ?_Buynode0@?$_Tree_comp_alloc@V?$_Tmap_traits@V?$basic_string@DU?$char_traits@D@std@@V?$allocator@D@2@@std@@V?$shared_ptr@VRawImageData@@@2@U?$less@V?$basic_string@DU?$char_traits@D@std@@V?$allocator@D@2@@std@@@2@V?$allocator@U?$pair@$$CBV?$basic_string@DU?$char_traits@D@std@@V?$allocator@D@2@@std@@V?$shared_ptr@VRawImageData@@@2@@std@@@2@$0A@@std@@@std@@QAEPAU?$_Tree_node@U?$pair@$$CBV?$basic_string@DU?$char_traits@D@std@@V?$allocator@D@2@@std@@V?$shared_ptr@VRawImageData@@@2@@std@@PAX@2@XZ 00421e60 f i CW3_Player.obj
 0001:00020fb0       ?_Buynode0@?$_Tree_comp_alloc@V?$_Tmap_traits@V?$basic_string@DU?$char_traits@D@std@@V?$allocator@D@2@@std@@V?$weak_ptr@VRawImageData@@@2@U?$less@V?$basic_string@DU?$char_traits@D@std@@V?$allocator@D@2@@std@@@2@V?$allocator@U?$pair@$$CBV?$basic_string@DU?$char_traits@D@std@@V?$allocator@D@2@@std@@V?$weak_ptr@VRawImageData@@@2@@std@@@2@$0A@@std@@@std@@QAEPAU?$_Tree_node@U?$pair@$$CBV?$basic_string@DU?$char_traits@D@std@@V?$allocator@D@2@@std@@V?$weak_ptr@VRawImageData@@@2@@std@@PAX@2@XZ 00421fb0 f i CW3_Player.obj
 0001:00021100       ?_Calculate_growth@?$vector@U?$pair@VSimpleImage@@H@std@@V?$allocator@U?$pair@VSimpleImage@@H@std@@@2@@std@@ABEII@Z 00422100 f i CW3_Player.obj
 0001:00021170       ?_Change_array@?$vector@U?$pair@VSimpleImage@@H@std@@V?$allocator@U?$pair@VSimpleImage@@H@std@@@2@@std@@AAEXQAU?$pair@VSimpleImage@@H@2@II@Z 00422170 f i CW3_Player.obj
 0001:00021230       ?_Compare@?$_Tree@V?$_Tmap_traits@V?$basic_string@DU?$char_traits@D@std@@V?$allocator@D@2@@std@@V?$weak_ptr@VRawImageData@@@2@U?$less@V?$basic_string@DU?$char_traits@D@std@@V?$allocator@D@2@@std@@@2@V?$allocator@U?$pair@$$CBV?$basic_string@DU?$char_traits@D@std@@V?$allocator@D@2@@std@@V?$weak_ptr@VRawImageData@@@2@@std@@@2@$0A@@std@@@std@@IBE_NABV?$basic_string@DU?$char_traits@D@std@@V?$allocator@D@2@@2@0@Z 00422230 f i CW3_Player.obj
 0001:00021260       ?_Construct@?$_Tree_comp_alloc@V?$_Tmap_traits@V?$basic_string@DU?$char_traits@D@std@@V?$allocator@D@2@@std@@V?$shared_ptr@VRawImageData@@@2@U?$less@V?$basic_string@DU?$char_traits@D@std@@V?$allocator@D@2@@std@@@2@V?$allocator@U?$pair@$$CBV?$basic_string@DU?$char_traits@D@std@@V?$allocator@D@2@@std@@V?$shared_ptr@VRawImageData@@@2@@std@@@2@$0A@@std@@@std@@QAEXXZ 00422260 f i CW3_Player.obj
 0001:00021320       ?_Construct@?$_Tree_comp_alloc@V?$_Tmap_traits@V?$basic_string@DU?$char_traits@D@std@@V?$allocator@D@2@@std@@V?$weak_ptr@VRawImageData@@@2@U?$less@V?$basic_string@DU?$char_traits@D@std@@V?$allocator@D@2@@std@@@2@V?$allocator@U?$pair@$$CBV?$basic_string@DU?$char_traits@D@std@@V?$allocator@D@2@@std@@V?$weak_ptr@VRawImageData@@@2@@std@@@2@$0A@@std@@@std@@QAEXXZ 00422320 f i CW3_Player.obj
 0001:000213e0       ?_Copy_alloc@?$_Vector_alloc@U?$_Vec_base_types@U?$pair@VSimpleImage@@H@std@@V?$allocator@U?$pair@VSimpleImage@@H@std@@@2@@std@@@std@@QAEXABV?$allocator@U?$pair@VSimpleImage@@H@std@@@2@@Z 004223e0 f i CW3_Player.obj
 0001:00021430       ?_Decref@?$_Ptr_base@VRawImageData@@@std@@IAEXXZ 00422430 f i CW3_Player.obj
 0001:00021460       ?_Decref@_Ref_count_base@std@@QAEXXZ 00422460 f i CW3_Player.obj
 0001:000214a0       ?_Decwref@?$_Ptr_base@VRawImageData@@@std@@IAEXXZ 004224a0 f i CW3_Player.obj
 0001:000214d0       ?_Decwref@_Ref_count_base@std@@QAEXXZ 004224d0 f i CW3_Player.obj
 0001:00021510       ?_Delete_this@?$_Ref_count@VRawImageData@@@std@@EAEXXZ 00422510 f i CW3_Player.obj
 0001:00021560       ?_Destroy@?$_Ref_count@VRawImageData@@@std@@EAEXXZ 00422560 f i CW3_Player.obj
 0001:000215b0       ?_Destroy@?$vector@U?$pair@VSimpleImage@@H@std@@V?$allocator@U?$pair@VSimpleImage@@H@std@@@2@@std@@AAEXPAU?$pair@VSimpleImage@@H@2@0@Z 004225b0 f i CW3_Player.obj
 0001:000215e0       ?_Destroy_if_node@?$_Tree@V?$_Tmap_traits@V?$basic_string@DU?$char_traits@D@std@@V?$allocator@D@2@@std@@V?$shared_ptr@VRawImageData@@@2@U?$less@V?$basic_string@DU?$char_traits@D@std@@V?$allocator@D@2@@std@@@2@V?$allocator@U?$pair@$$CBV?$basic_string@DU?$char_traits@D@std@@V?$allocator@D@2@@std@@V?$shared_ptr@VRawImageData@@@2@@std@@@2@$0A@@std@@@std@@IAEXPAU?$_Tree_node@U?$pair@$$CBV?$basic_string@DU?$char_traits@D@std@@V?$allocator@D@2@@std@@V?$shared_ptr@VRawImageData@@@2@@std@@PAX@2@@Z 004225e0 f i CW3_Player.obj
 0001:00021640       ?_Destroy_if_node@?$_Tree@V?$_Tmap_traits@V?$basic_string@DU?$char_traits@D@std@@V?$allocator@D@2@@std@@V?$weak_ptr@VRawImageData@@@2@U?$less@V?$basic_string@DU?$char_traits@D@std@@V?$allocator@D@2@@std@@@2@V?$allocator@U?$pair@$$CBV?$basic_string@DU?$char_traits@D@std@@V?$allocator@D@2@@std@@V?$weak_ptr@VRawImageData@@@2@@std@@@2@$0A@@std@@@std@@IAEXPAU?$_Tree_node@U?$pair@$$CBV?$basic_string@DU?$char_traits@D@std@@V?$allocator@D@2@@std@@V?$weak_ptr@VRawImageData@@@2@@std@@PAX@2@@Z 00422640 f i CW3_Player.obj
 0001:000216a0       ?_Erase@?$_Tree@V?$_Tmap_traits@V?$basic_string@DU?$char_traits@D@std@@V?$allocator@D@2@@std@@V?$shared_ptr@VRawImageData@@@2@U?$less@V?$basic_string@DU?$char_traits@D@std@@V?$allocator@D@2@@std@@@2@V?$allocator@U?$pair@$$CBV?$basic_string@DU?$char_traits@D@std@@V?$allocator@D@2@@std@@V?$shared_ptr@VRawImageData@@@2@@std@@@2@$0A@@std@@@std@@IAEXPAU?$_Tree_node@U?$pair@$$CBV?$basic_string@DU?$char_traits@D@std@@V?$allocator@D@2@@std@@V?$shared_ptr@VRawImageData@@@2@@std@@PAX@2@@Z 004226a0 f i CW3_Player.obj
 0001:00021740       ?_Erase@?$_Tree@V?$_Tmap_traits@V?$basic_string@DU?$char_traits@D@std@@V?$allocator@D@2@@std@@V?$weak_ptr@VRawImageData@@@2@U?$less@V?$basic_string@DU?$char_traits@D@std@@V?$allocator@D@2@@std@@@2@V?$allocator@U?$pair@$$CBV?$basic_string@DU?$char_traits@D@std@@V?$allocator@D@2@@std@@V?$weak_ptr@VRawImageData@@@2@@std@@@2@$0A@@std@@@std@@IAEXPAU?$_Tree_node@U?$pair@$$CBV?$basic_string@DU?$char_traits@D@std@@V?$allocator@D@2@@std@@V?$weak_ptr@VRawImageData@@@2@@std@@PAX@2@@Z 00422740 f i CW3_Player.obj
 0001:000217e0       ?_Extract@?$_Tree_val@U?$_Tree_simple_types@U?$pair@$$CBV?$basic_string@DU?$char_traits@D@std@@V?$allocator@D@2@@std@@V?$shared_ptr@VRawImageData@@@2@@std@@@std@@@std@@QAEPAU?$_Tree_node@U?$pair@$$CBV?$basic_string@DU?$char_traits@D@std@@V?$allocator@D@2@@std@@V?$shared_ptr@VRawImageData@@@2@@std@@PAX@2@V?$_Tree_const_iterator@V?$_Tree_val@U?$_Tree_simple_types@U?$pair@$$CBV?$basic_string@DU?$char_traits@D@std@@V?$allocator@D@2@@std@@V?$shared_ptr@VRawImageData@@@2@@std@@@std@@@std@@@2@@Z 004227e0 f i CW3_Player.obj
 0001:00021e00       ?_Extract@?$_Tree_val@U?$_Tree_simple_types@U?$pair@$$CBV?$basic_string@DU?$char_traits@D@std@@V?$allocator@D@2@@std@@V?$weak_ptr@VRawImageData@@@2@@std@@@std@@@std@@QAEPAU?$_Tree_node@U?$pair@$$CBV?$basic_string@DU?$char_traits@D@std@@V?$allocator@D@2@@std@@V?$weak_ptr@VRawImageData@@@2@@std@@PAX@2@V?$_Tree_const_iterator@V?$_Tree_val@U?$_Tree_simple_types@U?$pair@$$CBV?$basic_string@DU?$char_traits@D@std@@V?$allocator@D@2@@std@@V?$weak_ptr@VRawImageData@@@2@@std@@@std@@@std@@@2@@Z 00422e00 f i CW3_Player.obj
 0001:00022420       ?_Free_proxy@?$_Tree_comp_alloc@V?$_Tmap_traits@V?$basic_string@DU?$char_traits@D@std@@V?$allocator@D@2@@std@@V?$shared_ptr@VRawImageData@@@2@U?$less@V?$basic_string@DU?$char_traits@D@std@@V?$allocator@D@2@@std@@@2@V?$allocator@U?$pair@$$CBV?$basic_string@DU?$char_traits@D@std@@V?$allocator@D@2@@std@@V?$shared_ptr@VRawImageData@@@2@@std@@@2@$0A@@std@@@std@@QAEXXZ 00423420 f i CW3_Player.obj
 0001:000224a0       ?_Free_proxy@?$_Tree_comp_alloc@V?$_Tmap_traits@V?$basic_string@DU?$char_traits@D@std@@V?$allocator@D@2@@std@@V?$weak_ptr@VRawImageData@@@2@U?$less@V?$basic_string@DU?$char_traits@D@std@@V?$allocator@D@2@@std@@@2@V?$allocator@U?$pair@$$CBV?$basic_string@DU?$char_traits@D@std@@V?$allocator@D@2@@std@@V?$weak_ptr@VRawImageData@@@2@@std@@@2@$0A@@std@@@std@@QAEXXZ 004234a0 f i CW3_Player.obj
 0001:00022520       ?_Free_proxy@?$_Vector_alloc@U?$_Vec_base_types@U?$pair@VSimpleImage@@H@std@@V?$allocator@U?$pair@VSimpleImage@@H@std@@@2@@std@@@std@@QAEXXZ 00423520 f i CW3_Player.obj
 0001:000225a0       ?_Freeheadnode@?$_Tree_comp_alloc@V?$_Tmap_traits@V?$basic_string@DU?$char_traits@D@std@@V?$allocator@D@2@@std@@V?$shared_ptr@VRawImageData@@@2@U?$less@V?$basic_string@DU?$char_traits@D@std@@V?$allocator@D@2@@std@@@2@V?$allocator@U?$pair@$$CBV?$basic_string@DU?$char_traits@D@std@@V?$allocator@D@2@@std@@V?$shared_ptr@VRawImageData@@@2@@std@@@2@$0A@@std@@@std@@QAEXPAU?$_Tree_node@U?$pair@$$CBV?$basic_string@DU?$char_traits@D@std@@V?$allocator@D@2@@std@@V?$shared_ptr@VRawImageData@@@2@@std@@PAX@2@@Z 004235a0 f i CW3_Player.obj
 0001:000225d0       ?_Freeheadnode@?$_Tree_comp_alloc@V?$_Tmap_traits@V?$basic_string@DU?$char_traits@D@std@@V?$allocator@D@2@@std@@V?$weak_ptr@VRawImageData@@@2@U?$less@V?$basic_string@DU?$char_traits@D@std@@V?$allocator@D@2@@std@@@2@V?$allocator@U?$pair@$$CBV?$basic_string@DU?$char_traits@D@std@@V?$allocator@D@2@@std@@V?$weak_ptr@VRawImageData@@@2@@std@@@2@$0A@@std@@@std@@QAEXPAU?$_Tree_node@U?$pair@$$CBV?$basic_string@DU?$char_traits@D@std@@V?$allocator@D@2@@std@@V?$weak_ptr@VRawImageData@@@2@@std@@PAX@2@@Z 004235d0 f i CW3_Player.obj
 0001:00022600       ?_Freenode0@?$_Tree_comp_alloc@V?$_Tmap_traits@V?$basic_string@DU?$char_traits@D@std@@V?$allocator@D@2@@std@@V?$shared_ptr@VRawImageData@@@2@U?$less@V?$basic_string@DU?$char_traits@D@std@@V?$allocator@D@2@@std@@@2@V?$allocator@U?$pair@$$CBV?$basic_string@DU?$char_traits@D@std@@V?$allocator@D@2@@std@@V?$shared_ptr@VRawImageData@@@2@@std@@@2@$0A@@std@@@std@@QAEXPAU?$_Tree_node@U?$pair@$$CBV?$basic_string@DU?$char_traits@D@std@@V?$allocator@D@2@@std@@V?$shared_ptr@VRawImageData@@@2@@std@@PAX@2@@Z 00423600 f i CW3_Player.obj
 0001:00022630       ?_Freenode0@?$_Tree_comp_alloc@V?$_Tmap_traits@V?$basic_string@DU?$char_traits@D@std@@V?$allocator@D@2@@std@@V?$weak_ptr@VRawImageData@@@2@U?$less@V?$basic_string@DU?$char_traits@D@std@@V?$allocator@D@2@@std@@@2@V?$allocator@U?$pair@$$CBV?$basic_string@DU?$char_traits@D@std@@V?$allocator@D@2@@std@@V?$weak_ptr@VRawImageData@@@2@@std@@@2@$0A@@std@@@std@@QAEXPAU?$_Tree_node@U?$pair@$$CBV?$basic_string@DU?$char_traits@D@std@@V?$allocator@D@2@@std@@V?$weak_ptr@VRawImageData@@@2@@std@@PAX@2@@Z 00423630 f i CW3_Player.obj
 0001:00022660       ?_Get_atomic_count@std@@YAKABK@Z 00423660 f i CW3_Player.obj
 0001:00022670       ?_Get_data@?$_Tree_comp_alloc@V?$_Tmap_traits@V?$basic_string@DU?$char_traits@D@std@@V?$allocator@D@2@@std@@V?$shared_ptr@VRawImageData@@@2@U?$less@V?$basic_string@DU?$char_traits@D@std@@V?$allocator@D@2@@std@@@2@V?$allocator@U?$pair@$$CBV?$basic_string@DU?$char_traits@D@std@@V?$allocator@D@2@@std@@V?$shared_ptr@VRawImageData@@@2@@std@@@2@$0A@@std@@@std@@QAEAAV?$_Tree_val@U?$_Tree_simple_types@U?$pair@$$CBV?$basic_string@DU?$char_traits@D@std@@V?$allocator@D@2@@std@@V?$shared_ptr@VRawImageData@@@2@@std@@@std@@@2@XZ 00423670 f i CW3_Player.obj
 0001:00022690       ?_Get_data@?$_Tree_comp_alloc@V?$_Tmap_traits@V?$basic_string@DU?$char_traits@D@std@@V?$allocator@D@2@@std@@V?$shared_ptr@VRawImageData@@@2@U?$less@V?$basic_string@DU?$char_traits@D@std@@V?$allocator@D@2@@std@@@2@V?$allocator@U?$pair@$$CBV?$basic_string@DU?$char_traits@D@std@@V?$allocator@D@2@@std@@V?$shared_ptr@VRawImageData@@@2@@std@@@2@$0A@@std@@@std@@QBEABV?$_Tree_val@U?$_Tree_simple_types@U?$pair@$$CBV?$basic_string@DU?$char_traits@D@std@@V?$allocator@D@2@@std@@V?$shared_ptr@VRawImageData@@@2@@std@@@std@@@2@XZ 00423690 f i CW3_Player.obj
 0001:000226b0       ?_Get_data@?$_Tree_comp_alloc@V?$_Tmap_traits@V?$basic_string@DU?$char_traits@D@std@@V?$allocator@D@2@@std@@V?$weak_ptr@VRawImageData@@@2@U?$less@V?$basic_string@DU?$char_traits@D@std@@V?$allocator@D@2@@std@@@2@V?$allocator@U?$pair@$$CBV?$basic_string@DU?$char_traits@D@std@@V?$allocator@D@2@@std@@V?$weak_ptr@VRawImageData@@@2@@std@@@2@$0A@@std@@@std@@QAEAAV?$_Tree_val@U?$_Tree_simple_types@U?$pair@$$CBV?$basic_string@DU?$char_traits@D@std@@V?$allocator@D@2@@std@@V?$weak_ptr@VRawImageData@@@2@@std@@@std@@@2@XZ 004236b0 f i CW3_Player.obj
 0001:000226d0       ?_Get_data@?$_Tree_comp_alloc@V?$_Tmap_traits@V?$basic_string@DU?$char_traits@D@std@@V?$allocator@D@2@@std@@V?$weak_ptr@VRawImageData@@@2@U?$less@V?$basic_string@DU?$char_traits@D@std@@V?$allocator@D@2@@std@@@2@V?$allocator@U?$pair@$$CBV?$basic_string@DU?$char_traits@D@std@@V?$allocator@D@2@@std@@V?$weak_ptr@VRawImageData@@@2@@std@@@2@$0A@@std@@@std@@QBEABV?$_Tree_val@U?$_Tree_simple_types@U?$pair@$$CBV?$basic_string@DU?$char_traits@D@std@@V?$allocator@D@2@@std@@V?$weak_ptr@VRawImageData@@@2@@std@@@std@@@2@XZ 004236d0 f i CW3_Player.obj
 0001:000226f0       ?_Get_data@?$_Vector_alloc@U?$_Vec_base_types@U?$pair@VSimpleImage@@H@std@@V?$allocator@U?$pair@VSimpleImage@@H@std@@@2@@std@@@std@@QAEAAV?$_Vector_val@U?$_Simple_types@U?$pair@VSimpleImage@@H@std@@@std@@@2@XZ 004236f0 f i CW3_Player.obj
 0001:00022710       ?_Get_data@?$_Vector_alloc@U?$_Vec_base_types@U?$pair@VSimpleImage@@H@std@@V?$allocator@U?$pair@VSimpleImage@@H@std@@@2@@std@@@std@@QBEABV?$_Vector_val@U?$_Simple_types@U?$pair@VSimpleImage@@H@std@@@std@@@2@XZ 00423710 f i CW3_Player.obj
 0001:00022730       ?_Get_deleter@_Ref_count_base@std@@UBEPAXABVtype_info@@@Z 00423730 f i CW3_Player.obj
 0001:00022750       ?_Get_first@?$_Compressed_pair@U?$less@V?$basic_string@DU?$char_traits@D@std@@V?$allocator@D@2@@std@@@std@@V?$_Compressed_pair@V?$allocator@U?$_Tree_node@U?$pair@$$CBV?$basic_string@DU?$char_traits@D@std@@V?$allocator@D@2@@std@@V?$shared_ptr@VRawImageData@@@2@@std@@PAX@std@@@std@@V?$_Tree_val@U?$_Tree_simple_types@U?$pair@$$CBV?$basic_string@DU?$char_traits@D@std@@V?$allocator@D@2@@std@@V?$shared_ptr@VRawImageData@@@2@@std@@@std@@@2@$00@2@$00@std@@QAEAAU?$less@V?$basic_string@DU?$char_traits@D@std@@V?$allocator@D@2@@std@@@2@XZ 00423750 f i CW3_Player.obj
 0001:00022770       ?_Get_first@?$_Compressed_pair@U?$less@V?$basic_string@DU?$char_traits@D@std@@V?$allocator@D@2@@std@@@std@@V?$_Compressed_pair@V?$allocator@U?$_Tree_node@U?$pair@$$CBV?$basic_string@DU?$char_traits@D@std@@V?$allocator@D@2@@std@@V?$weak_ptr@VRawImageData@@@2@@std@@PAX@std@@@std@@V?$_Tree_val@U?$_Tree_simple_types@U?$pair@$$CBV?$basic_string@DU?$char_traits@D@std@@V?$allocator@D@2@@std@@V?$weak_ptr@VRawImageData@@@2@@std@@@std@@@2@$00@2@$00@std@@QAEAAU?$less@V?$basic_string@DU?$char_traits@D@std@@V?$allocator@D@2@@std@@@2@XZ 00423770 f i CW3_Player.obj
 0001:00022790       ?_Get_first@?$_Compressed_pair@U?$less@V?$basic_string@DU?$char_traits@D@std@@V?$allocator@D@2@@std@@@std@@V?$_Compressed_pair@V?$allocator@U?$_Tree_node@U?$pair@$$CBV?$basic_string@DU?$char_traits@D@std@@V?$allocator@D@2@@std@@V?$weak_ptr@VRawImageData@@@2@@std@@PAX@std@@@std@@V?$_Tree_val@U?$_Tree_simple_types@U?$pair@$$CBV?$basic_string@DU?$char_traits@D@std@@V?$allocator@D@2@@std@@V?$weak_ptr@VRawImageData@@@2@@std@@@std@@@2@$00@2@$00@std@@QBEABU?$less@V?$basic_string@DU?$char_traits@D@std@@V?$allocator@D@2@@std@@@2@XZ 00423790 f i CW3_Player.obj
 0001:000227b0       ?_Get_first@?$_Compressed_pair@V?$allocator@U?$_Tree_node@U?$pair@$$CBV?$basic_string@DU?$char_traits@D@std@@V?$allocator@D@2@@std@@V?$shared_ptr@VRawImageData@@@2@@std@@PAX@std@@@std@@V?$_Tree_val@U?$_Tree_simple_types@U?$pair@$$CBV?$basic_string@DU?$char_traits@D@std@@V?$allocator@D@2@@std@@V?$shared_ptr@VRawImageData@@@2@@std@@@std@@@2@$00@std@@QAEAAV?$allocator@U?$_Tree_node@U?$pair@$$CBV?$basic_string@DU?$char_traits@D@std@@V?$allocator@D@2@@std@@V?$shared_ptr@VRawImageData@@@2@@std@@PAX@std@@@2@XZ 004237b0 f i CW3_Player.obj
 0001:000227d0       ?_Get_first@?$_Compressed_pair@V?$allocator@U?$_Tree_node@U?$pair@$$CBV?$basic_string@DU?$char_traits@D@std@@V?$allocator@D@2@@std@@V?$shared_ptr@VRawImageData@@@2@@std@@PAX@std@@@std@@V?$_Tree_val@U?$_Tree_simple_types@U?$pair@$$CBV?$basic_string@DU?$char_traits@D@std@@V?$allocator@D@2@@std@@V?$shared_ptr@VRawImageData@@@2@@std@@@std@@@2@$00@std@@QBEABV?$allocator@U?$_Tree_node@U?$pair@$$CBV?$basic_string@DU?$char_traits@D@std@@V?$allocator@D@2@@std@@V?$shared_ptr@VRawImageData@@@2@@std@@PAX@std@@@2@XZ 004237d0 f i CW3_Player.obj
 0001:000227f0       ?_Get_first@?$_Compressed_pair@V?$allocator@U?$_Tree_node@U?$pair@$$CBV?$basic_string@DU?$char_traits@D@std@@V?$allocator@D@2@@std@@V?$weak_ptr@VRawImageData@@@2@@std@@PAX@std@@@std@@V?$_Tree_val@U?$_Tree_simple_types@U?$pair@$$CBV?$basic_string@DU?$char_traits@D@std@@V?$allocator@D@2@@std@@V?$weak_ptr@VRawImageData@@@2@@std@@@std@@@2@$00@std@@QAEAAV?$allocator@U?$_Tree_node@U?$pair@$$CBV?$basic_string@DU?$char_traits@D@std@@V?$allocator@D@2@@std@@V?$weak_ptr@VRawImageData@@@2@@std@@PAX@std@@@2@XZ 004237f0 f i CW3_Player.obj
 0001:00022810       ?_Get_first@?$_Compressed_pair@V?$allocator@U?$_Tree_node@U?$pair@$$CBV?$basic_string@DU?$char_traits@D@std@@V?$allocator@D@2@@std@@V?$weak_ptr@VRawImageData@@@2@@std@@PAX@std@@@std@@V?$_Tree_val@U?$_Tree_simple_types@U?$pair@$$CBV?$basic_string@DU?$char_traits@D@std@@V?$allocator@D@2@@std@@V?$weak_ptr@VRawImageData@@@2@@std@@@std@@@2@$00@std@@QBEABV?$allocator@U?$_Tree_node@U?$pair@$$CBV?$basic_string@DU?$char_traits@D@std@@V?$allocator@D@2@@std@@V?$weak_ptr@VRawImageData@@@2@@std@@PAX@std@@@2@XZ 00423810 f i CW3_Player.obj
 0001:00022830       ?_Get_first@?$_Compressed_pair@V?$allocator@U?$pair@VSimpleImage@@H@std@@@std@@V?$_Vector_val@U?$_Simple_types@U?$pair@VSimpleImage@@H@std@@@std@@@2@$00@std@@QAEAAV?$allocator@U?$pair@VSimpleImage@@H@std@@@2@XZ 00423830 f i CW3_Player.obj
 0001:00022850       ?_Get_first@?$_Compressed_pair@V?$allocator@U?$pair@VSimpleImage@@H@std@@@std@@V?$_Vector_val@U?$_Simple_types@U?$pair@VSimpleImage@@H@std@@@std@@@2@$00@std@@QBEABV?$allocator@U?$pair@VSimpleImage@@H@std@@@2@XZ 00423850 f i CW3_Player.obj
 0001:00022870       ?_Get_second@?$_Compressed_pair@U?$less@V?$basic_string@DU?$char_traits@D@std@@V?$allocator@D@2@@std@@@std@@V?$_Compressed_pair@V?$allocator@U?$_Tree_node@U?$pair@$$CBV?$basic_string@DU?$char_traits@D@std@@V?$allocator@D@2@@std@@V?$shared_ptr@VRawImageData@@@2@@std@@PAX@std@@@std@@V?$_Tree_val@U?$_Tree_simple_types@U?$pair@$$CBV?$basic_string@DU?$char_traits@D@std@@V?$allocator@D@2@@std@@V?$shared_ptr@VRawImageData@@@2@@std@@@std@@@2@$00@2@$00@std@@QAEAAV?$_Compressed_pair@V?$allocator@U?$_Tree_node@U?$pair@$$CBV?$basic_string@DU?$char_traits@D@std@@V?$allocator@D@2@@std@@V?$shared_ptr@VRawImageData@@@2@@std@@PAX@std@@@std@@V?$_Tree_val@U?$_Tree_simple_types@U?$pair@$$CBV?$basic_string@DU?$char_traits@D@std@@V?$allocator@D@2@@std@@V?$shared_ptr@VRawImageData@@@2@@std@@@std@@@2@$00@2@XZ 00423870 f i CW3_Player.obj
 0001:00022890       ?_Get_second@?$_Compressed_pair@U?$less@V?$basic_string@DU?$char_traits@D@std@@V?$allocator@D@2@@std@@@std@@V?$_Compressed_pair@V?$allocator@U?$_Tree_node@U?$pair@$$CBV?$basic_string@DU?$char_traits@D@std@@V?$allocator@D@2@@std@@V?$shared_ptr@VRawImageData@@@2@@std@@PAX@std@@@std@@V?$_Tree_val@U?$_Tree_simple_types@U?$pair@$$CBV?$basic_string@DU?$char_traits@D@std@@V?$allocator@D@2@@std@@V?$shared_ptr@VRawImageData@@@2@@std@@@std@@@2@$00@2@$00@std@@QBEABV?$_Compressed_pair@V?$allocator@U?$_Tree_node@U?$pair@$$CBV?$basic_string@DU?$char_traits@D@std@@V?$allocator@D@2@@std@@V?$shared_ptr@VRawImageData@@@2@@std@@PAX@std@@@std@@V?$_Tree_val@U?$_Tree_simple_types@U?$pair@$$CBV?$basic_string@DU?$char_traits@D@std@@V?$allocator@D@2@@std@@V?$shared_ptr@VRawImageData@@@2@@std@@@std@@@2@$00@2@XZ 00423890 f i CW3_Player.obj
 0001:000228b0       ?_Get_second@?$_Compressed_pair@U?$less@V?$basic_string@DU?$char_traits@D@std@@V?$allocator@D@2@@std@@@std@@V?$_Compressed_pair@V?$allocator@U?$_Tree_node@U?$pair@$$CBV?$basic_string@DU?$char_traits@D@std@@V?$allocator@D@2@@std@@V?$weak_ptr@VRawImageData@@@2@@std@@PAX@std@@@std@@V?$_Tree_val@U?$_Tree_simple_types@U?$pair@$$CBV?$basic_string@DU?$char_traits@D@std@@V?$allocator@D@2@@std@@V?$weak_ptr@VRawImageData@@@2@@std@@@std@@@2@$00@2@$00@std@@QAEAAV?$_Compressed_pair@V?$allocator@U?$_Tree_node@U?$pair@$$CBV?$basic_string@DU?$char_traits@D@std@@V?$allocator@D@2@@std@@V?$weak_ptr@VRawImageData@@@2@@std@@PAX@std@@@std@@V?$_Tree_val@U?$_Tree_simple_types@U?$pair@$$CBV?$basic_string@DU?$char_traits@D@std@@V?$allocator@D@2@@std@@V?$weak_ptr@VRawImageData@@@2@@std@@@std@@@2@$00@2@XZ 004238b0 f i CW3_Player.obj
 0001:000228d0       ?_Get_second@?$_Compressed_pair@U?$less@V?$basic_string@DU?$char_traits@D@std@@V?$allocator@D@2@@std@@@std@@V?$_Compressed_pair@V?$allocator@U?$_Tree_node@U?$pair@$$CBV?$basic_string@DU?$char_traits@D@std@@V?$allocator@D@2@@std@@V?$weak_ptr@VRawImageData@@@2@@std@@PAX@std@@@std@@V?$_Tree_val@U?$_Tree_simple_types@U?$pair@$$CBV?$basic_string@DU?$char_traits@D@std@@V?$allocator@D@2@@std@@V?$weak_ptr@VRawImageData@@@2@@std@@@std@@@2@$00@2@$00@std@@QBEABV?$_Compressed_pair@V?$allocator@U?$_Tree_node@U?$pair@$$CBV?$basic_string@DU?$char_traits@D@std@@V?$allocator@D@2@@std@@V?$weak_ptr@VRawImageData@@@2@@std@@PAX@std@@@std@@V?$_Tree_val@U?$_Tree_simple_types@U?$pair@$$CBV?$basic_string@DU?$char_traits@D@std@@V?$allocator@D@2@@std@@V?$weak_ptr@VRawImageData@@@2@@std@@@std@@@2@$00@2@XZ 004238d0 f i CW3_Player.obj
 0001:000228f0       ?_Get_second@?$_Compressed_pair@V?$allocator@U?$_Tree_node@U?$pair@$$CBV?$basic_string@DU?$char_traits@D@std@@V?$allocator@D@2@@std@@V?$shared_ptr@VRawImageData@@@2@@std@@PAX@std@@@std@@V?$_Tree_val@U?$_Tree_simple_types@U?$pair@$$CBV?$basic_string@DU?$char_traits@D@std@@V?$allocator@D@2@@std@@V?$shared_ptr@VRawImageData@@@2@@std@@@std@@@2@$00@std@@QAEAAV?$_Tree_val@U?$_Tree_simple_types@U?$pair@$$CBV?$basic_string@DU?$char_traits@D@std@@V?$allocator@D@2@@std@@V?$shared_ptr@VRawImageData@@@2@@std@@@std@@@2@XZ 004238f0 f i CW3_Player.obj
 0001:00022910       ?_Get_second@?$_Compressed_pair@V?$allocator@U?$_Tree_node@U?$pair@$$CBV?$basic_string@DU?$char_traits@D@std@@V?$allocator@D@2@@std@@V?$shared_ptr@VRawImageData@@@2@@std@@PAX@std@@@std@@V?$_Tree_val@U?$_Tree_simple_types@U?$pair@$$CBV?$basic_string@DU?$char_traits@D@std@@V?$allocator@D@2@@std@@V?$shared_ptr@VRawImageData@@@2@@std@@@std@@@2@$00@std@@QBEABV?$_Tree_val@U?$_Tree_simple_types@U?$pair@$$CBV?$basic_string@DU?$char_traits@D@std@@V?$allocator@D@2@@std@@V?$shared_ptr@VRawImageData@@@2@@std@@@std@@@2@XZ 00423910 f i CW3_Player.obj
 0001:00022930       ?_Get_second@?$_Compressed_pair@V?$allocator@U?$_Tree_node@U?$pair@$$CBV?$basic_string@DU?$char_traits@D@std@@V?$allocator@D@2@@std@@V?$weak_ptr@VRawImageData@@@2@@std@@PAX@std@@@std@@V?$_Tree_val@U?$_Tree_simple_types@U?$pair@$$CBV?$basic_string@DU?$char_traits@D@std@@V?$allocator@D@2@@std@@V?$weak_ptr@VRawImageData@@@2@@std@@@std@@@2@$00@std@@QAEAAV?$_Tree_val@U?$_Tree_simple_types@U?$pair@$$CBV?$basic_string@DU?$char_traits@D@std@@V?$allocator@D@2@@std@@V?$weak_ptr@VRawImageData@@@2@@std@@@std@@@2@XZ 00423930 f i CW3_Player.obj
 0001:00022950       ?_Get_second@?$_Compressed_pair@V?$allocator@U?$_Tree_node@U?$pair@$$CBV?$basic_string@DU?$char_traits@D@std@@V?$allocator@D@2@@std@@V?$weak_ptr@VRawImageData@@@2@@std@@PAX@std@@@std@@V?$_Tree_val@U?$_Tree_simple_types@U?$pair@$$CBV?$basic_string@DU?$char_traits@D@std@@V?$allocator@D@2@@std@@V?$weak_ptr@VRawImageData@@@2@@std@@@std@@@2@$00@std@@QBEABV?$_Tree_val@U?$_Tree_simple_types@U?$pair@$$CBV?$basic_string@DU?$char_traits@D@std@@V?$allocator@D@2@@std@@V?$weak_ptr@VRawImageData@@@2@@std@@@std@@@2@XZ 00423950 f i CW3_Player.obj
 0001:00022970       ?_Get_second@?$_Compressed_pair@V?$allocator@U?$pair@VSimpleImage@@H@std@@@std@@V?$_Vector_val@U?$_Simple_types@U?$pair@VSimpleImage@@H@std@@@std@@@2@$00@std@@QAEAAV?$_Vector_val@U?$_Simple_types@U?$pair@VSimpleImage@@H@std@@@std@@@2@XZ 00423970 f i CW3_Player.obj
 0001:00022990       ?_Get_second@?$_Compressed_pair@V?$allocator@U?$pair@VSimpleImage@@H@std@@@std@@V?$_Vector_val@U?$_Simple_types@U?$pair@VSimpleImage@@H@std@@@std@@@2@$00@std@@QBEABV?$_Vector_val@U?$_Simple_types@U?$pair@VSimpleImage@@H@std@@@std@@@2@XZ 00423990 f i CW3_Player.obj
 0001:000229b0       ?_Getal@?$_Tree_comp_alloc@V?$_Tmap_traits@V?$basic_string@DU?$char_traits@D@std@@V?$allocator@D@2@@std@@V?$shared_ptr@VRawImageData@@@2@U?$less@V?$basic_string@DU?$char_traits@D@std@@V?$allocator@D@2@@std@@@2@V?$allocator@U?$pair@$$CBV?$basic_string@DU?$char_traits@D@std@@V?$allocator@D@2@@std@@V?$shared_ptr@VRawImageData@@@2@@std@@@2@$0A@@std@@@std@@QAEAAV?$allocator@U?$_Tree_node@U?$pair@$$CBV?$basic_string@DU?$char_traits@D@std@@V?$allocator@D@2@@std@@V?$shared_ptr@VRawImageData@@@2@@std@@PAX@std@@@2@XZ 004239b0 f i CW3_Player.obj
 0001:000229d0       ?_Getal@?$_Tree_comp_alloc@V?$_Tmap_traits@V?$basic_string@DU?$char_traits@D@std@@V?$allocator@D@2@@std@@V?$shared_ptr@VRawImageData@@@2@U?$less@V?$basic_string@DU?$char_traits@D@std@@V?$allocator@D@2@@std@@@2@V?$allocator@U?$pair@$$CBV?$basic_string@DU?$char_traits@D@std@@V?$allocator@D@2@@std@@V?$shared_ptr@VRawImageData@@@2@@std@@@2@$0A@@std@@@std@@QBEABV?$allocator@U?$_Tree_node@U?$pair@$$CBV?$basic_string@DU?$char_traits@D@std@@V?$allocator@D@2@@std@@V?$shared_ptr@VRawImageData@@@2@@std@@PAX@std@@@2@XZ 004239d0 f i CW3_Player.obj
 0001:000229f0       ?_Getal@?$_Tree_comp_alloc@V?$_Tmap_traits@V?$basic_string@DU?$char_traits@D@std@@V?$allocator@D@2@@std@@V?$weak_ptr@VRawImageData@@@2@U?$less@V?$basic_string@DU?$char_traits@D@std@@V?$allocator@D@2@@std@@@2@V?$allocator@U?$pair@$$CBV?$basic_string@DU?$char_traits@D@std@@V?$allocator@D@2@@std@@V?$weak_ptr@VRawImageData@@@2@@std@@@2@$0A@@std@@@std@@QAEAAV?$allocator@U?$_Tree_node@U?$pair@$$CBV?$basic_string@DU?$char_traits@D@std@@V?$allocator@D@2@@std@@V?$weak_ptr@VRawImageData@@@2@@std@@PAX@std@@@2@XZ 004239f0 f i CW3_Player.obj
 0001:00022a10       ?_Getal@?$_Tree_comp_alloc@V?$_Tmap_traits@V?$basic_string@DU?$char_traits@D@std@@V?$allocator@D@2@@std@@V?$weak_ptr@VRawImageData@@@2@U?$less@V?$basic_string@DU?$char_traits@D@std@@V?$allocator@D@2@@std@@@2@V?$allocator@U?$pair@$$CBV?$basic_string@DU?$char_traits@D@std@@V?$allocator@D@2@@std@@V?$weak_ptr@VRawImageData@@@2@@std@@@2@$0A@@std@@@std@@QBEABV?$allocator@U?$_Tree_node@U?$pair@$$CBV?$basic_string@DU?$char_traits@D@std@@V?$allocator@D@2@@std@@V?$weak_ptr@VRawImageData@@@2@@std@@PAX@std@@@2@XZ 00423a10 f i CW3_Player.obj
 0001:00022a30       ?_Getal@?$_Vector_alloc@U?$_Vec_base_types@U?$pair@VSimpleImage@@H@std@@V?$allocator@U?$pair@VSimpleImage@@H@std@@@2@@std@@@std@@QAEAAV?$allocator@U?$pair@VSimpleImage@@H@std@@@2@XZ 00423a30 f i CW3_Player.obj
 0001:00022a50       ?_Getal@?$_Vector_alloc@U?$_Vec_base_types@U?$pair@VSimpleImage@@H@std@@V?$allocator@U?$pair@VSimpleImage@@H@std@@@2@@std@@@std@@QBEABV?$allocator@U?$pair@VSimpleImage@@H@std@@@2@XZ 00423a50 f i CW3_Player.obj
 0001:00022a70       ?_Getcomp@?$_Tree_comp_alloc@V?$_Tmap_traits@V?$basic_string@DU?$char_traits@D@std@@V?$allocator@D@2@@std@@V?$shared_ptr@VRawImageData@@@2@U?$less@V?$basic_string@DU?$char_traits@D@std@@V?$allocator@D@2@@std@@@2@V?$allocator@U?$pair@$$CBV?$basic_string@DU?$char_traits@D@std@@V?$allocator@D@2@@std@@V?$shared_ptr@VRawImageData@@@2@@std@@@2@$0A@@std@@@std@@QAEAAU?$less@V?$basic_string@DU?$char_traits@D@std@@V?$allocator@D@2@@std@@@2@XZ 00423a70 f i CW3_Player.obj
 0001:00022a90       ?_Getcomp@?$_Tree_comp_alloc@V?$_Tmap_traits@V?$basic_string@DU?$char_traits@D@std@@V?$allocator@D@2@@std@@V?$weak_ptr@VRawImageData@@@2@U?$less@V?$basic_string@DU?$char_traits@D@std@@V?$allocator@D@2@@std@@@2@V?$allocator@U?$pair@$$CBV?$basic_string@DU?$char_traits@D@std@@V?$allocator@D@2@@std@@V?$weak_ptr@VRawImageData@@@2@@std@@@2@$0A@@std@@@std@@QAEAAU?$less@V?$basic_string@DU?$char_traits@D@std@@V?$allocator@D@2@@std@@@2@XZ 00423a90 f i CW3_Player.obj
 0001:00022ab0       ?_Getcomp@?$_Tree_comp_alloc@V?$_Tmap_traits@V?$basic_string@DU?$char_traits@D@std@@V?$allocator@D@2@@std@@V?$weak_ptr@VRawImageData@@@2@U?$less@V?$basic_string@DU?$char_traits@D@std@@V?$allocator@D@2@@std@@@2@V?$allocator@U?$pair@$$CBV?$basic_string@DU?$char_traits@D@std@@V?$allocator@D@2@@std@@V?$weak_ptr@VRawImageData@@@2@@std@@@2@$0A@@std@@@std@@QBEABU?$less@V?$basic_string@DU?$char_traits@D@std@@V?$allocator@D@2@@std@@@2@XZ 00423ab0 f i CW3_Player.obj
 0001:00022ad0       ?_Getpfirst@?$_Tree_comp_alloc@V?$_Tmap_traits@V?$basic_string@DU?$char_traits@D@std@@V?$allocator@D@2@@std@@V?$shared_ptr@VRawImageData@@@2@U?$less@V?$basic_string@DU?$char_traits@D@std@@V?$allocator@D@2@@std@@@2@V?$allocator@U?$pair@$$CBV?$basic_string@DU?$char_traits@D@std@@V?$allocator@D@2@@std@@V?$shared_ptr@VRawImageData@@@2@@std@@@2@$0A@@std@@@std@@QBEPAPAU_Iterator_base12@2@XZ 00423ad0 f i CW3_Player.obj
 0001:00022af0       ?_Getpfirst@?$_Tree_comp_alloc@V?$_Tmap_traits@V?$basic_string@DU?$char_traits@D@std@@V?$allocator@D@2@@std@@V?$weak_ptr@VRawImageData@@@2@U?$less@V?$basic_string@DU?$char_traits@D@std@@V?$allocator@D@2@@std@@@2@V?$allocator@U?$pair@$$CBV?$basic_string@DU?$char_traits@D@std@@V?$allocator@D@2@@std@@V?$weak_ptr@VRawImageData@@@2@@std@@@2@$0A@@std@@@std@@QBEPAPAU_Iterator_base12@2@XZ 00423af0 f i CW3_Player.obj
 0001:00022b10       ?_Getpfirst@?$_Vector_alloc@U?$_Vec_base_types@U?$pair@VSimpleImage@@H@std@@V?$allocator@U?$pair@VSimpleImage@@H@std@@@2@@std@@@std@@QBEPAPAU_Iterator_base12@2@XZ 00423b10 f i CW3_Player.obj
 0001:00022b30       ?_Has_unused_capacity@?$vector@U?$pair@VSimpleImage@@H@std@@V?$allocator@U?$pair@VSimpleImage@@H@std@@@2@@std@@ABE_NXZ 00423b30 f i CW3_Player.obj
 0001:00022b80       ?_Incref@_Ref_count_base@std@@QAEXXZ 00423b80 f i CW3_Player.obj
 0001:00022ba0       ?_Incref_nz@_Ref_count_base@std@@QAE_NXZ 00423ba0 f i CW3_Player.obj
 0001:00022bf0       ?_Incwref@_Ref_count_base@std@@QAEXXZ 00423bf0 f i CW3_Player.obj
 0001:00022c10       ?_Key@?$_Tree@V?$_Tmap_traits@V?$basic_string@DU?$char_traits@D@std@@V?$allocator@D@2@@std@@V?$shared_ptr@VRawImageData@@@2@U?$less@V?$basic_string@DU?$char_traits@D@std@@V?$allocator@D@2@@std@@@2@V?$allocator@U?$pair@$$CBV?$basic_string@DU?$char_traits@D@std@@V?$allocator@D@2@@std@@V?$shared_ptr@VRawImageData@@@2@@std@@@2@$0A@@std@@@std@@IBEABV?$basic_string@DU?$char_traits@D@std@@V?$allocator@D@2@@2@PAU?$_Tree_node@U?$pair@$$CBV?$basic_string@DU?$char_traits@D@std@@V?$allocator@D@2@@std@@V?$shared_ptr@VRawImageData@@@2@@std@@PAX@2@@Z 00423c10 f i CW3_Player.obj
 0001:00022c40       ?_Key@?$_Tree@V?$_Tmap_traits@V?$basic_string@DU?$char_traits@D@std@@V?$allocator@D@2@@std@@V?$weak_ptr@VRawImageData@@@2@U?$less@V?$basic_string@DU?$char_traits@D@std@@V?$allocator@D@2@@std@@@2@V?$allocator@U?$pair@$$CBV?$basic_string@DU?$char_traits@D@std@@V?$allocator@D@2@@std@@V?$weak_ptr@VRawImageData@@@2@@std@@@2@$0A@@std@@@std@@IBEABV?$basic_string@DU?$char_traits@D@std@@V?$allocator@D@2@@2@PAU?$_Tree_node@U?$pair@$$CBV?$basic_string@DU?$char_traits@D@std@@V?$allocator@D@2@@std@@V?$weak_ptr@VRawImageData@@@2@@std@@PAX@2@@Z 00423c40 f i CW3_Player.obj
 0001:00022c70       ?_Kfn@?$_Tree@V?$_Tmap_traits@V?$basic_string@DU?$char_traits@D@std@@V?$allocator@D@2@@std@@V?$shared_ptr@VRawImageData@@@2@U?$less@V?$basic_string@DU?$char_traits@D@std@@V?$allocator@D@2@@std@@@2@V?$allocator@U?$pair@$$CBV?$basic_string@DU?$char_traits@D@std@@V?$allocator@D@2@@std@@V?$shared_ptr@VRawImageData@@@2@@std@@@2@$0A@@std@@@std@@IBEABV?$basic_string@DU?$char_traits@D@std@@V?$allocator@D@2@@2@ABU?$pair@$$CBV?$basic_string@DU?$char_traits@D@std@@V?$allocator@D@2@@std@@V?$shared_ptr@VRawImageData@@@2@@2@@Z 00423c70 f i CW3_Player.obj
 0001:00022c90       ?_Kfn@?$_Tree@V?$_Tmap_traits@V?$basic_string@DU?$char_traits@D@std@@V?$allocator@D@2@@std@@V?$weak_ptr@VRawImageData@@@2@U?$less@V?$basic_string@DU?$char_traits@D@std@@V?$allocator@D@2@@std@@@2@V?$allocator@U?$pair@$$CBV?$basic_string@DU?$char_traits@D@std@@V?$allocator@D@2@@std@@V?$weak_ptr@VRawImageData@@@2@@std@@@2@$0A@@std@@@std@@IBEABV?$basic_string@DU?$char_traits@D@std@@V?$allocator@D@2@@2@ABU?$pair@$$CBV?$basic_string@DU?$char_traits@D@std@@V?$allocator@D@2@@std@@V?$weak_ptr@VRawImageData@@@2@@2@@Z 00423c90 f i CW3_Player.obj
 0001:00022cb0       ?_Lmost@?$_Tree_val@U?$_Tree_simple_types@U?$pair@$$CBV?$basic_string@DU?$char_traits@D@std@@V?$allocator@D@2@@std@@V?$shared_ptr@VRawImageData@@@2@@std@@@std@@@std@@QBEAAPAU?$_Tree_node@U?$pair@$$CBV?$basic_string@DU?$char_traits@D@std@@V?$allocator@D@2@@std@@V?$shared_ptr@VRawImageData@@@2@@std@@PAX@2@XZ 00423cb0 f i CW3_Player.obj
 0001:00022cd0       ?_Lmost@?$_Tree_val@U?$_Tree_simple_types@U?$pair@$$CBV?$basic_string@DU?$char_traits@D@std@@V?$allocator@D@2@@std@@V?$weak_ptr@VRawImageData@@@2@@std@@@std@@@std@@QBEAAPAU?$_Tree_node@U?$pair@$$CBV?$basic_string@DU?$char_traits@D@std@@V?$allocator@D@2@@std@@V?$weak_ptr@VRawImageData@@@2@@std@@PAX@2@XZ 00423cd0 f i CW3_Player.obj
 0001:00022cf0       ?_Lrotate@?$_Tree_val@U?$_Tree_simple_types@U?$pair@$$CBV?$basic_string@DU?$char_traits@D@std@@V?$allocator@D@2@@std@@V?$shared_ptr@VRawImageData@@@2@@std@@@std@@@std@@QAEXPAU?$_Tree_node@U?$pair@$$CBV?$basic_string@DU?$char_traits@D@std@@V?$allocator@D@2@@std@@V?$shared_ptr@VRawImageData@@@2@@std@@PAX@2@@Z 00423cf0 f i CW3_Player.obj
 0001:00022db0       ?_Lrotate@?$_Tree_val@U?$_Tree_simple_types@U?$pair@$$CBV?$basic_string@DU?$char_traits@D@std@@V?$allocator@D@2@@std@@V?$weak_ptr@VRawImageData@@@2@@std@@@std@@@std@@QAEXPAU?$_Tree_node@U?$pair@$$CBV?$basic_string@DU?$char_traits@D@std@@V?$allocator@D@2@@std@@V?$weak_ptr@VRawImageData@@@2@@std@@PAX@2@@Z 00423db0 f i CW3_Player.obj
 0001:00022e70       ?_Max@?$_Tree_val@U?$_Tree_simple_types@U?$pair@$$CBV?$basic_string@DU?$char_traits@D@std@@V?$allocator@D@2@@std@@V?$shared_ptr@VRawImageData@@@2@@std@@@std@@@std@@SAPAU?$_Tree_node@U?$pair@$$CBV?$basic_string@DU?$char_traits@D@std@@V?$allocator@D@2@@std@@V?$shared_ptr@VRawImageData@@@2@@std@@PAX@2@PAU32@@Z 00423e70 f i CW3_Player.obj
 0001:00022ea0       ?_Max@?$_Tree_val@U?$_Tree_simple_types@U?$pair@$$CBV?$basic_string@DU?$char_traits@D@std@@V?$allocator@D@2@@std@@V?$weak_ptr@VRawImageData@@@2@@std@@@std@@@std@@SAPAU?$_Tree_node@U?$pair@$$CBV?$basic_string@DU?$char_traits@D@std@@V?$allocator@D@2@@std@@V?$weak_ptr@VRawImageData@@@2@@std@@PAX@2@PAU32@@Z 00423ea0 f i CW3_Player.obj
 0001:00022ed0       ?_Min@?$_Tree_val@U?$_Tree_simple_types@U?$pair@$$CBV?$basic_string@DU?$char_traits@D@std@@V?$allocator@D@2@@std@@V?$shared_ptr@VRawImageData@@@2@@std@@@std@@@std@@SAPAU?$_Tree_node@U?$pair@$$CBV?$basic_string@DU?$char_traits@D@std@@V?$allocator@D@2@@std@@V?$shared_ptr@VRawImageData@@@2@@std@@PAX@2@PAU32@@Z 00423ed0 f i CW3_Player.obj
 0001:00022f00       ?_Min@?$_Tree_val@U?$_Tree_simple_types@U?$pair@$$CBV?$basic_string@DU?$char_traits@D@std@@V?$allocator@D@2@@std@@V?$weak_ptr@VRawImageData@@@2@@std@@@std@@@std@@SAPAU?$_Tree_node@U?$pair@$$CBV?$basic_string@DU?$char_traits@D@std@@V?$allocator@D@2@@std@@V?$weak_ptr@VRawImageData@@@2@@std@@PAX@2@PAU32@@Z 00423f00 f i CW3_Player.obj
 0001:00022f30       ?_Myend@?$_Vector_alloc@U?$_Vec_base_types@U?$pair@VSimpleImage@@H@std@@V?$allocator@U?$pair@VSimpleImage@@H@std@@@2@@std@@@std@@QAEAAPAU?$pair@VSimpleImage@@H@2@XZ 00423f30 f i CW3_Player.obj
 0001:00022f50       ?_Myend@?$_Vector_alloc@U?$_Vec_base_types@U?$pair@VSimpleImage@@H@std@@V?$allocator@U?$pair@VSimpleImage@@H@std@@@2@@std@@@std@@QBEABQAU?$pair@VSimpleImage@@H@2@XZ 00423f50 f i CW3_Player.obj
 0001:00022f70       ?_Myfirst@?$_Vector_alloc@U?$_Vec_base_types@U?$pair@VSimpleImage@@H@std@@V?$allocator@U?$pair@VSimpleImage@@H@std@@@2@@std@@@std@@QAEAAPAU?$pair@VSimpleImage@@H@2@XZ 00423f70 f i CW3_Player.obj
 0001:00022f90       ?_Myfirst@?$_Vector_alloc@U?$_Vec_base_types@U?$pair@VSimpleImage@@H@std@@V?$allocator@U?$pair@VSimpleImage@@H@std@@@2@@std@@@std@@QBEABQAU?$pair@VSimpleImage@@H@2@XZ 00423f90 f i CW3_Player.obj
 0001:00022fb0       ?_Mylast@?$_Vector_alloc@U?$_Vec_base_types@U?$pair@VSimpleImage@@H@std@@V?$allocator@U?$pair@VSimpleImage@@H@std@@@2@@std@@@std@@QAEAAPAU?$pair@VSimpleImage@@H@2@XZ 00423fb0 f i CW3_Player.obj
 0001:00022fd0       ?_Mylast@?$_Vector_alloc@U?$_Vec_base_types@U?$pair@VSimpleImage@@H@std@@V?$allocator@U?$pair@VSimpleImage@@H@std@@@2@@std@@@std@@QBEABQAU?$pair@VSimpleImage@@H@2@XZ 00423fd0 f i CW3_Player.obj
 0001:00022ff0       ?_Myproxy@?$_Tree_comp_alloc@V?$_Tmap_traits@V?$basic_string@DU?$char_traits@D@std@@V?$allocator@D@2@@std@@V?$shared_ptr@VRawImageData@@@2@U?$less@V?$basic_string@DU?$char_traits@D@std@@V?$allocator@D@2@@std@@@2@V?$allocator@U?$pair@$$CBV?$basic_string@DU?$char_traits@D@std@@V?$allocator@D@2@@std@@V?$shared_ptr@VRawImageData@@@2@@std@@@2@$0A@@std@@@std@@QAEAAPAU_Container_proxy@2@XZ 00423ff0 f i CW3_Player.obj
 0001:00023010       ?_Myproxy@?$_Tree_comp_alloc@V?$_Tmap_traits@V?$basic_string@DU?$char_traits@D@std@@V?$allocator@D@2@@std@@V?$weak_ptr@VRawImageData@@@2@U?$less@V?$basic_string@DU?$char_traits@D@std@@V?$allocator@D@2@@std@@@2@V?$allocator@U?$pair@$$CBV?$basic_string@DU?$char_traits@D@std@@V?$allocator@D@2@@std@@V?$weak_ptr@VRawImageData@@@2@@std@@@2@$0A@@std@@@std@@QAEAAPAU_Container_proxy@2@XZ 00424010 f i CW3_Player.obj
 0001:00023030       ?_Myproxy@?$_Vector_alloc@U?$_Vec_base_types@U?$pair@VSimpleImage@@H@std@@V?$allocator@U?$pair@VSimpleImage@@H@std@@@2@@std@@@std@@QAEAAPAU_Container_proxy@2@XZ 00424030 f i CW3_Player.obj
 0001:00023050       ?_Orphan_all@?$_Tree_comp_alloc@V?$_Tmap_traits@V?$basic_string@DU?$char_traits@D@std@@V?$allocator@D@2@@std@@V?$shared_ptr@VRawImageData@@@2@U?$less@V?$basic_string@DU?$char_traits@D@std@@V?$allocator@D@2@@std@@@2@V?$allocator@U?$pair@$$CBV?$basic_string@DU?$char_traits@D@std@@V?$allocator@D@2@@std@@V?$shared_ptr@VRawImageData@@@2@@std@@@2@$0A@@std@@@std@@QAEXXZ 00424050 f i CW3_Player.obj
 0001:00023070       ?_Orphan_all@?$_Tree_comp_alloc@V?$_Tmap_traits@V?$basic_string@DU?$char_traits@D@std@@V?$allocator@D@2@@std@@V?$weak_ptr@VRawImageData@@@2@U?$less@V?$basic_string@DU?$char_traits@D@std@@V?$allocator@D@2@@std@@@2@V?$allocator@U?$pair@$$CBV?$basic_string@DU?$char_traits@D@std@@V?$allocator@D@2@@std@@V?$weak_ptr@VRawImageData@@@2@@std@@@2@$0A@@std@@@std@@QAEXXZ 00424070 f i CW3_Player.obj
 0001:00023090       ?_Orphan_all@?$_Vector_alloc@U?$_Vec_base_types@U?$pair@VSimpleImage@@H@std@@V?$allocator@U?$pair@VSimpleImage@@H@std@@@2@@std@@@std@@QAEXXZ 00424090 f i CW3_Player.obj
 0001:000230b0       ?_Orphan_ptr@?$_Tree@V?$_Tmap_traits@V?$basic_string@DU?$char_traits@D@std@@V?$allocator@D@2@@std@@V?$shared_ptr@VRawImageData@@@2@U?$less@V?$basic_string@DU?$char_traits@D@std@@V?$allocator@D@2@@std@@@2@V?$allocator@U?$pair@$$CBV?$basic_string@DU?$char_traits@D@std@@V?$allocator@D@2@@std@@V?$shared_ptr@VRawImageData@@@2@@std@@@2@$0A@@std@@@std@@IAEXPAU?$_Tree_node@U?$pair@$$CBV?$basic_string@DU?$char_traits@D@std@@V?$allocator@D@2@@std@@V?$shared_ptr@VRawImageData@@@2@@std@@PAX@2@@Z 004240b0 f i CW3_Player.obj
 0001:000231b0       ?_Orphan_ptr@?$_Tree@V?$_Tmap_traits@V?$basic_string@DU?$char_traits@D@std@@V?$allocator@D@2@@std@@V?$weak_ptr@VRawImageData@@@2@U?$less@V?$basic_string@DU?$char_traits@D@std@@V?$allocator@D@2@@std@@@2@V?$allocator@U?$pair@$$CBV?$basic_string@DU?$char_traits@D@std@@V?$allocator@D@2@@std@@V?$weak_ptr@VRawImageData@@@2@@std@@@2@$0A@@std@@@std@@IAEXPAU?$_Tree_node@U?$pair@$$CBV?$basic_string@DU?$char_traits@D@std@@V?$allocator@D@2@@std@@V?$weak_ptr@VRawImageData@@@2@@std@@PAX@2@@Z 004241b0 f i CW3_Player.obj
 0001:000232b0       ?_Orphan_range@?$vector@U?$pair@VSimpleImage@@H@std@@V?$allocator@U?$pair@VSimpleImage@@H@std@@@2@@std@@ABEXPAU?$pair@VSimpleImage@@H@2@0@Z 004242b0 f i CW3_Player.obj
 0001:000233a0       ?_Release@?$_Uninitialized_backout_al@PAU?$pair@VSimpleImage@@H@std@@V?$allocator@U?$pair@VSimpleImage@@H@std@@@2@@std@@QAEPAU?$pair@VSimpleImage@@H@2@XZ 004243a0 f i CW3_Player.obj
 0001:000233d0       ?_Rmost@?$_Tree_val@U?$_Tree_simple_types@U?$pair@$$CBV?$basic_string@DU?$char_traits@D@std@@V?$allocator@D@2@@std@@V?$shared_ptr@VRawImageData@@@2@@std@@@std@@@std@@QBEAAPAU?$_Tree_node@U?$pair@$$CBV?$basic_string@DU?$char_traits@D@std@@V?$allocator@D@2@@std@@V?$shared_ptr@VRawImageData@@@2@@std@@PAX@2@XZ 004243d0 f i CW3_Player.obj
 0001:000233f0       ?_Rmost@?$_Tree_val@U?$_Tree_simple_types@U?$pair@$$CBV?$basic_string@DU?$char_traits@D@std@@V?$allocator@D@2@@std@@V?$weak_ptr@VRawImageData@@@2@@std@@@std@@@std@@QBEAAPAU?$_Tree_node@U?$pair@$$CBV?$basic_string@DU?$char_traits@D@std@@V?$allocator@D@2@@std@@V?$weak_ptr@VRawImageData@@@2@@std@@PAX@2@XZ 004243f0 f i CW3_Player.obj
 0001:00023410       ?_Root@?$_Tree_val@U?$_Tree_simple_types@U?$pair@$$CBV?$basic_string@DU?$char_traits@D@std@@V?$allocator@D@2@@std@@V?$shared_ptr@VRawImageData@@@2@@std@@@std@@@std@@QBEAAPAU?$_Tree_node@U?$pair@$$CBV?$basic_string@DU?$char_traits@D@std@@V?$allocator@D@2@@std@@V?$shared_ptr@VRawImageData@@@2@@std@@PAX@2@XZ 00424410 f i CW3_Player.obj
 0001:00023430       ?_Root@?$_Tree_val@U?$_Tree_simple_types@U?$pair@$$CBV?$basic_string@DU?$char_traits@D@std@@V?$allocator@D@2@@std@@V?$weak_ptr@VRawImageData@@@2@@std@@@std@@@std@@QBEAAPAU?$_Tree_node@U?$pair@$$CBV?$basic_string@DU?$char_traits@D@std@@V?$allocator@D@2@@std@@V?$weak_ptr@VRawImageData@@@2@@std@@PAX@2@XZ 00424430 f i CW3_Player.obj
 0001:00023450       ?_Rrotate@?$_Tree_val@U?$_Tree_simple_types@U?$pair@$$CBV?$basic_string@DU?$char_traits@D@std@@V?$allocator@D@2@@std@@V?$shared_ptr@VRawImageData@@@2@@std@@@std@@@std@@QAEXPAU?$_Tree_node@U?$pair@$$CBV?$basic_string@DU?$char_traits@D@std@@V?$allocator@D@2@@std@@V?$shared_ptr@VRawImageData@@@2@@std@@PAX@2@@Z 00424450 f i CW3_Player.obj
 0001:00023520       ?_Rrotate@?$_Tree_val@U?$_Tree_simple_types@U?$pair@$$CBV?$basic_string@DU?$char_traits@D@std@@V?$allocator@D@2@@std@@V?$weak_ptr@VRawImageData@@@2@@std@@@std@@@std@@QAEXPAU?$_Tree_node@U?$pair@$$CBV?$basic_string@DU?$char_traits@D@std@@V?$allocator@D@2@@std@@V?$weak_ptr@VRawImageData@@@2@@std@@PAX@2@@Z 00424520 f i CW3_Player.obj
 0001:000235f0       ?_Set_ptr_rep@?$_Ptr_base@VRawImageData@@@std@@IAEXPAVRawImageData@@PAV_Ref_count_base@2@@Z 004245f0 f i CW3_Player.obj
 0001:00023620       ?_Swap@?$_Ptr_base@VRawImageData@@@std@@IAEXAAV12@@Z 00424620 f i CW3_Player.obj
 0001:00023660       ?_Tidy@?$_Tree@V?$_Tmap_traits@V?$basic_string@DU?$char_traits@D@std@@V?$allocator@D@2@@std@@V?$shared_ptr@VRawImageData@@@2@U?$less@V?$basic_string@DU?$char_traits@D@std@@V?$allocator@D@2@@std@@@2@V?$allocator@U?$pair@$$CBV?$basic_string@DU?$char_traits@D@std@@V?$allocator@D@2@@std@@V?$shared_ptr@VRawImageData@@@2@@std@@@2@$0A@@std@@@std@@IAEXXZ 00424660 f i CW3_Player.obj
 0001:00023760       ?_Tidy@?$_Tree@V?$_Tmap_traits@V?$basic_string@DU?$char_traits@D@std@@V?$allocator@D@2@@std@@V?$weak_ptr@VRawImageData@@@2@U?$less@V?$basic_string@DU?$char_traits@D@std@@V?$allocator@D@2@@std@@@2@V?$allocator@U?$pair@$$CBV?$basic_string@DU?$char_traits@D@std@@V?$allocator@D@2@@std@@V?$weak_ptr@VRawImageData@@@2@@std@@@2@$0A@@std@@@std@@IAEXXZ 00424760 f i CW3_Player.obj
 0001:00023860       ?_Tidy@?$vector@U?$pair@VSimpleImage@@H@std@@V?$allocator@U?$pair@VSimpleImage@@H@std@@@2@@std@@AAEXXZ 00424860 f i CW3_Player.obj
 0001:00023910       ?_Umove@?$vector@U?$pair@VSimpleImage@@H@std@@V?$allocator@U?$pair@VSimpleImage@@H@std@@@2@@std@@AAEPAU?$pair@VSimpleImage@@H@2@PAU32@00@Z 00424910 f i CW3_Player.obj
 0001:00023950       ?_Umove_if_noexcept1@?$vector@U?$pair@VSimpleImage@@H@std@@V?$allocator@U?$pair@VSimpleImage@@H@std@@@2@@std@@AAEXPAU?$pair@VSimpleImage@@H@2@00U?$integral_constant@_N$00@2@@Z 00424950 f i CW3_Player.obj
 0001:00023990       ?_Umove_if_noexcept@?$vector@U?$pair@VSimpleImage@@H@std@@V?$allocator@U?$pair@VSimpleImage@@H@std@@@2@@std@@AAEXPAU?$pair@VSimpleImage@@H@2@00@Z 00424990 f i CW3_Player.obj
 0001:000239d0       ?_Use_count@_Ref_count_base@std@@QBEJXZ 004249d0 f i CW3_Player.obj
 0001:00023a30       ?_Xlength@?$vector@U?$pair@VSimpleImage@@H@std@@V?$allocator@U?$pair@VSimpleImage@@H@std@@@2@@std@@CAXXZ 00424a30 f i CW3_Player.obj
 0001:00023a50       ?_Xrange@?$vector@U?$pair@VSimpleImage@@H@std@@V?$allocator@U?$pair@VSimpleImage@@H@std@@@2@@std@@CAXXZ 00424a50 f i CW3_Player.obj
 0001:00023a70       ?allocate@?$allocator@U?$_Tree_node@U?$pair@$$CBV?$basic_string@DU?$char_traits@D@std@@V?$allocator@D@2@@std@@V?$shared_ptr@VRawImageData@@@2@@std@@PAX@std@@@std@@QAEPAU?$_Tree_node@U?$pair@$$CBV?$basic_string@DU?$char_traits@D@std@@V?$allocator@D@2@@std@@V?$shared_ptr@VRawImageData@@@2@@std@@PAX@2@I@Z 00424a70 f i CW3_Player.obj
 0001:00023aa0       ?allocate@?$allocator@U?$_Tree_node@U?$pair@$$CBV?$basic_string@DU?$char_traits@D@std@@V?$allocator@D@2@@std@@V?$weak_ptr@VRawImageData@@@2@@std@@PAX@std@@@std@@QAEPAU?$_Tree_node@U?$pair@$$CBV?$basic_string@DU?$char_traits@D@std@@V?$allocator@D@2@@std@@V?$weak_ptr@VRawImageData@@@2@@std@@PAX@2@I@Z 00424aa0 f i CW3_Player.obj
 0001:00023ad0       ?allocate@?$allocator@U?$pair@VSimpleImage@@H@std@@@std@@QAEPAU?$pair@VSimpleImage@@H@2@I@Z 00424ad0 f i CW3_Player.obj
 0001:00023b00       ?assign@?$basic_string@DU?$char_traits@D@std@@V?$allocator@D@2@@std@@QAEAAV12@QBD@Z 00424b00 f i CW3_Player.obj
 0001:00023b40       ?at@?$vector@U?$pair@VSimpleImage@@H@std@@V?$allocator@U?$pair@VSimpleImage@@H@std@@@2@@std@@QAEAAU?$pair@VSimpleImage@@H@2@I@Z 00424b40 f i CW3_Player.obj
 0001:00023b80       ?begin@?$_Tree@V?$_Tmap_traits@V?$basic_string@DU?$char_traits@D@std@@V?$allocator@D@2@@std@@V?$shared_ptr@VRawImageData@@@2@U?$less@V?$basic_string@DU?$char_traits@D@std@@V?$allocator@D@2@@std@@@2@V?$allocator@U?$pair@$$CBV?$basic_string@DU?$char_traits@D@std@@V?$allocator@D@2@@std@@V?$shared_ptr@VRawImageData@@@2@@std@@@2@$0A@@std@@@std@@QAE?AV?$_Tree_iterator@V?$_Tree_val@U?$_Tree_simple_types@U?$pair@$$CBV?$basic_string@DU?$char_traits@D@std@@V?$allocator@D@2@@std@@V?$shared_ptr@VRawImageData@@@2@@std@@@std@@@std@@@2@XZ 00424b80 f i CW3_Player.obj
 0001:00023c00       ?begin@?$_Tree@V?$_Tmap_traits@V?$basic_string@DU?$char_traits@D@std@@V?$allocator@D@2@@std@@V?$weak_ptr@VRawImageData@@@2@U?$less@V?$basic_string@DU?$char_traits@D@std@@V?$allocator@D@2@@std@@@2@V?$allocator@U?$pair@$$CBV?$basic_string@DU?$char_traits@D@std@@V?$allocator@D@2@@std@@V?$weak_ptr@VRawImageData@@@2@@std@@@2@$0A@@std@@@std@@QAE?AV?$_Tree_iterator@V?$_Tree_val@U?$_Tree_simple_types@U?$pair@$$CBV?$basic_string@DU?$char_traits@D@std@@V?$allocator@D@2@@std@@V?$weak_ptr@VRawImageData@@@2@@std@@@std@@@std@@@2@XZ 00424c00 f i CW3_Player.obj
 0001:00023c80       ?capacity@?$vector@U?$pair@VSimpleImage@@H@std@@V?$allocator@U?$pair@VSimpleImage@@H@std@@@2@@std@@QBEIXZ 00424c80 f i CW3_Player.obj
 0001:00023cc0       ?checkDeath@CW3_LivingGameObject@@QAE_NXZ 00424cc0 f i CW3_Player.obj
 0001:00023d00       ?clear@?$_Tree@V?$_Tmap_traits@V?$basic_string@DU?$char_traits@D@std@@V?$allocator@D@2@@std@@V?$shared_ptr@VRawImageData@@@2@U?$less@V?$basic_string@DU?$char_traits@D@std@@V?$allocator@D@2@@std@@@2@V?$allocator@U?$pair@$$CBV?$basic_string@DU?$char_traits@D@std@@V?$allocator@D@2@@std@@V?$shared_ptr@VRawImageData@@@2@@std@@@2@$0A@@std@@@std@@QAEXXZ 00424d00 f i CW3_Player.obj
 0001:00023dc0       ?clear@?$_Tree@V?$_Tmap_traits@V?$basic_string@DU?$char_traits@D@std@@V?$allocator@D@2@@std@@V?$weak_ptr@VRawImageData@@@2@U?$less@V?$basic_string@DU?$char_traits@D@std@@V?$allocator@D@2@@std@@@2@V?$allocator@U?$pair@$$CBV?$basic_string@DU?$char_traits@D@std@@V?$allocator@D@2@@std@@V?$weak_ptr@VRawImageData@@@2@@std@@@2@$0A@@std@@@std@@QAEXXZ 00424dc0 f i CW3_Player.obj
 0001:00023e80       ?clear@?$vector@U?$pair@VSimpleImage@@H@std@@V?$allocator@U?$pair@VSimpleImage@@H@std@@@2@@std@@QAEXXZ 00424e80 f i CW3_Player.obj
 0001:00023f10       ?compare@?$basic_string@DU?$char_traits@D@std@@V?$allocator@D@2@@std@@QBEHABV12@@Z 00424f10 f i CW3_Player.obj
 0001:00023fb0       ?compare@?$char_traits@D@std@@SAHQBD0I@Z 00424fb0 f i CW3_Player.obj
 0001:00023fd0       ?deallocate@?$_Default_allocator_traits@V?$allocator@U?$_Tree_node@U?$pair@$$CBV?$basic_string@DU?$char_traits@D@std@@V?$allocator@D@2@@std@@V?$shared_ptr@VRawImageData@@@2@@std@@PAX@std@@@std@@@std@@SAXAAV?$allocator@U?$_Tree_node@U?$pair@$$CBV?$basic_string@DU?$char_traits@D@std@@V?$allocator@D@2@@std@@V?$shared_ptr@VRawImageData@@@2@@std@@PAX@std@@@2@QAU?$_Tree_node@U?$pair@$$CBV?$basic_string@DU?$char_traits@D@std@@V?$allocator@D@2@@std@@V?$shared_ptr@VRawImageData@@@2@@std@@PAX@2@I@Z 00424fd0 f i CW3_Player.obj
 0001:00023ff0       ?deallocate@?$_Default_allocator_traits@V?$allocator@U?$_Tree_node@U?$pair@$$CBV?$basic_string@DU?$char_traits@D@std@@V?$allocator@D@2@@std@@V?$weak_ptr@VRawImageData@@@2@@std@@PAX@std@@@std@@@std@@SAXAAV?$allocator@U?$_Tree_node@U?$pair@$$CBV?$basic_string@DU?$char_traits@D@std@@V?$allocator@D@2@@std@@V?$weak_ptr@VRawImageData@@@2@@std@@PAX@std@@@2@QAU?$_Tree_node@U?$pair@$$CBV?$basic_string@DU?$char_traits@D@std@@V?$allocator@D@2@@std@@V?$weak_ptr@VRawImageData@@@2@@std@@PAX@2@I@Z 00424ff0 f i CW3_Player.obj
 0001:00024010       ?deallocate@?$allocator@U?$_Tree_node@U?$pair@$$CBV?$basic_string@DU?$char_traits@D@std@@V?$allocator@D@2@@std@@V?$shared_ptr@VRawImageData@@@2@@std@@PAX@std@@@std@@QAEXQAU?$_Tree_node@U?$pair@$$CBV?$basic_string@DU?$char_traits@D@std@@V?$allocator@D@2@@std@@V?$shared_ptr@VRawImageData@@@2@@std@@PAX@2@I@Z 00425010 f i CW3_Player.obj
 0001:00024040       ?deallocate@?$allocator@U?$_Tree_node@U?$pair@$$CBV?$basic_string@DU?$char_traits@D@std@@V?$allocator@D@2@@std@@V?$weak_ptr@VRawImageData@@@2@@std@@PAX@std@@@std@@QAEXQAU?$_Tree_node@U?$pair@$$CBV?$basic_string@DU?$char_traits@D@std@@V?$allocator@D@2@@std@@V?$weak_ptr@VRawImageData@@@2@@std@@PAX@2@I@Z 00425040 f i CW3_Player.obj
 0001:00024070       ?deallocate@?$allocator@U?$pair@VSimpleImage@@H@std@@@std@@QAEXQAU?$pair@VSimpleImage@@H@2@I@Z 00425070 f i CW3_Player.obj
 0001:000240a0       ?deleteOnRemoval@DisplayableObject@@UBE_NXZ 004250a0 f i CW3_Player.obj
 0001:000240c0       ?end@?$_Tree@V?$_Tmap_traits@V?$basic_string@DU?$char_traits@D@std@@V?$allocator@D@2@@std@@V?$shared_ptr@VRawImageData@@@2@U?$less@V?$basic_string@DU?$char_traits@D@std@@V?$allocator@D@2@@std@@@2@V?$allocator@U?$pair@$$CBV?$basic_string@DU?$char_traits@D@std@@V?$allocator@D@2@@std@@V?$shared_ptr@VRawImageData@@@2@@std@@@2@$0A@@std@@@std@@QAE?AV?$_Tree_iterator@V?$_Tree_val@U?$_Tree_simple_types@U?$pair@$$CBV?$basic_string@DU?$char_traits@D@std@@V?$allocator@D@2@@std@@V?$shared_ptr@VRawImageData@@@2@@std@@@std@@@std@@@2@XZ 004250c0 f i CW3_Player.obj
 0001:00024140       ?end@?$_Tree@V?$_Tmap_traits@V?$basic_string@DU?$char_traits@D@std@@V?$allocator@D@2@@std@@V?$weak_ptr@VRawImageData@@@2@U?$less@V?$basic_string@DU?$char_traits@D@std@@V?$allocator@D@2@@std@@@2@V?$allocator@U?$pair@$$CBV?$basic_string@DU?$char_traits@D@std@@V?$allocator@D@2@@std@@V?$weak_ptr@VRawImageData@@@2@@std@@@2@$0A@@std@@@std@@QAE?AV?$_Tree_iterator@V?$_Tree_val@U?$_Tree_simple_types@U?$pair@$$CBV?$basic_string@DU?$char_traits@D@std@@V?$allocator@D@2@@std@@V?$weak_ptr@VRawImageData@@@2@@std@@@std@@@std@@@2@XZ 00425140 f i CW3_Player.obj
 0001:000241c0       ?erase@?$_Tree@V?$_Tmap_traits@V?$basic_string@DU?$char_traits@D@std@@V?$allocator@D@2@@std@@V?$shared_ptr@VRawImageData@@@2@U?$less@V?$basic_string@DU?$char_traits@D@std@@V?$allocator@D@2@@std@@@2@V?$allocator@U?$pair@$$CBV?$basic_string@DU?$char_traits@D@std@@V?$allocator@D@2@@std@@V?$shared_ptr@VRawImageData@@@2@@std@@@2@$0A@@std@@@std@@QAE?AV?$_Tree_iterator@V?$_Tree_val@U?$_Tree_simple_types@U?$pair@$$CBV?$basic_string@DU?$char_traits@D@std@@V?$allocator@D@2@@std@@V?$shared_ptr@VRawImageData@@@2@@std@@@std@@@std@@@2@V?$_Tree_const_iterator@V?$_Tree_val@U?$_Tree_simple_types@U?$pair@$$CBV?$basic_string@DU?$char_traits@D@std@@V?$allocator@D@2@@std@@V?$shared_ptr@VRawImageData@@@2@@std@@@std@@@std@@@2@0@Z 004251c0 f i CW3_Player.obj
 0001:00024430       ?erase@?$_Tree@V?$_Tmap_traits@V?$basic_string@DU?$char_traits@D@std@@V?$allocator@D@2@@std@@V?$shared_ptr@VRawImageData@@@2@U?$less@V?$basic_string@DU?$char_traits@D@std@@V?$allocator@D@2@@std@@@2@V?$allocator@U?$pair@$$CBV?$basic_string@DU?$char_traits@D@std@@V?$allocator@D@2@@std@@V?$shared_ptr@VRawImageData@@@2@@std@@@2@$0A@@std@@@std@@QAE?AV?$_Tree_iterator@V?$_Tree_val@U?$_Tree_simple_types@U?$pair@$$CBV?$basic_string@DU?$char_traits@D@std@@V?$allocator@D@2@@std@@V?$shared_ptr@VRawImageData@@@2@@std@@@std@@@std@@@2@V?$_Tree_const_iterator@V?$_Tree_val@U?$_Tree_simple_types@U?$pair@$$CBV?$basic_string@DU?$char_traits@D@std@@V?$allocator@D@2@@std@@V?$shared_ptr@VRawImageData@@@2@@std@@@std@@@std@@@2@@Z 00425430 f i CW3_Player.obj
 0001:00024620       ?erase@?$_Tree@V?$_Tmap_traits@V?$basic_string@DU?$char_traits@D@std@@V?$allocator@D@2@@std@@V?$weak_ptr@VRawImageData@@@2@U?$less@V?$basic_string@DU?$char_traits@D@std@@V?$allocator@D@2@@std@@@2@V?$allocator@U?$pair@$$CBV?$basic_string@DU?$char_traits@D@std@@V?$allocator@D@2@@std@@V?$weak_ptr@VRawImageData@@@2@@std@@@2@$0A@@std@@@std@@QAE?AV?$_Tree_iterator@V?$_Tree_val@U?$_Tree_simple_types@U?$pair@$$CBV?$basic_string@DU?$char_traits@D@std@@V?$allocator@D@2@@std@@V?$weak_ptr@VRawImageData@@@2@@std@@@std@@@std@@@2@V?$_Tree_const_iterator@V?$_Tree_val@U?$_Tree_simple_types@U?$pair@$$CBV?$basic_string@DU?$char_traits@D@std@@V?$allocator@D@2@@std@@V?$weak_ptr@VRawImageData@@@2@@std@@@std@@@std@@@2@0@Z 00425620 f i CW3_Player.obj
 0001:00024890       ?erase@?$_Tree@V?$_Tmap_traits@V?$basic_string@DU?$char_traits@D@std@@V?$allocator@D@2@@std@@V?$weak_ptr@VRawImageData@@@2@U?$less@V?$basic_string@DU?$char_traits@D@std@@V?$allocator@D@2@@std@@@2@V?$allocator@U?$pair@$$CBV?$basic_string@DU?$char_traits@D@std@@V?$allocator@D@2@@std@@V?$weak_ptr@VRawImageData@@@2@@std@@@2@$0A@@std@@@std@@QAE?AV?$_Tree_iterator@V?$_Tree_val@U?$_Tree_simple_types@U?$pair@$$CBV?$basic_string@DU?$char_traits@D@std@@V?$allocator@D@2@@std@@V?$weak_ptr@VRawImageData@@@2@@std@@@std@@@std@@@2@V?$_Tree_const_iterator@V?$_Tree_val@U?$_Tree_simple_types@U?$pair@$$CBV?$basic_string@DU?$char_traits@D@std@@V?$allocator@D@2@@std@@V?$weak_ptr@VRawImageData@@@2@@std@@@std@@@std@@@2@@Z 00425890 f i CW3_Player.obj
 0001:00024a80       ?expired@?$weak_ptr@VRawImageData@@@std@@QBE_NXZ 00425a80 f i CW3_Player.obj
 0001:00024ac0       ?find@?$_Tree@V?$_Tmap_traits@V?$basic_string@DU?$char_traits@D@std@@V?$allocator@D@2@@std@@V?$weak_ptr@VRawImageData@@@2@U?$less@V?$basic_string@DU?$char_traits@D@std@@V?$allocator@D@2@@std@@@2@V?$allocator@U?$pair@$$CBV?$basic_string@DU?$char_traits@D@std@@V?$allocator@D@2@@std@@V?$weak_ptr@VRawImageData@@@2@@std@@@2@$0A@@std@@@std@@QAE?AV?$_Tree_iterator@V?$_Tree_val@U?$_Tree_simple_types@U?$pair@$$CBV?$basic_string@DU?$char_traits@D@std@@V?$allocator@D@2@@std@@V?$weak_ptr@VRawImageData@@@2@@std@@@std@@@std@@@2@ABV?$basic_string@DU?$char_traits@D@std@@V?$allocator@D@2@@2@@Z 00425ac0 f i CW3_Player.obj
 0001:00024c80       ?freeSurface@RawImageData@@QAEXXZ 00425c80 f i CW3_Player.obj
 0001:00024cc0       ?get@?$_Ptr_base@VRawImageData@@@std@@IBEPAVRawImageData@@XZ 00425cc0 f i CW3_Player.obj
 0001:00024ce0       ?get@ImageManager@@SAPAV1@XZ 00425ce0 f i CW3_Player.obj
 0001:00024d90       ?getCurrentFrame@CW3_AnimatedImage@@QAE?AVSimpleImage@@XZ 00425d90 f i CW3_Player.obj
 0001:00024de0       ?getCurrentMouseX@BaseEngine@@QBEHXZ 00425de0 f i CW3_Player.obj
 0001:00024e00       ?getDefaultFont@BaseEngine@@QBEPAVFont@@XZ 00425e00 f i CW3_Player.obj
 0001:00024e20       ?getEngine@DisplayableObject@@QBEPAVBaseEngine@@XZ 00425e20 f i CW3_Player.obj
 0001:00024e40       ?getFont@BaseEngine@@QAEPAVFont@@PBDH@Z 00425e40 f i CW3_Player.obj
 0001:00024e70       ?getForegroundSurface@BaseEngine@@QAEPAVDrawingSurface@@XZ 00425e70 f i CW3_Player.obj
 0001:00024e90       ?getHeight@RawImageData@@QBEHXZ 00425e90 f i CW3_Player.obj
 0001:00024eb0       ?getHeight@SimpleImage@@QBEHXZ 00425eb0 f i CW3_Player.obj
 0001:00024ee0       ?getImage@CW3_BaseGun@@QAEAAVSimpleImage@@XZ 00425ee0 f i CW3_Player.obj
 0001:00024f00       ?getImagePtrbyURL@ImageManager@@QAE?AV?$shared_ptr@VRawImageData@@@std@@V?$basic_string@DU?$char_traits@D@std@@V?$allocator@D@2@@3@_N1@Z 00425f00 f i CW3_Player.obj
 0001:00025360       ?getImagebyURL@ImageManager@@QAE?AVSimpleImage@@V?$basic_string@DU?$char_traits@D@std@@V?$allocator@D@2@@std@@_N1@Z 00426360 f i CW3_Player.obj
 0001:00025430       ?getName@Font@@QAEPBDXZ    00426430 f i CW3_Player.obj
 0001:00025450       ?getRawTime@BaseEngine@@QBEHXZ 00426450 f i CW3_Player.obj
 0001:00025470       ?getTheData@SimpleImage@@QBEABV?$shared_ptr@VRawImageData@@@std@@XZ 00426470 f i CW3_Player.obj
 0001:00025490       ?getTileHeight@TileManager@@QBEHXZ 00426490 f i CW3_Player.obj
 0001:000254b0       ?getTileManager@CW3_Game@@QAEPAVCW3_TileManager@@XZ 004264b0 f i CW3_Player.obj
 0001:000254d0       ?getTileWidth@TileManager@@QBEHXZ 004264d0 f i CW3_Player.obj
 0001:000254f0       ?getWidth@RawImageData@@QBEHXZ 004264f0 f i CW3_Player.obj
 0001:00025510       ?getWidth@SimpleImage@@QBEHXZ 00426510 f i CW3_Player.obj
 0001:00025540       ?getXForRotationAndCrop@RawImageData@@SAHHHHHHH@Z 00426540 f i CW3_Player.obj
 0001:000255b0       ?getYCoordinateToBeSortedBy@CW3_GameObject@@UAEHXZ 004265b0 f i CW3_Player.obj
 0001:000255d0       ?getYForRotationAndCrop@RawImageData@@SAHHHHHHH@Z 004265d0 f i CW3_Player.obj
 0001:00025640       ?hurt@CW3_LivingGameObject@@UAEXH@Z 00426640 f i CW3_Player.obj
 0001:00025690       ?hurt@CW3_Player@@UAEXH@Z  00426690 f i CW3_Player.obj
 0001:000256f0       ?isValidTilePosition@TileManager@@QBE_NHH@Z 004266f0 f i CW3_Player.obj
 0001:00025780       ?isVisible@DisplayableObject@@QBE_NXZ 00426780 f i CW3_Player.obj
 0001:000257a0       ?loadAsNew@ImageManager@@QAE?AV?$shared_ptr@VRawImageData@@@std@@V?$basic_string@DU?$char_traits@D@std@@V?$allocator@D@2@@3@@Z 004267a0 f i CW3_Player.obj
 0001:00025970       ?loadImage@ImageManager@@SA?AVSimpleImage@@V?$basic_string@DU?$char_traits@D@std@@V?$allocator@D@2@@std@@_N@Z 00426970 f i CW3_Player.obj
 0001:00025a30       ?loadImage@RawImageData@@QAE_NV?$basic_string@DU?$char_traits@D@std@@V?$allocator@D@2@@std@@HHHHH_N@Z 00426a30 f i CW3_Player.obj
 0001:00025d40       ?lock@?$weak_ptr@VRawImageData@@@std@@QBE?AV?$shared_ptr@VRawImageData@@@2@XZ 00426d40 f i CW3_Player.obj
 0001:00025dc0       ?lower_bound@?$_Tree@V?$_Tmap_traits@V?$basic_string@DU?$char_traits@D@std@@V?$allocator@D@2@@std@@V?$weak_ptr@VRawImageData@@@2@U?$less@V?$basic_string@DU?$char_traits@D@std@@V?$allocator@D@2@@std@@@2@V?$allocator@U?$pair@$$CBV?$basic_string@DU?$char_traits@D@std@@V?$allocator@D@2@@std@@V?$weak_ptr@VRawImageData@@@2@@std@@@2@$0A@@std@@@std@@QAE?AV?$_Tree_iterator@V?$_Tree_val@U?$_Tree_simple_types@U?$pair@$$CBV?$basic_string@DU?$char_traits@D@std@@V?$allocator@D@2@@std@@V?$weak_ptr@VRawImageData@@@2@@std@@@std@@@std@@@2@ABV?$basic_string@DU?$char_traits@D@std@@V?$allocator@D@2@@2@@Z 00426dc0 f i CW3_Player.obj
 0001:00025e20       ?max_size@?$_Default_allocator_traits@V?$allocator@U?$_Tree_node@U?$pair@$$CBV?$basic_string@DU?$char_traits@D@std@@V?$allocator@D@2@@std@@V?$shared_ptr@VRawImageData@@@2@@std@@PAX@std@@@std@@@std@@SAIABV?$allocator@U?$_Tree_node@U?$pair@$$CBV?$basic_string@DU?$char_traits@D@std@@V?$allocator@D@2@@std@@V?$shared_ptr@VRawImageData@@@2@@std@@PAX@std@@@2@@Z 00426e20 f i CW3_Player.obj
 0001:00025e30       ?max_size@?$_Default_allocator_traits@V?$allocator@U?$_Tree_node@U?$pair@$$CBV?$basic_string@DU?$char_traits@D@std@@V?$allocator@D@2@@std@@V?$weak_ptr@VRawImageData@@@2@@std@@PAX@std@@@std@@@std@@SAIABV?$allocator@U?$_Tree_node@U?$pair@$$CBV?$basic_string@DU?$char_traits@D@std@@V?$allocator@D@2@@std@@V?$weak_ptr@VRawImageData@@@2@@std@@PAX@std@@@2@@Z 00426e30 f i CW3_Player.obj
 0001:00025e40       ?max_size@?$_Default_allocator_traits@V?$allocator@U?$pair@VSimpleImage@@H@std@@@std@@@std@@SAIABV?$allocator@U?$pair@VSimpleImage@@H@std@@@2@@Z 00426e40 f i CW3_Player.obj
 0001:00025e50       ?max_size@?$_Tree@V?$_Tmap_traits@V?$basic_string@DU?$char_traits@D@std@@V?$allocator@D@2@@std@@V?$shared_ptr@VRawImageData@@@2@U?$less@V?$basic_string@DU?$char_traits@D@std@@V?$allocator@D@2@@std@@@2@V?$allocator@U?$pair@$$CBV?$basic_string@DU?$char_traits@D@std@@V?$allocator@D@2@@std@@V?$shared_ptr@VRawImageData@@@2@@std@@@2@$0A@@std@@@std@@QBEIXZ 00426e50 f i CW3_Player.obj
 0001:00025e80       ?max_size@?$_Tree@V?$_Tmap_traits@V?$basic_string@DU?$char_traits@D@std@@V?$allocator@D@2@@std@@V?$weak_ptr@VRawImageData@@@2@U?$less@V?$basic_string@DU?$char_traits@D@std@@V?$allocator@D@2@@std@@@2@V?$allocator@U?$pair@$$CBV?$basic_string@DU?$char_traits@D@std@@V?$allocator@D@2@@std@@V?$weak_ptr@VRawImageData@@@2@@std@@@2@$0A@@std@@@std@@QBEIXZ 00426e80 f i CW3_Player.obj
 0001:00025eb0       ?max_size@?$vector@U?$pair@VSimpleImage@@H@std@@V?$allocator@U?$pair@VSimpleImage@@H@std@@@2@@std@@QBEIXZ 00426eb0 f i CW3_Player.obj
 0001:00025f00       ?pointer_to@?$pointer_traits@PAU?$pair@$$CBV?$basic_string@DU?$char_traits@D@std@@V?$allocator@D@2@@std@@V?$weak_ptr@VRawImageData@@@2@@std@@@std@@SAPAU?$pair@$$CBV?$basic_string@DU?$char_traits@D@std@@V?$allocator@D@2@@std@@V?$weak_ptr@VRawImageData@@@2@@2@AAU32@@Z 00426f00 f i CW3_Player.obj
 0001:00025f20       ?push_back@?$vector@U?$pair@VSimpleImage@@H@std@@V?$allocator@U?$pair@VSimpleImage@@H@std@@@2@@std@@QAEX$$QAU?$pair@VSimpleImage@@H@2@@Z 00426f20 f i CW3_Player.obj
 0001:00025f50       ?renderCurrentFrame@CW3_AnimatedImage@@QAEXPAVCW3_Game@@PAVDrawingSurface@@HHHHHHHH@Z 00426f50 f i CW3_Player.obj
 0001:00026080       ?renderHealthbar@CW3_LivingGameObject@@QAEXXZ 00427080 f i CW3_Player.obj
 0001:00026320       ?resetOptions@ImageManager@@QAEXXZ 00427320 f i CW3_Player.obj
 0001:00026360       ?select_on_container_copy_construction@?$_Default_allocator_traits@V?$allocator@U?$pair@VSimpleImage@@H@std@@@std@@@std@@SA?AV?$allocator@U?$pair@VSimpleImage@@H@std@@@2@ABV32@@Z 00427360 f i CW3_Player.obj
 0001:00026370       ?setOpaque@RawImageData@@QAEXXZ 00427370 f i CW3_Player.obj
 0001:000263e0       ?setPosition@DisplayableObject@@UAEXHH@Z 004273e0 f i CW3_Player.obj
 0001:00026420       ?setStateGameOver@CW3_Game@@QAEXXZ 00427420 f i CW3_Player.obj
 0001:00026460       ?setTransparencyColour@SimpleImage@@QAEXH@Z 00427460 f i CW3_Player.obj
 0001:000264d0       ?setTransparentColour@RawImageData@@QAEXI@Z 004274d0 f i CW3_Player.obj
 0001:000265f0       ?size@?$vector@U?$pair@VSimpleImage@@H@std@@V?$allocator@U?$pair@VSimpleImage@@H@std@@@2@@std@@QBEIXZ 004275f0 f i CW3_Player.obj
 0001:00026630       ?swap@?$shared_ptr@VRawImageData@@@std@@QAEXAAV12@@Z 00427630 f i CW3_Player.obj
 0001:00026650       ?use_count@?$_Ptr_base@VRawImageData@@@std@@QBEJXZ 00427650 f i CW3_Player.obj
 0001:00026690       ?virtIsPositionWithinObject@DisplayableObject@@UAE_NHH@Z 00427690 f i CW3_Player.obj
 0001:00026720       ?virtKeyDown@DisplayableObject@@UAEXH@Z 00427720 f i CW3_Player.obj
 0001:00026730       ?virtKeyUp@DisplayableObject@@UAEXH@Z 00427730 f i CW3_Player.obj
 0001:00026740       ?virtMouseDown@DisplayableObject@@UAEXHHH@Z 00427740 f i CW3_Player.obj
 0001:00026750       ?virtMouseMoved@DisplayableObject@@UAEXHH@Z 00427750 f i CW3_Player.obj
 0001:00026760       ?virtMouseUp@DisplayableObject@@UAEXHHH@Z 00427760 f i CW3_Player.obj
 0001:00026770       ?virtNotify@DisplayableObject@@UAEJHHH@Z 00427770 f i CW3_Player.obj
 0001:00026790       ?virtSingleItemMouseDown@DisplayableObject@@UAE_NHHH@Z 00427790 f i CW3_Player.obj
 0001:000267b0       __vfprintf_l               004277b0 f i CW3_Player.obj
 0001:000267f0       _printf                    004277f0 f i CW3_Player.obj
 0001:00026840       ??0CW3_SimpleEnemy@@QAE@HHPAVBaseEngine@@HHHHHHH@Z 00427840 f   CW3_SimpleEnemy.obj
 0001:00026ea0       ??1CW3_SimpleEnemy@@UAE@XZ 00427ea0 f   CW3_SimpleEnemy.obj
 0001:00026f20       ?virtAttack@CW3_SimpleEnemy@@UAEXXZ 00427f20 f   CW3_SimpleEnemy.obj
 0001:00026ff0       ?virtMove@CW3_SimpleEnemy@@UAEXXZ 00427ff0 f   CW3_SimpleEnemy.obj
 0001:00027290       ?virtDraw@CW3_SimpleEnemy@@UAEXXZ 00428290 f   CW3_SimpleEnemy.obj
 0001:00027390       ?virtDoUpdate@CW3_SimpleEnemy@@UAEXH@Z 00428390 f   CW3_SimpleEnemy.obj
 0001:000273e0       ?virtDie@CW3_SimpleEnemy@@UAEXXZ 004283e0 f   CW3_SimpleEnemy.obj
 0001:00027710       ??0CW3_BaseEnemy@@QAE@HHPAVBaseEngine@@HHHHHHH@Z 00428710 f i CW3_SimpleEnemy.obj
 0001:00027790       ??1CW3_BaseEnemy@@UAE@XZ   00428790 f i CW3_SimpleEnemy.obj
 0001:000277b0       ??_ECW3_BaseEnemy@@UAEPAXI@Z 004287b0 f i CW3_SimpleEnemy.obj
 0001:000277b0       ??_GCW3_BaseEnemy@@UAEPAXI@Z 004287b0 f i CW3_SimpleEnemy.obj
 0001:000277f0       ??_ECW3_SimpleEnemy@@UAEPAXI@Z 004287f0 f i CW3_SimpleEnemy.obj
 0001:000277f0       ??_GCW3_SimpleEnemy@@UAEPAXI@Z 004287f0 f i CW3_SimpleEnemy.obj
 0001:00027830       ?abs@@YANN@Z               00428830 f i CW3_SimpleEnemy.obj
 0001:00027850       ?checkRectangles@CollisionDetection@@SA_NHHHHHHHH@Z 00428850 f i CW3_SimpleEnemy.obj
 0001:000278a0       ?checkTargetCollisions@CW3_BaseEnemy@@QAEXPAVCW3_LivingGameObject@@@Z 004288a0 f i CW3_SimpleEnemy.obj
 0001:00027980       ?checkTileMapCollisions@CW3_BaseEnemy@@QAEXHHHH@Z 00428980 f i CW3_SimpleEnemy.obj
 0001:00027db0       ?getCurrentXCoordinate@CW3_GameObject@@QAEHXZ 00428db0 f i CW3_SimpleEnemy.obj
 0001:00027dd0       ?getCurrentYCoordinate@CW3_GameObject@@QAEHXZ 00428dd0 f i CW3_SimpleEnemy.obj
 0001:00027df0       ?getDrawHeight@DisplayableObject@@QBEHXZ 00428df0 f i CW3_SimpleEnemy.obj
 0001:00027e10       ?getDrawWidth@DisplayableObject@@QBEHXZ 00428e10 f i CW3_SimpleEnemy.obj
 0001:00027e30       ?pow@@YANNH@Z              00428e30 f i CW3_SimpleEnemy.obj
 0001:00027e90       ??0CW3_SimpleGun@@QAE@PAVCW3_GameObject@@HHPAVCW3_Game@@HHHH@Z 00428e90 f   CW3_SimpleGun.obj
 0001:00027f70       ?attack@CW3_SimpleGun@@UAEXXZ 00428f70 f   CW3_SimpleGun.obj
 0001:00028170       ??$?0$$V@?$_Compressed_pair@V?$allocator@PAVCW3_BaseEnemy@@@std@@V?$_Vector_val@U?$_Simple_types@PAVCW3_BaseEnemy@@@std@@@2@$00@std@@QAE@U_Zero_then_variadic_args_t@1@@Z 00429170 f i CW3_SimpleGun.obj
 0001:000281a0       ??$?0PAVCW3_BaseEnemy@@@?$allocator@U_Container_proxy@std@@@std@@QAE@ABV?$allocator@PAVCW3_BaseEnemy@@@1@@Z 004291a0 f i CW3_SimpleGun.obj
 0001:000281c0       ??$?0V?$allocator@PAVCW3_BaseEnemy@@@std@@$$V@?$_Compressed_pair@V?$allocator@PAVCW3_BaseEnemy@@@std@@V?$_Vector_val@U?$_Simple_types@PAVCW3_BaseEnemy@@@std@@@2@$00@std@@QAE@U_One_then_variadic_args_t@1@$$QAV?$allocator@PAVCW3_BaseEnemy@@@1@@Z 004291c0 f i CW3_SimpleGun.obj
 0001:000281f0       ??$?0V?$allocator@PAVCW3_BaseEnemy@@@std@@X@?$_Vector_alloc@U?$_Vec_base_types@PAVCW3_BaseEnemy@@V?$allocator@PAVCW3_BaseEnemy@@@std@@@std@@@std@@QAE@$$QAV?$allocator@PAVCW3_BaseEnemy@@@1@@Z 004291f0 f i CW3_SimpleGun.obj
 0001:00028240       ??$_Copy_memmove@PAPAVCW3_BaseEnemy@@PAPAV1@@std@@YAPAPAVCW3_BaseEnemy@@PAPAV1@00@Z 00429240 f i CW3_SimpleGun.obj
 0001:00028290       ??$_Destroy_range1@V?$allocator@PAVCW3_BaseEnemy@@@std@@@std@@YAXPAPAVCW3_BaseEnemy@@0AAV?$allocator@PAVCW3_BaseEnemy@@@0@U?$integral_constant@_N$00@0@@Z 00429290 f i CW3_SimpleGun.obj
 0001:000282a0       ??$_Destroy_range@V?$allocator@PAVCW3_BaseEnemy@@@std@@@std@@YAXPAPAVCW3_BaseEnemy@@0AAV?$allocator@PAVCW3_BaseEnemy@@@0@@Z 004292a0 f i CW3_SimpleGun.obj
 0001:000282d0       ??$_Emplace_back_with_unused_capacity@PAVCW3_BaseEnemy@@@?$vector@PAVCW3_BaseEnemy@@V?$allocator@PAVCW3_BaseEnemy@@@std@@@std@@AAE@$$QAPAVCW3_BaseEnemy@@@Z 004292d0 f i CW3_SimpleGun.obj
 0001:00028380       ??$_Emplace_reallocate@PAVCW3_BaseEnemy@@@?$vector@PAVCW3_BaseEnemy@@V?$allocator@PAVCW3_BaseEnemy@@@std@@@std@@QAEPAPAVCW3_BaseEnemy@@QAPAV2@$$QAPAV2@@Z 00429380 f i CW3_SimpleGun.obj
 0001:000285d0       ??$_Get_unwrapped@PAVCW3_BaseEnemy@@@std@@YAPAPAVCW3_BaseEnemy@@QAPAV1@@Z 004295d0 f i CW3_SimpleGun.obj
 0001:000285e0       ??$_Get_unwrapped_n@PAVCW3_BaseEnemy@@H$0A@@std@@YAPAPAVCW3_BaseEnemy@@QAPAV1@H@Z 004295e0 f i CW3_SimpleGun.obj
 0001:000285f0       ??$_Idl_distance1@PAPAVCW3_BaseEnemy@@PAPAV1@@std@@YAHABQAPAVCW3_BaseEnemy@@0Urandom_access_iterator_tag@0@@Z 004295f0 f i CW3_SimpleGun.obj
 0001:00028610       ??$_Idl_distance@PAPAVCW3_BaseEnemy@@PAPAV1@@std@@YA@ABQAPAVCW3_BaseEnemy@@0@Z 00429610 f i CW3_SimpleGun.obj
 0001:00028640       ??$_Ptr_move_cat@PAVCW3_BaseEnemy@@PAV1@@std@@YA?AU_Really_trivial_ptr_iterator_tag@0@ABQAPAVCW3_BaseEnemy@@0@Z 00429640 f i CW3_SimpleGun.obj
 0001:00028650       ??$_Seek_wrapped@PAVCW3_BaseEnemy@@@std@@YAXAAPAPAVCW3_BaseEnemy@@QAPAV1@@Z 00429650 f i CW3_SimpleGun.obj
 0001:00028660       ??$_Unfancy@PAVCW3_BaseEnemy@@@std@@YAPAPAVCW3_BaseEnemy@@PAPAV1@@Z 00429660 f i CW3_SimpleGun.obj
 0001:00028670       ??$_Uninitialized_move@PAPAVCW3_BaseEnemy@@PAPAV1@V?$allocator@PAVCW3_BaseEnemy@@@std@@@std@@YAPAPAVCW3_BaseEnemy@@QAPAV1@0PAPAV1@AAV?$allocator@PAVCW3_BaseEnemy@@@0@@Z 00429670 f i CW3_SimpleGun.obj
 0001:00028730       ??$_Uninitialized_move_al_unchecked@PAVCW3_BaseEnemy@@PAV1@V?$allocator@PAVCW3_BaseEnemy@@@std@@@std@@YAPAPAVCW3_BaseEnemy@@QAPAV1@00AAV?$allocator@PAVCW3_BaseEnemy@@@0@U_Really_trivial_ptr_iterator_tag@0@U?$integral_constant@_N$00@0@@Z 00429730 f i CW3_SimpleGun.obj
 0001:00028750       ??$addressof@V?$_Vector_val@U?$_Simple_types@PAVCW3_BaseEnemy@@@std@@@std@@@std@@YAPAV?$_Vector_val@U?$_Simple_types@PAVCW3_BaseEnemy@@@std@@@0@AAV10@@Z 00429750 f i CW3_SimpleGun.obj
 0001:00028760       ??$atan2@HHX@@YANHH@Z      00429760 f i CW3_SimpleGun.obj
 0001:00028790       ??$construct@PAVCW3_BaseEnemy@@PAV1@@?$_Default_allocator_traits@V?$allocator@PAVCW3_BaseEnemy@@@std@@@std@@SAXAAV?$allocator@PAVCW3_BaseEnemy@@@1@QAPAVCW3_BaseEnemy@@$$QAPAV3@@Z 00429790 f i CW3_SimpleGun.obj
 0001:000287d0       ??$emplace_back@PAVCW3_BaseEnemy@@@?$vector@PAVCW3_BaseEnemy@@V?$allocator@PAVCW3_BaseEnemy@@@std@@@std@@QAE@$$QAPAVCW3_BaseEnemy@@@Z 004297d0 f i CW3_SimpleGun.obj
 0001:00028840       ??$forward@PAVCW3_BaseEnemy@@@std@@YA$$QAPAVCW3_BaseEnemy@@AAPAV1@@Z 00429840 f i CW3_SimpleGun.obj
 0001:00028850       ??$forward@V?$allocator@PAVCW3_BaseEnemy@@@std@@@std@@YA$$QAV?$allocator@PAVCW3_BaseEnemy@@@0@AAV10@@Z 00429850 f i CW3_SimpleGun.obj
 0001:00028860       ??$getObjectsOfType@VCW3_BaseEnemy@@@CW3_Game@@QAE?AV?$vector@PAVCW3_BaseEnemy@@V?$allocator@PAVCW3_BaseEnemy@@@std@@@std@@XZ 00429860 f i CW3_SimpleGun.obj
 0001:00028980       ??$move@AAPAVCW3_BaseEnemy@@@std@@YA$$QAPAVCW3_BaseEnemy@@AAPAV1@@Z 00429980 f i CW3_SimpleGun.obj
 0001:00028990       ??$move@AAV?$allocator@PAVCW3_BaseEnemy@@@std@@@std@@YA$$QAV?$allocator@PAVCW3_BaseEnemy@@@0@AAV10@@Z 00429990 f i CW3_SimpleGun.obj
 0001:000289a0       ??$move@AAV?$vector@PAVCW3_BaseEnemy@@V?$allocator@PAVCW3_BaseEnemy@@@std@@@std@@@std@@YA$$QAV?$vector@PAVCW3_BaseEnemy@@V?$allocator@PAVCW3_BaseEnemy@@@std@@@0@AAV10@@Z 004299a0 f i CW3_SimpleGun.obj
 0001:000289b0       ??0?$_Vector_alloc@U?$_Vec_base_types@PAVCW3_BaseEnemy@@V?$allocator@PAVCW3_BaseEnemy@@@std@@@std@@@std@@QAE@XZ 004299b0 f i CW3_SimpleGun.obj
 0001:000289e0       ??0?$_Vector_val@U?$_Simple_types@PAVCW3_BaseEnemy@@@std@@@std@@QAE@XZ 004299e0 f i CW3_SimpleGun.obj
 0001:00028a30       ??0?$allocator@PAVCW3_BaseEnemy@@@std@@QAE@XZ 00429a30 f i CW3_SimpleGun.obj
 0001:00028a50       ??0?$vector@PAVCW3_BaseEnemy@@V?$allocator@PAVCW3_BaseEnemy@@@std@@@std@@QAE@$$QAV01@@Z 00429a50 f i CW3_SimpleGun.obj
 0001:00028af0       ??0?$vector@PAVCW3_BaseEnemy@@V?$allocator@PAVCW3_BaseEnemy@@@std@@@std@@QAE@XZ 00429af0 f i CW3_SimpleGun.obj
 0001:00028b40       ??0CW3_BaseBullet@@QAE@HHPAVBaseEngine@@HHN@Z 00429b40 f i CW3_SimpleGun.obj
 0001:00028bf0       ??0CW3_BaseGun@@QAE@PAVCW3_GameObject@@HHPAVCW3_Game@@HHHH@Z 00429bf0 f i CW3_SimpleGun.obj
 0001:00028cd0       ??0CW3_SimpleBullet@@QAE@HHPAVBaseEngine@@HHN@Z 00429cd0 f i CW3_SimpleGun.obj
 0001:00028d70       ??0CoordinateMapping@@QAE@XZ 00429d70 f i CW3_SimpleGun.obj
 0001:00028d90       ??0CoordinateMappingRotate@@QAE@N@Z 00429d90 f i CW3_SimpleGun.obj
 0001:00028dd0       ??1?$_Vector_alloc@U?$_Vec_base_types@PAVCW3_BaseEnemy@@V?$allocator@PAVCW3_BaseEnemy@@@std@@@std@@@std@@QAE@XZ 00429dd0 f i CW3_SimpleGun.obj
 0001:00028e20       ??1?$vector@PAVCW3_BaseEnemy@@V?$allocator@PAVCW3_BaseEnemy@@@std@@@std@@QAE@XZ 00429e20 f i CW3_SimpleGun.obj
 0001:00028e80       ??1CW3_BaseBullet@@UAE@XZ  00429e80 f i CW3_SimpleGun.obj
 0001:00028eb0       ??1CW3_BaseGun@@QAE@XZ     00429eb0 f i CW3_SimpleGun.obj
 0001:00028ed0       ??1CW3_SimpleBullet@@UAE@XZ 00429ed0 f i CW3_SimpleGun.obj
 0001:00028ef0       ??_GCW3_BaseBullet@@UAEPAXI@Z 00429ef0 f i CW3_SimpleGun.obj
 0001:00028ef0       ??_ECW3_BaseBullet@@UAEPAXI@Z 00429ef0 f i CW3_SimpleGun.obj
 0001:00028f30       ??_GCW3_SimpleBullet@@UAEPAXI@Z 00429f30 f i CW3_SimpleGun.obj
 0001:00028f30       ??_ECW3_SimpleBullet@@UAEPAXI@Z 00429f30 f i CW3_SimpleGun.obj
 0001:00028f70       ?_Alloc_proxy@?$_Vector_alloc@U?$_Vec_base_types@PAVCW3_BaseEnemy@@V?$allocator@PAVCW3_BaseEnemy@@@std@@@std@@@std@@QAEXXZ 00429f70 f i CW3_SimpleGun.obj
 0001:00029010       ?_Calculate_growth@?$vector@PAVCW3_BaseEnemy@@V?$allocator@PAVCW3_BaseEnemy@@@std@@@std@@ABEII@Z 0042a010 f i CW3_SimpleGun.obj
 0001:00029080       ?_Change_array@?$vector@PAVCW3_BaseEnemy@@V?$allocator@PAVCW3_BaseEnemy@@@std@@@std@@AAEXQAPAVCW3_BaseEnemy@@II@Z 0042a080 f i CW3_SimpleGun.obj
 0001:00029140       ?_Destroy@?$vector@PAVCW3_BaseEnemy@@V?$allocator@PAVCW3_BaseEnemy@@@std@@@std@@AAEXPAPAVCW3_BaseEnemy@@0@Z 0042a140 f i CW3_SimpleGun.obj
 0001:00029170       ?_Free_proxy@?$_Vector_alloc@U?$_Vec_base_types@PAVCW3_BaseEnemy@@V?$allocator@PAVCW3_BaseEnemy@@@std@@@std@@@std@@QAEXXZ 0042a170 f i CW3_SimpleGun.obj
 0001:000291f0       ?_Get_data@?$_Vector_alloc@U?$_Vec_base_types@PAVCW3_BaseEnemy@@V?$allocator@PAVCW3_BaseEnemy@@@std@@@std@@@std@@QAEAAV?$_Vector_val@U?$_Simple_types@PAVCW3_BaseEnemy@@@std@@@2@XZ 0042a1f0 f i CW3_SimpleGun.obj
 0001:00029210       ?_Get_data@?$_Vector_alloc@U?$_Vec_base_types@PAVCW3_BaseEnemy@@V?$allocator@PAVCW3_BaseEnemy@@@std@@@std@@@std@@QBEABV?$_Vector_val@U?$_Simple_types@PAVCW3_BaseEnemy@@@std@@@2@XZ 0042a210 f i CW3_SimpleGun.obj
 0001:00029230       ?_Get_first@?$_Compressed_pair@V?$allocator@PAVCW3_BaseEnemy@@@std@@V?$_Vector_val@U?$_Simple_types@PAVCW3_BaseEnemy@@@std@@@2@$00@std@@QAEAAV?$allocator@PAVCW3_BaseEnemy@@@2@XZ 0042a230 f i CW3_SimpleGun.obj
 0001:00029250       ?_Get_first@?$_Compressed_pair@V?$allocator@PAVCW3_BaseEnemy@@@std@@V?$_Vector_val@U?$_Simple_types@PAVCW3_BaseEnemy@@@std@@@2@$00@std@@QBEABV?$allocator@PAVCW3_BaseEnemy@@@2@XZ 0042a250 f i CW3_SimpleGun.obj
 0001:00029270       ?_Get_second@?$_Compressed_pair@V?$allocator@PAVCW3_BaseEnemy@@@std@@V?$_Vector_val@U?$_Simple_types@PAVCW3_BaseEnemy@@@std@@@2@$00@std@@QAEAAV?$_Vector_val@U?$_Simple_types@PAVCW3_BaseEnemy@@@std@@@2@XZ 0042a270 f i CW3_SimpleGun.obj
 0001:00029290       ?_Get_second@?$_Compressed_pair@V?$allocator@PAVCW3_BaseEnemy@@@std@@V?$_Vector_val@U?$_Simple_types@PAVCW3_BaseEnemy@@@std@@@2@$00@std@@QBEABV?$_Vector_val@U?$_Simple_types@PAVCW3_BaseEnemy@@@std@@@2@XZ 0042a290 f i CW3_SimpleGun.obj
 0001:000292b0       ?_Getal@?$_Vector_alloc@U?$_Vec_base_types@PAVCW3_BaseEnemy@@V?$allocator@PAVCW3_BaseEnemy@@@std@@@std@@@std@@QAEAAV?$allocator@PAVCW3_BaseEnemy@@@2@XZ 0042a2b0 f i CW3_SimpleGun.obj
 0001:000292d0       ?_Getal@?$_Vector_alloc@U?$_Vec_base_types@PAVCW3_BaseEnemy@@V?$allocator@PAVCW3_BaseEnemy@@@std@@@std@@@std@@QBEABV?$allocator@PAVCW3_BaseEnemy@@@2@XZ 0042a2d0 f i CW3_SimpleGun.obj
 0001:000292f0       ?_Getpfirst@?$_Vector_alloc@U?$_Vec_base_types@PAVCW3_BaseEnemy@@V?$allocator@PAVCW3_BaseEnemy@@@std@@@std@@@std@@QBEPAPAU_Iterator_base12@2@XZ 0042a2f0 f i CW3_SimpleGun.obj
 0001:00029310       ?_Has_unused_capacity@?$vector@PAVCW3_BaseEnemy@@V?$allocator@PAVCW3_BaseEnemy@@@std@@@std@@ABE_NXZ 0042a310 f i CW3_SimpleGun.obj
 0001:00029360       ?_Move_from@?$vector@PAVCW3_BaseEnemy@@V?$allocator@PAVCW3_BaseEnemy@@@std@@@std@@AAEX$$QAV12@U?$integral_constant@_N$00@2@@Z 0042a360 f i CW3_SimpleGun.obj
 0001:00029440       ?_Myend@?$_Vector_alloc@U?$_Vec_base_types@PAVCW3_BaseEnemy@@V?$allocator@PAVCW3_BaseEnemy@@@std@@@std@@@std@@QAEAAPAPAVCW3_BaseEnemy@@XZ 0042a440 f i CW3_SimpleGun.obj
 0001:00029460       ?_Myend@?$_Vector_alloc@U?$_Vec_base_types@PAVCW3_BaseEnemy@@V?$allocator@PAVCW3_BaseEnemy@@@std@@@std@@@std@@QBEABQAPAVCW3_BaseEnemy@@XZ 0042a460 f i CW3_SimpleGun.obj
 0001:00029480       ?_Myfirst@?$_Vector_alloc@U?$_Vec_base_types@PAVCW3_BaseEnemy@@V?$allocator@PAVCW3_BaseEnemy@@@std@@@std@@@std@@QAEAAPAPAVCW3_BaseEnemy@@XZ 0042a480 f i CW3_SimpleGun.obj
 0001:000294a0       ?_Myfirst@?$_Vector_alloc@U?$_Vec_base_types@PAVCW3_BaseEnemy@@V?$allocator@PAVCW3_BaseEnemy@@@std@@@std@@@std@@QBEABQAPAVCW3_BaseEnemy@@XZ 0042a4a0 f i CW3_SimpleGun.obj
 0001:000294c0       ?_Mylast@?$_Vector_alloc@U?$_Vec_base_types@PAVCW3_BaseEnemy@@V?$allocator@PAVCW3_BaseEnemy@@@std@@@std@@@std@@QAEAAPAPAVCW3_BaseEnemy@@XZ 0042a4c0 f i CW3_SimpleGun.obj
 0001:000294e0       ?_Mylast@?$_Vector_alloc@U?$_Vec_base_types@PAVCW3_BaseEnemy@@V?$allocator@PAVCW3_BaseEnemy@@@std@@@std@@@std@@QBEABQAPAVCW3_BaseEnemy@@XZ 0042a4e0 f i CW3_SimpleGun.obj
 0001:00029500       ?_Myproxy@?$_Vector_alloc@U?$_Vec_base_types@PAVCW3_BaseEnemy@@V?$allocator@PAVCW3_BaseEnemy@@@std@@@std@@@std@@QAEAAPAU_Container_proxy@2@XZ 0042a500 f i CW3_SimpleGun.obj
 0001:00029520       ?_Orphan_all@?$_Vector_alloc@U?$_Vec_base_types@PAVCW3_BaseEnemy@@V?$allocator@PAVCW3_BaseEnemy@@@std@@@std@@@std@@QAEXXZ 0042a520 f i CW3_SimpleGun.obj
 0001:00029540       ?_Orphan_range@?$vector@PAVCW3_BaseEnemy@@V?$allocator@PAVCW3_BaseEnemy@@@std@@@std@@ABEXPAPAVCW3_BaseEnemy@@0@Z 0042a540 f i CW3_SimpleGun.obj
 0001:00029630       ?_Swap_all@?$_Vector_alloc@U?$_Vec_base_types@PAVCW3_BaseEnemy@@V?$allocator@PAVCW3_BaseEnemy@@@std@@@std@@@std@@QAEXAAV12@@Z 0042a630 f i CW3_SimpleGun.obj
 0001:00029660       ?_Tidy@?$vector@PAVCW3_BaseEnemy@@V?$allocator@PAVCW3_BaseEnemy@@@std@@@std@@AAEXXZ 0042a660 f i CW3_SimpleGun.obj
 0001:00029710       ?_Umove@?$vector@PAVCW3_BaseEnemy@@V?$allocator@PAVCW3_BaseEnemy@@@std@@@std@@AAEPAPAVCW3_BaseEnemy@@PAPAV3@00@Z 0042a710 f i CW3_SimpleGun.obj
 0001:00029750       ?_Umove_if_noexcept1@?$vector@PAVCW3_BaseEnemy@@V?$allocator@PAVCW3_BaseEnemy@@@std@@@std@@AAEXPAPAVCW3_BaseEnemy@@00U?$integral_constant@_N$00@2@@Z 0042a750 f i CW3_SimpleGun.obj
 0001:00029790       ?_Umove_if_noexcept@?$vector@PAVCW3_BaseEnemy@@V?$allocator@PAVCW3_BaseEnemy@@@std@@@std@@AAEXPAPAVCW3_BaseEnemy@@00@Z 0042a790 f i CW3_SimpleGun.obj
 0001:000297d0       ?_Xlength@?$vector@PAVCW3_BaseEnemy@@V?$allocator@PAVCW3_BaseEnemy@@@std@@@std@@CAXXZ 0042a7d0 f i CW3_SimpleGun.obj
 0001:000297f0       ?_Xrange@?$vector@PAVCW3_BaseEnemy@@V?$allocator@PAVCW3_BaseEnemy@@@std@@@std@@CAXXZ 0042a7f0 f i CW3_SimpleGun.obj
 0001:00029810       ?allocate@?$allocator@PAVCW3_BaseEnemy@@@std@@QAEPAPAVCW3_BaseEnemy@@I@Z 0042a810 f i CW3_SimpleGun.obj
 0001:00029840       ?at@?$vector@PAVCW3_BaseEnemy@@V?$allocator@PAVCW3_BaseEnemy@@@std@@@std@@QAEAAPAVCW3_BaseEnemy@@I@Z 0042a840 f i CW3_SimpleGun.obj
 0001:00029880       ?capacity@?$vector@PAVCW3_BaseEnemy@@V?$allocator@PAVCW3_BaseEnemy@@@std@@@std@@QBEIXZ 0042a880 f i CW3_SimpleGun.obj
 0001:000298c0       ?changePixelColour@CW3_BaseGun@@UAE_NHHAAHPAVDrawingSurface@@@Z 0042a8c0 f i CW3_SimpleGun.obj
 0001:00029900       ?changePixelColour@CoordinateMapping@@UAE_NHHAAHPAVDrawingSurface@@@Z 0042a900 f i CW3_SimpleGun.obj
 0001:00029920       ?checkEnemyCollisions@CW3_BaseBullet@@QAEXXZ 0042a920 f i CW3_SimpleGun.obj
 0001:00029b00       ?deallocate@?$allocator@PAVCW3_BaseEnemy@@@std@@QAEXQAPAVCW3_BaseEnemy@@I@Z 0042ab00 f i CW3_SimpleGun.obj
 0001:00029b30       ?drawForegroundOval@BaseEngine@@QAEXHHHHI@Z 0042ab30 f i CW3_SimpleGun.obj
 0001:00029b70       ?getCurrentMouseY@BaseEngine@@QBEHXZ 0042ab70 f i CW3_SimpleGun.obj
 0001:00029b90       ?mapCoordinates@CW3_BaseGun@@UAE_NAAN0ABVSimpleImage@@@Z 0042ab90 f i CW3_SimpleGun.obj
 0001:00029f50       ?mapCoordinates@CoordinateMappingRotate@@UAE_NAAN0ABVSimpleImage@@@Z 0042af50 f i CW3_SimpleGun.obj
 0001:0002a240       ?max_size@?$_Default_allocator_traits@V?$allocator@PAVCW3_BaseEnemy@@@std@@@std@@SAIABV?$allocator@PAVCW3_BaseEnemy@@@2@@Z 0042b240 f i CW3_SimpleGun.obj
 0001:0002a250       ?max_size@?$vector@PAVCW3_BaseEnemy@@V?$allocator@PAVCW3_BaseEnemy@@@std@@@std@@QBEIXZ 0042b250 f i CW3_SimpleGun.obj
 0001:0002a2a0       ?push_back@?$vector@PAVCW3_BaseEnemy@@V?$allocator@PAVCW3_BaseEnemy@@@std@@@std@@QAEX$$QAPAVCW3_BaseEnemy@@@Z 0042b2a0 f i CW3_SimpleGun.obj
 0001:0002a2d0       ?setAndRedrawMapValueAt@TileManager@@QAEXHHHPAVBaseEngine@@PAVDrawingSurface@@@Z 0042b2d0 f i CW3_SimpleGun.obj
 0001:0002a370       ?size@?$vector@PAVCW3_BaseEnemy@@V?$allocator@PAVCW3_BaseEnemy@@@std@@@std@@QBEIXZ 0042b370 f i CW3_SimpleGun.obj
 0001:0002a3b0       ?virtDoUpdate@CW3_BaseBullet@@UAEXH@Z 0042b3b0 f i CW3_SimpleGun.obj
 0001:0002a5d0       ?virtDraw@CW3_BaseBullet@@UAEXXZ 0042b5d0 f i CW3_SimpleGun.obj
 0001:0002a650       ??0CW3_TileManager@@QAE@HHHH@Z 0042b650 f   CW3_TileManager.obj
 0001:0002a690       ??1CW3_TileManager@@UAE@XZ 0042b690 f   CW3_TileManager.obj
 0001:0002a6b0       ?getTilesXCoordinates@CW3_TileManager@@QBEHH@Z 0042b6b0 f   CW3_TileManager.obj
 0001:0002a6d0       ?getTilesYCoordinates@CW3_TileManager@@QBEHH@Z 0042b6d0 f   CW3_TileManager.obj
 0001:0002a6f0       ?getTileValueAtCoordinates@CW3_TileManager@@QBEHHH@Z 0042b6f0 f   CW3_TileManager.obj
 0001:0002a730       ?getTileXMapAtCoordinates@CW3_TileManager@@QBEHH@Z 0042b730 f   CW3_TileManager.obj
 0001:0002a760       ?getTileYMapAtCoordinates@CW3_TileManager@@QBEHH@Z 0042b760 f   CW3_TileManager.obj
 0001:0002a790       ?getBaseScreenX@CW3_TileManager@@QBEHXZ 0042b790 f   CW3_TileManager.obj
 0001:0002a7b0       ?getBaseScreenY@CW3_TileManager@@QBEHXZ 0042b7b0 f   CW3_TileManager.obj
 0001:0002a7d0       ?drawTileFloor1@CW3_TileManager@@QBEXPAVBaseEngine@@HH@Z 0042b7d0 f   CW3_TileManager.obj
 0001:0002a8d0       ?drawTilePuddleLight@CW3_TileManager@@QBEXPAVBaseEngine@@HH@Z 0042b8d0 f   CW3_TileManager.obj
 0001:0002a9d0       ?drawTilepuddleDark@CW3_TileManager@@QBEXPAVBaseEngine@@HH@Z 0042b9d0 f   CW3_TileManager.obj
 0001:0002aad0       ?drawTileWallTopNorthMid@CW3_TileManager@@QBEXPAVBaseEngine@@HH@Z 0042bad0 f   CW3_TileManager.obj
 0001:0002abd0       ?drawTileWallTopNorthEast@CW3_TileManager@@QBEXPAVBaseEngine@@HH@Z 0042bbd0 f   CW3_TileManager.obj
 0001:0002acd0       ?drawTileWallTopNorthWest@CW3_TileManager@@QBEXPAVBaseEngine@@HH@Z 0042bcd0 f   CW3_TileManager.obj
 0001:0002add0       ?drawTileWallTopWest@CW3_TileManager@@QBEXPAVBaseEngine@@HH@Z 0042bdd0 f   CW3_TileManager.obj
 0001:0002aed0       ?drawTileWallTopEast@CW3_TileManager@@QBEXPAVBaseEngine@@HH@Z 0042bed0 f   CW3_TileManager.obj
 0001:0002afd0       ?drawTileWallTopSouthMid@CW3_TileManager@@QBEXPAVBaseEngine@@HH@Z 0042bfd0 f   CW3_TileManager.obj
 0001:0002b0d0       ?drawTileWallTopSouthEast@CW3_TileManager@@QBEXPAVBaseEngine@@HH@Z 0042c0d0 f   CW3_TileManager.obj
 0001:0002b1d0       ?drawTileWallTopSouthWest@CW3_TileManager@@QBEXPAVBaseEngine@@HH@Z 0042c1d0 f   CW3_TileManager.obj
 0001:0002b2d0       ?drawTileWallSideWest@CW3_TileManager@@QBEXPAVBaseEngine@@HH@Z 0042c2d0 f   CW3_TileManager.obj
 0001:0002b3d0       ?drawTileWallSideEast@CW3_TileManager@@QBEXPAVBaseEngine@@HH@Z 0042c3d0 f   CW3_TileManager.obj
 0001:0002b4d0       ?drawTileWallMid@CW3_TileManager@@QBEXPAVBaseEngine@@HH@Z 0042c4d0 f   CW3_TileManager.obj
 0001:0002b5d0       ?drawTileWallEast@CW3_TileManager@@QBEXPAVBaseEngine@@HH@Z 0042c5d0 f   CW3_TileManager.obj
 0001:0002b6d0       ?drawTileWallWest@CW3_TileManager@@QBEXPAVBaseEngine@@HH@Z 0042c6d0 f   CW3_TileManager.obj
 0001:0002b7d0       ?drawTileCrate@CW3_TileManager@@QBEXPAVBaseEngine@@HH@Z 0042c7d0 f   CW3_TileManager.obj
 0001:0002b8d0       ?virtDrawTileAt@CW3_TileManager@@UBEXPAVBaseEngine@@PAVDrawingSurface@@HHHH@Z 0042c8d0 f   CW3_TileManager.obj
 0001:0002c260       ??0TileManager@@QAE@HHHH@Z 0042d260 f i CW3_TileManager.obj
 0001:0002c2f0       ??1TileManager@@UAE@XZ     0042d2f0 f i CW3_TileManager.obj
 0001:0002c340       ??_GCW3_TileManager@@UAEPAXI@Z 0042d340 f i CW3_TileManager.obj
 0001:0002c340       ??_ECW3_TileManager@@UAEPAXI@Z 0042d340 f i CW3_TileManager.obj
 0001:0002c380       ??_ETileManager@@UAEPAXI@Z 0042d380 f i CW3_TileManager.obj
 0001:0002c380       ??_GTileManager@@UAEPAXI@Z 0042d380 f i CW3_TileManager.obj
 0001:0002c3c0       ?setMapSize@TileManager@@QAEXHH@Z 0042d3c0 f i CW3_TileManager.obj
 0001:0002c470       ?virtSetupBackgroundBuffer@DraggingDemo@@UAEXXZ 0042d470 f   DraggingDemo.obj
 0001:0002c5b0       ?virtInitialiseObjects@DraggingDemo@@UAEHXZ 0042d5b0 f   DraggingDemo.obj
 0001:0002c800       ?virtKeyDown@DraggingDemo@@UAEXH@Z 0042d800 f   DraggingDemo.obj
 0001:0002c920       ??$_Resize@V<lambda_2afd52570c452b238925c6f475a76105>@@@?$vector@PAVDisplayableObject@@V?$allocator@PAVDisplayableObject@@@std@@@std@@AAEXIV<lambda_2afd52570c452b238925c6f475a76105>@@@Z 0042d920 f i DraggingDemo.obj
 0001:0002cb90       ??$_Uninitialized_value_construct_n1@PAPAVDisplayableObject@@IV?$allocator@PAVDisplayableObject@@@std@@@std@@YAPAPAVDisplayableObject@@PAPAV1@IAAV?$allocator@PAVDisplayableObject@@@0@U?$integral_constant@_N$00@0@@Z 0042db90 f i DraggingDemo.obj
 0001:0002cbc0       ??$_Uninitialized_value_construct_n@PAPAVDisplayableObject@@IV?$allocator@PAVDisplayableObject@@@std@@@std@@YAPAPAVDisplayableObject@@PAPAV1@IAAV?$allocator@PAVDisplayableObject@@@0@@Z 0042dbc0 f i DraggingDemo.obj
 0001:0002cbf0       ??$_Zero_range@PAPAVDisplayableObject@@@std@@YAPAPAVDisplayableObject@@QAPAV1@0@Z 0042dbf0 f i DraggingDemo.obj
 0001:0002cc30       ??0<lambda_2afd52570c452b238925c6f475a76105>@@QAE@QAV?$vector@PAVDisplayableObject@@V?$allocator@PAVDisplayableObject@@@std@@@std@@@Z 0042dc30 f i DraggingDemo.obj
 0001:0002cc50       ??0DragableBaseClassObject@@QAE@HHPAVBaseEngine@@HH_N@Z 0042dc50 f i DraggingDemo.obj
 0001:0002ccb0       ??0DragableBaseClassObject@@QAE@PAVBaseEngine@@HH_N@Z 0042dcb0 f i DraggingDemo.obj
 0001:0002cd00       ??0DragableImageObject@@QAE@HHPAVBaseEngine@@V?$basic_string@DU?$char_traits@D@std@@V?$allocator@D@2@@std@@_N2@Z 0042dd00 f i DraggingDemo.obj
 0001:0002cea0       ??0DragableObject@@QAE@HHPAVBaseEngine@@HH_N1@Z 0042dea0 f i DraggingDemo.obj
 0001:0002cf50       ??0DragableObject@@QAE@PAVBaseEngine@@HH_N1@Z 0042df50 f i DraggingDemo.obj
 0001:0002d000       ??0ImageObject@@QAE@HHPAVBaseEngine@@V?$basic_string@DU?$char_traits@D@std@@V?$allocator@D@2@@std@@_N2@Z 0042e000 f i DraggingDemo.obj
 0001:0002d190       ??1DragableBaseClassObject@@UAE@XZ 0042e190 f i DraggingDemo.obj
 0001:0002d1b0       ??1DragableImageObject@@UAE@XZ 0042e1b0 f i DraggingDemo.obj
 0001:0002d1e0       ??1DragableObject@@UAE@XZ  0042e1e0 f i DraggingDemo.obj
 0001:0002d200       ??1ImageObject@@UAE@XZ     0042e200 f i DraggingDemo.obj
 0001:0002d230       ??R<lambda_2afd52570c452b238925c6f475a76105>@@QBE@PAPAVDisplayableObject@@I@Z 0042e230 f i DraggingDemo.obj
 0001:0002d260       ??_EDragableBaseClassObject@@UAEPAXI@Z 0042e260 f i DraggingDemo.obj
 0001:0002d260       ??_GDragableBaseClassObject@@UAEPAXI@Z 0042e260 f i DraggingDemo.obj
 0001:0002d2a0       ??_GDragableImageObject@@UAEPAXI@Z 0042e2a0 f i DraggingDemo.obj
 0001:0002d2a0       ??_EDragableImageObject@@UAEPAXI@Z 0042e2a0 f i DraggingDemo.obj
 0001:0002d2e0       ??_GDragableObject@@UAEPAXI@Z 0042e2e0 f i DraggingDemo.obj
 0001:0002d2e0       ??_EDragableObject@@UAEPAXI@Z 0042e2e0 f i DraggingDemo.obj
 0001:0002d320       ??_EImageObject@@UAEPAXI@Z 0042e320 f i DraggingDemo.obj
 0001:0002d320       ??_GImageObject@@UAEPAXI@Z 0042e320 f i DraggingDemo.obj
 0001:0002d360       ?_Udefault@?$vector@PAVDisplayableObject@@V?$allocator@PAVDisplayableObject@@@std@@@std@@AAEPAPAVDisplayableObject@@PAPAV3@I@Z 0042e360 f i DraggingDemo.obj
 0001:0002d390       ?checkDoDrag@DragableBaseClassObject@@UAEXHH@Z 0042e390 f i DraggingDemo.obj
 0001:0002d410       ?checkFinishDrag@DragableBaseClassObject@@UAEXHH@Z 0042e410 f i DraggingDemo.obj
 0001:0002d450       ?checkStartDrag@DragableBaseClassObject@@UAEXHH@Z 0042e450 f i DraggingDemo.obj
 0001:0002d4d0       ?checkWritable@DrawingSurface@@QAEXXZ 0042e4d0 f i DraggingDemo.obj
 0001:0002d520       ?createObjectArray@DisplayableObjectContainer@@QAEXH@Z 0042e520 f i DraggingDemo.obj
 0001:0002d570       ?doDragRedraw@DragableBaseClassObject@@UAEXXZ 0042e570 f i DraggingDemo.obj
 0001:0002d590       ?getIntsPerWindowRow@DrawingSurface@@QBEIXZ 0042e590 f i DraggingDemo.obj
 0001:0002d5b0       ?notifyObjectsAboutMouse@BaseEngine@@QAEX_N@Z 0042e5b0 f i DraggingDemo.obj
 0001:0002d5d0       ?rawSetPixel@DrawingSurface@@QAEXHHI@Z 0042e5d0 f i DraggingDemo.obj
 0001:0002d680       ?resize@?$vector@PAVDisplayableObject@@V?$allocator@PAVDisplayableObject@@@std@@@std@@QAEXI@Z 0042e680 f i DraggingDemo.obj
 0001:0002d6c0       ?setBackgroundPixel@BaseEngine@@QAEXHHI@Z 0042e6c0 f i DraggingDemo.obj
 0001:0002d6f0       ?setPixel@DrawingSurface@@QAEXHHI@Z 0042e6f0 f i DraggingDemo.obj
 0001:0002d760       ?storeObjectInArray@DisplayableObjectContainer@@QAEXHPAVDisplayableObject@@@Z 0042e760 f i DraggingDemo.obj
 0001:0002d7a0       ?virtDraw@DragableImageObject@@UAEXXZ 0042e7a0 f i DraggingDemo.obj
 0001:0002d820       ?virtDraw@ImageObject@@UAEXXZ 0042e820 f i DraggingDemo.obj
 0001:0002d8a0       ?virtMouseDown@DragableImageObject@@UAEXHHH@Z 0042e8a0 f i DraggingDemo.obj
 0001:0002d8d0       ?virtMouseDown@DragableObject@@UAEXHHH@Z 0042e8d0 f i DraggingDemo.obj
 0001:0002d900       ?virtMouseMoved@DragableImageObject@@UAEXHH@Z 0042e900 f i DraggingDemo.obj
 0001:0002d930       ?virtMouseMoved@DragableObject@@UAEXHH@Z 0042e930 f i DraggingDemo.obj
 0001:0002d960       ?virtMouseUp@DragableImageObject@@UAEXHHH@Z 0042e960 f i DraggingDemo.obj
 0001:0002d990       ?virtMouseUp@DragableObject@@UAEXHHH@Z 0042e990 f i DraggingDemo.obj
 0001:0002d9d0       ??0DrawingSurface@@QAE@PAVBaseEngine@@@Z 0042e9d0 f   DrawingSurface.obj
 0001:0002da70       ?drawLine@DrawingSurface@@QAEXNNNNI@Z 0042ea70 f   DrawingSurface.obj
 0001:0002dc50       ?drawThickLine@DrawingSurface@@QAEXNNNNIH@Z 0042ec50 f   DrawingSurface.obj
 0001:0002e0f0       ?drawVerticalSidedRegion@DrawingSurface@@QAEXNNNNNNI@Z 0042f0f0 f   DrawingSurface.obj
 0001:0002e490       ?drawRectangle@DrawingSurface@@QAEXHHHHI@Z 0042f490 f   DrawingSurface.obj
 0001:0002e5a0       ?drawOval@DrawingSurface@@QAEXHHHHI@Z 0042f5a0 f   DrawingSurface.obj
 0001:0002e770       ?rawDrawOval@DrawingSurface@@QAEXHHHHI@Z 0042f770 f   DrawingSurface.obj
 0001:0002e8d0       ?drawHollowOval@DrawingSurface@@QAEXHHHHHHHHI@Z 0042f8d0 f   DrawingSurface.obj
 0001:0002ebf0       ?drawPolygon@DrawingSurface@@QAEXHPAN0I@Z 0042fbf0 f   DrawingSurface.obj
 0001:0002f370       ?drawFastString@DrawingSurface@@QAEXHHPBDIPAVFont@@@Z 00430370 f   DrawingSurface.obj
 0001:0002f460       ?drawScalableString@DrawingSurface@@QAEXHHPBDIPAVFont@@@Z 00430460 f   DrawingSurface.obj
 0001:0002f630       ?drawShortenedArrow@DrawingSurface@@QAEXHHHHHHIHH@Z 00430630 f   DrawingSurface.obj
 0001:0002fbb0       ?drawShortenedLine@DrawingSurface@@QAEXHHHHHHIH@Z 00430bb0 f   DrawingSurface.obj
 0001:0002ffb0       ?drawTriangle@DrawingSurface@@QAEXNNNNNNI@Z 00430fb0 f   DrawingSurface.obj
 0001:00030300       ?copyEntireSurface@DrawingSurface@@QAEXPAV1@@Z 00431300 f   DrawingSurface.obj
 0001:00030350       ?copyRectangleFrom@DrawingSurface@@QAEXPAV1@HHHHHH@Z 00431350 f   DrawingSurface.obj
 0001:00030550       ?getAngle@DrawingSurface@@SANNNNN@Z 00431550 f   DrawingSurface.obj
 0001:000305f0       ?getVirtualRedrawMinX@DrawingSurface@@QAEHXZ 004315f0 f   DrawingSurface.obj
 0001:00030640       ?getVirtualRedrawMinY@DrawingSurface@@QAEHXZ 00431640 f   DrawingSurface.obj
 0001:00030690       ?getVirtualRedrawMaxX@DrawingSurface@@QAEHXZ 00431690 f   DrawingSurface.obj
 0001:000306f0       ?getVirtualRedrawMaxY@DrawingSurface@@QAEHXZ 004316f0 f   DrawingSurface.obj
 0001:00030750       ?getRealRedrawMinX@DrawingSurface@@QAEHXZ 00431750 f   DrawingSurface.obj
 0001:000307a0       ?getRealRedrawMinY@DrawingSurface@@QAEHXZ 004317a0 f   DrawingSurface.obj
 0001:000307f0       ?getRealRedrawMaxX@DrawingSurface@@QAEHXZ 004317f0 f   DrawingSurface.obj
 0001:00030840       ?getRealRedrawMaxY@DrawingSurface@@QAEHXZ 00431840 f   DrawingSurface.obj
 0001:00031440       ??$swapPoints@H@@YAXAAH0@Z 00432440 f i DrawingSurface.obj
 0001:00031470       ??$swapPoints@N@@YAXAAN0@Z 00432470 f i DrawingSurface.obj
 0001:000314b0       ?checkBlitable@DrawingSurface@@QAEXXZ 004324b0 f i DrawingSurface.obj
 0001:00031500       ?convertRealToVirtualXPosition@DrawingSurface@@QAEHH@Z 00432500 f i DrawingSurface.obj
 0001:00031540       ?convertRealToVirtualYPosition@DrawingSurface@@QAEHH@Z 00432540 f i DrawingSurface.obj
 0001:00031580       ?getRedrawAllScreen@BaseEngine@@QAEHXZ 00432580 f i DrawingSurface.obj
 0001:000315a0       ?getRedrawRectRealBottom@BaseEngine@@QAEHXZ 004325a0 f i DrawingSurface.obj
 0001:000315c0       ?getRedrawRectRealLeft@BaseEngine@@QAEHXZ 004325c0 f i DrawingSurface.obj
 0001:000315e0       ?getRedrawRectRealRight@BaseEngine@@QAEHXZ 004325e0 f i DrawingSurface.obj
 0001:00031600       ?getRedrawRectRealTop@BaseEngine@@QAEHXZ 00432600 f i DrawingSurface.obj
 0001:00031620       ?getRedrawRectVirtualBottom@BaseEngine@@QAEHXZ 00432620 f i DrawingSurface.obj
 0001:00031640       ?getRedrawRectVirtualLeft@BaseEngine@@QAEHXZ 00432640 f i DrawingSurface.obj
 0001:00031660       ?getRedrawRectVirtualRight@BaseEngine@@QAEHXZ 00432660 f i DrawingSurface.obj
 0001:00031680       ?getRedrawRectVirtualTop@BaseEngine@@QAEHXZ 00432680 f i DrawingSurface.obj
 0001:000316a0       ?getTTFFont@Font@@QAEPAU_TTF_Font@@XZ 004326a0 f i DrawingSurface.obj
 0001:000316c0       ?setDrawPointsFilter@DrawingSurface@@QAEXPAVFilterPoints@@@Z 004326c0 f i DrawingSurface.obj
 0001:000316e0       ??0FlashingDemo@@QAE@XZ    004326e0 f   FlashingDemo.obj
 0001:000317a0       ??1FlashingDemo@@UAE@XZ    004327a0 f   FlashingDemo.obj
 0001:000317f0       ?virtSetupBackgroundBuffer@FlashingDemo@@UAEXXZ 004327f0 f   FlashingDemo.obj
 0001:00031c70       ?virtMainLoopDoBeforeUpdate@FlashingDemo@@UAEXXZ 00432c70 f   FlashingDemo.obj
 0001:00031d30       ?virtCreateSurfaces@FlashingDemo@@UAEXXZ 00432d30 f   FlashingDemo.obj
 0001:00031f50       ??1DrawingSurface@@QAE@XZ  00432f50 f i FlashingDemo.obj
 0001:00031f60       ??_GFlashingDemo@@UAEPAXI@Z 00432f60 f i FlashingDemo.obj
 0001:00031f60       ??_EFlashingDemo@@UAEPAXI@Z 00432f60 f i FlashingDemo.obj
 0001:00031fa0       ?createSurface@DrawingSurface@@QAEXHH@Z 00432fa0 f i FlashingDemo.obj
 0001:00031ff0       ?virtSetupBackgroundBuffer@ImageMappingDemo@@UAEXXZ 00432ff0 f   ImageMappingDemo.obj
 0001:000320f0       ?virtInitialiseObjects@ImageMappingDemo@@UAEHXZ 004330f0 f   ImageMappingDemo.obj
 0001:00032200       ?virtKeyDown@ImageMappingDemo@@UAEXH@Z 00433200 f   ImageMappingDemo.obj
 0001:00032230       ?virtMainLoopDoBeforeUpdate@ImageMappingDemo@@UAEXXZ 00433230 f   ImageMappingDemo.obj
 0001:000322c0       ?mapCoordinates@ImageMappingDemo@@UAE_NAAN0ABVSimpleImage@@@Z 004332c0 f   ImageMappingDemo.obj
 0001:00032700       ??0MappableImageObject@@QAE@PAVCoordinateMapping@@HHPAVBaseEngine@@V?$basic_string@DU?$char_traits@D@std@@V?$allocator@D@2@@std@@_N3@Z 00433700 f i ImageMappingDemo.obj
 0001:000327c0       ??1MappableImageObject@@UAE@XZ 004337c0 f i ImageMappingDemo.obj
 0001:000327e0       ??_EMappableImageObject@@UAEPAXI@Z 004337e0 f i ImageMappingDemo.obj
 0001:000327e0       ??_GMappableImageObject@@UAEPAXI@Z 004337e0 f i ImageMappingDemo.obj
 0001:00032820       ?getPixelColour@MappableImageObject@@QAEHHH@Z 00433820 f i ImageMappingDemo.obj
 0001:00032850       ?getPixelColour@SimpleImage@@QBEHHH@Z 00433850 f i ImageMappingDemo.obj
 0001:00032880       ?getRawPixelColour@RawImageData@@QBEHHH@Z 00433880 f i ImageMappingDemo.obj
 0001:000328d0       ?getXCentre@DisplayableObject@@QBEHXZ 004338d0 f i ImageMappingDemo.obj
 0001:00032900       ?getYCentre@DisplayableObject@@QBEHXZ 00433900 f i ImageMappingDemo.obj
 0001:00032930       ?setRotation@CoordinateMappingRotate@@QAEXN@Z 00433930 f i ImageMappingDemo.obj
 0001:00032950       ?setTransparencyColour@MappableImageObject@@QAEXH@Z 00433950 f i ImageMappingDemo.obj
 0001:00032980       ?setXShift@CoordinateMappingShiftXY@@QAEXN@Z 00433980 f i ImageMappingDemo.obj
 0001:000329a0       ?setYShift@CoordinateMappingShiftXY@@QAEXN@Z 004339a0 f i ImageMappingDemo.obj
 0001:000329c0       ?virtDraw@MappableImageObject@@UAEXXZ 004339c0 f i ImageMappingDemo.obj
 0001:00032a50       ?virtSetupBackgroundBuffer@ImageObjectDemo@@UAEXXZ 00433a50 f   ImageObjectDemo.obj
 0001:00032c20       ?virtInitialiseObjects@ImageObjectDemo@@UAEHXZ 00433c20 f   ImageObjectDemo.obj
 0001:00032ce0       ?virtDrawStringsUnderneath@ImageObjectDemo@@UAEXXZ 00433ce0 f   ImageObjectDemo.obj
 0001:00032d90       ?virtDrawStringsOnTop@ImageObjectDemo@@UAEXXZ 00433d90 f   ImageObjectDemo.obj
 0001:00032e10       ?virtMouseDown@ImageObjectDemo@@UAEXHHH@Z 00433e10 f   ImageObjectDemo.obj
 0001:00032e30       ?virtKeyDown@ImageObjectDemo@@UAEXH@Z 00433e30 f   ImageObjectDemo.obj
 0001:00032f90       ??0BouncingImageObject@@QAE@PAVBaseEngine@@V?$basic_string@DU?$char_traits@D@std@@V?$allocator@D@2@@std@@@Z 00433f90 f i ImageObjectDemo.obj
 0001:00033080       ??0BouncingObject@@QAE@PAVBaseEngine@@@Z 00434080 f i ImageObjectDemo.obj
 0001:00033180       ??1BouncingImageObject@@UAE@XZ 00434180 f i ImageObjectDemo.obj
 0001:000331b0       ??1BouncingObject@@UAE@XZ  004341b0 f i ImageObjectDemo.obj
 0001:000331d0       ??_GBouncingImageObject@@UAEPAXI@Z 004341d0 f i ImageObjectDemo.obj
 0001:000331d0       ??_EBouncingImageObject@@UAEPAXI@Z 004341d0 f i ImageObjectDemo.obj
 0001:00033210       ??_EBouncingObject@@UAEPAXI@Z 00434210 f i ImageObjectDemo.obj
 0001:00033210       ??_GBouncingObject@@UAEPAXI@Z 00434210 f i ImageObjectDemo.obj
 0001:00033250       ?isPaused@BaseEngine@@QAE_NXZ 00434250 f i ImageObjectDemo.obj
 0001:00033290       ?loadImage@BaseEngine@@QAE?AVSimpleImage@@V?$basic_string@DU?$char_traits@D@std@@V?$allocator@D@2@@std@@_N@Z 00434290 f i ImageObjectDemo.obj
 0001:00033350       ?shrinkBy@SimpleImage@@QAE?AV1@H@Z 00434350 f i ImageObjectDemo.obj
 0001:00033460       ?virtDoUpdate@BouncingObject@@UAEXH@Z 00434460 f i ImageObjectDemo.obj
 0001:00033860       ?virtDraw@BouncingImageObject@@UAEXXZ 00434860 f i ImageObjectDemo.obj
 0001:000338e0       ?virtDraw@BouncingObject@@UAEXXZ 004348e0 f i ImageObjectDemo.obj
 0001:00033980       ?savePositions@JigsawDemo@@QAEXXZ 00434980 f   JigsawDemo.obj
 0001:000339f0       ?virtSetupBackgroundBuffer@JigsawDemo@@UAEXXZ 004349f0 f   JigsawDemo.obj
 0001:00033a10       ?virtInitialise@JigsawDemo@@UAEHXZ 00434a10 f   JigsawDemo.obj
 0001:00033a60       ?virtInitialiseObjects@JigsawDemo@@UAEHXZ 00434a60 f   JigsawDemo.obj
 0001:00033f00       ?virtKeyDown@JigsawDemo@@UAEXH@Z 00434f00 f   JigsawDemo.obj
 0001:00034000       ?virtMainLoopDoBeforeUpdate@JigsawDemo@@UAEXXZ 00435000 f   JigsawDemo.obj
 0001:00034030       ?virtKeyUp@JigsawDemo@@UAEXH@Z 00435030 f   JigsawDemo.obj
 0001:00034050       ?virtRealMouseDown@JigsawDemo@@UAEXHHH@Z 00435050 f   JigsawDemo.obj
 0001:00034250       ?virtBackgroundMouseDown@JigsawDemo@@UAEXHHHHH@Z 00435250 f   JigsawDemo.obj
 0001:00034280       ?virtMouseMoved@JigsawDemo@@UAEXHH@Z 00435280 f   JigsawDemo.obj
 0001:000342d0       ?virtMouseUp@JigsawDemo@@UAEXHHH@Z 004352d0 f   JigsawDemo.obj
 0001:00034330       ?virtMouseWheel@JigsawDemo@@UAEXHHHH@Z 00435330 f   JigsawDemo.obj
 0001:000343f0       ?virtPreDraw@JigsawDemo@@UAEXXZ 004353f0 f   JigsawDemo.obj
 0001:00034400       ?virtPostDraw@JigsawDemo@@UAEXXZ 00435400 f   JigsawDemo.obj
 0001:00034980       ??$?0ABV<lambda_2870de01b601283699da779de20905fc>@@X@?$_Func_impl_no_alloc@V<lambda_2870de01b601283699da779de20905fc>@@XPAVDisplayableObject@@@std@@QAE@ABV<lambda_2870de01b601283699da779de20905fc>@@@Z 00435980 f i JigsawDemo.obj
 0001:000349c0       ??$?0ABV<lambda_341a6657abb2758c42a6873833e6116f>@@X@?$_Func_impl_no_alloc@V<lambda_341a6657abb2758c42a6873833e6116f>@@XPAVDisplayableObject@@@std@@QAE@ABV<lambda_341a6657abb2758c42a6873833e6116f>@@@Z 004359c0 f i JigsawDemo.obj
 0001:00034a10       ??$?0ABV<lambda_369f3aee610e50bbd15c3a78d9c8686f>@@X@?$_Func_impl_no_alloc@V<lambda_369f3aee610e50bbd15c3a78d9c8686f>@@XPAVDisplayableObject@@@std@@QAE@ABV<lambda_369f3aee610e50bbd15c3a78d9c8686f>@@@Z 00435a10 f i JigsawDemo.obj
 0001:00034a60       ??$?0ABV<lambda_4d3c514b9e5ad6cc29096aa3b57f98f2>@@X@?$_Func_impl_no_alloc@V<lambda_4d3c514b9e5ad6cc29096aa3b57f98f2>@@XPAVDisplayableObject@@@std@@QAE@ABV<lambda_4d3c514b9e5ad6cc29096aa3b57f98f2>@@@Z 00435a60 f i JigsawDemo.obj
 0001:00034ab0       ??$?0ABV<lambda_817584b2460f1bcab806f46a25c321a8>@@X@?$_Func_impl_no_alloc@V<lambda_817584b2460f1bcab806f46a25c321a8>@@XPAVDisplayableObject@@@std@@QAE@ABV<lambda_817584b2460f1bcab806f46a25c321a8>@@@Z 00435ab0 f i JigsawDemo.obj
 0001:00034bd0       ??$?0V<lambda_2870de01b601283699da779de20905fc>@@X@?$_Func_impl_no_alloc@V<lambda_2870de01b601283699da779de20905fc>@@XPAVDisplayableObject@@@std@@QAE@$$QAV<lambda_2870de01b601283699da779de20905fc>@@@Z 00435bd0 f i JigsawDemo.obj
 0001:00034c10       ??$?0V<lambda_2870de01b601283699da779de20905fc>@@X@?$function@$$A6AXPAVDisplayableObject@@@Z@std@@QAE@V<lambda_2870de01b601283699da779de20905fc>@@@Z 00435c10 f i JigsawDemo.obj
 0001:00034c90       ??$?0V<lambda_341a6657abb2758c42a6873833e6116f>@@X@?$_Func_impl_no_alloc@V<lambda_341a6657abb2758c42a6873833e6116f>@@XPAVDisplayableObject@@@std@@QAE@$$QAV<lambda_341a6657abb2758c42a6873833e6116f>@@@Z 00435c90 f i JigsawDemo.obj
 0001:00034ce0       ??$?0V<lambda_341a6657abb2758c42a6873833e6116f>@@X@?$function@$$A6AXPAVDisplayableObject@@@Z@std@@QAE@V<lambda_341a6657abb2758c42a6873833e6116f>@@@Z 00435ce0 f i JigsawDemo.obj
 0001:00034d60       ??$?0V<lambda_369f3aee610e50bbd15c3a78d9c8686f>@@X@?$_Func_impl_no_alloc@V<lambda_369f3aee610e50bbd15c3a78d9c8686f>@@XPAVDisplayableObject@@@std@@QAE@$$QAV<lambda_369f3aee610e50bbd15c3a78d9c8686f>@@@Z 00435d60 f i JigsawDemo.obj
 0001:00034db0       ??$?0V<lambda_369f3aee610e50bbd15c3a78d9c8686f>@@X@?$function@$$A6AXPAVDisplayableObject@@@Z@std@@QAE@V<lambda_369f3aee610e50bbd15c3a78d9c8686f>@@@Z 00435db0 f i JigsawDemo.obj
 0001:00034e30       ??$?0V<lambda_4d3c514b9e5ad6cc29096aa3b57f98f2>@@X@?$_Func_impl_no_alloc@V<lambda_4d3c514b9e5ad6cc29096aa3b57f98f2>@@XPAVDisplayableObject@@@std@@QAE@$$QAV<lambda_4d3c514b9e5ad6cc29096aa3b57f98f2>@@@Z 00435e30 f i JigsawDemo.obj
 0001:00034e80       ??$?0V<lambda_4d3c514b9e5ad6cc29096aa3b57f98f2>@@X@?$function@$$A6AXPAVDisplayableObject@@@Z@std@@QAE@V<lambda_4d3c514b9e5ad6cc29096aa3b57f98f2>@@@Z 00435e80 f i JigsawDemo.obj
 0001:00034f00       ??$?0V<lambda_817584b2460f1bcab806f46a25c321a8>@@X@?$_Func_impl_no_alloc@V<lambda_817584b2460f1bcab806f46a25c321a8>@@XPAVDisplayableObject@@@std@@QAE@$$QAV<lambda_817584b2460f1bcab806f46a25c321a8>@@@Z 00435f00 f i JigsawDemo.obj
 0001:00034f50       ??$?0V<lambda_817584b2460f1bcab806f46a25c321a8>@@X@?$function@$$A6AXPAVDisplayableObject@@@Z@std@@QAE@V<lambda_817584b2460f1bcab806f46a25c321a8>@@@Z 00435f50 f i JigsawDemo.obj
 0001:00035220       ??$_Adl_verify_range1@V?$_Vector_const_iterator@V?$_Vector_val@U?$_Simple_types@PAVDisplayableObject@@@std@@@std@@@std@@V12@@std@@YAXABV?$_Vector_const_iterator@V?$_Vector_val@U?$_Simple_types@PAVDisplayableObject@@@std@@@std@@@0@0U?$integral_constant@_N$00@0@@Z 00436220 f i JigsawDemo.obj
 0001:00035240       ??$_Adl_verify_range1@V?$_Vector_iterator@V?$_Vector_val@U?$_Simple_types@PAVDisplayableObject@@@std@@@std@@@std@@V12@@std@@YAXABV?$_Vector_iterator@V?$_Vector_val@U?$_Simple_types@PAVDisplayableObject@@@std@@@std@@@0@0U?$integral_constant@_N$00@0@@Z 00436240 f i JigsawDemo.obj
 0001:00035260       ??$_Adl_verify_range@V?$_Vector_const_iterator@V?$_Vector_val@U?$_Simple_types@PAVDisplayableObject@@@std@@@std@@@std@@V12@@std@@YAXABV?$_Vector_const_iterator@V?$_Vector_val@U?$_Simple_types@PAVDisplayableObject@@@std@@@std@@@0@0@Z 00436260 f i JigsawDemo.obj
 0001:00035290       ??$_Adl_verify_range@V?$_Vector_iterator@V?$_Vector_val@U?$_Simple_types@PAVDisplayableObject@@@std@@@std@@@std@@V12@@std@@YAXABV?$_Vector_iterator@V?$_Vector_val@U?$_Simple_types@PAVDisplayableObject@@@std@@@std@@@0@0@Z 00436290 f i JigsawDemo.obj
 0001:000352c0       ??$_Call@AAV<lambda_2870de01b601283699da779de20905fc>@@PAVDisplayableObject@@@?$_Invoker_ret@X$00@std@@SAXAAV<lambda_2870de01b601283699da779de20905fc>@@$$QAPAVDisplayableObject@@@Z 004362c0 f i JigsawDemo.obj
 0001:000352f0       ??$_Call@AAV<lambda_2870de01b601283699da779de20905fc>@@PAVDisplayableObject@@@_Invoker_functor@std@@SAXAAV<lambda_2870de01b601283699da779de20905fc>@@$$QAPAVDisplayableObject@@@Z 004362f0 f i JigsawDemo.obj
 0001:00035320       ??$_Call@AAV<lambda_341a6657abb2758c42a6873833e6116f>@@PAVDisplayableObject@@@?$_Invoker_ret@X$00@std@@SAXAAV<lambda_341a6657abb2758c42a6873833e6116f>@@$$QAPAVDisplayableObject@@@Z 00436320 f i JigsawDemo.obj
 0001:00035350       ??$_Call@AAV<lambda_341a6657abb2758c42a6873833e6116f>@@PAVDisplayableObject@@@_Invoker_functor@std@@SAXAAV<lambda_341a6657abb2758c42a6873833e6116f>@@$$QAPAVDisplayableObject@@@Z 00436350 f i JigsawDemo.obj
 0001:00035380       ??$_Call@AAV<lambda_369f3aee610e50bbd15c3a78d9c8686f>@@PAVDisplayableObject@@@?$_Invoker_ret@X$00@std@@SAXAAV<lambda_369f3aee610e50bbd15c3a78d9c8686f>@@$$QAPAVDisplayableObject@@@Z 00436380 f i JigsawDemo.obj
 0001:000353b0       ??$_Call@AAV<lambda_369f3aee610e50bbd15c3a78d9c8686f>@@PAVDisplayableObject@@@_Invoker_functor@std@@SAXAAV<lambda_369f3aee610e50bbd15c3a78d9c8686f>@@$$QAPAVDisplayableObject@@@Z 004363b0 f i JigsawDemo.obj
 0001:000353e0       ??$_Call@AAV<lambda_4d3c514b9e5ad6cc29096aa3b57f98f2>@@PAVDisplayableObject@@@?$_Invoker_ret@X$00@std@@SAXAAV<lambda_4d3c514b9e5ad6cc29096aa3b57f98f2>@@$$QAPAVDisplayableObject@@@Z 004363e0 f i JigsawDemo.obj
 0001:00035410       ??$_Call@AAV<lambda_4d3c514b9e5ad6cc29096aa3b57f98f2>@@PAVDisplayableObject@@@_Invoker_functor@std@@SAXAAV<lambda_4d3c514b9e5ad6cc29096aa3b57f98f2>@@$$QAPAVDisplayableObject@@@Z 00436410 f i JigsawDemo.obj
 0001:00035440       ??$_Call@AAV<lambda_817584b2460f1bcab806f46a25c321a8>@@PAVDisplayableObject@@@?$_Invoker_ret@X$00@std@@SAXAAV<lambda_817584b2460f1bcab806f46a25c321a8>@@$$QAPAVDisplayableObject@@@Z 00436440 f i JigsawDemo.obj
 0001:00035470       ??$_Call@AAV<lambda_817584b2460f1bcab806f46a25c321a8>@@PAVDisplayableObject@@@_Invoker_functor@std@@SAXAAV<lambda_817584b2460f1bcab806f46a25c321a8>@@$$QAPAVDisplayableObject@@@Z 00436470 f i JigsawDemo.obj
 0001:000355c0       ??$_Const_cast@QAVDisplayableObject@@@std@@YA@PBQAVDisplayableObject@@@Z 004365c0 f i JigsawDemo.obj
 0001:000355d0       ??$_Deallocate@$03$0A@@std@@YAXPAXI@Z 004365d0 f i JigsawDemo.obj
 0001:00035610       ??$_Find_unchecked1@PAPAVDisplayableObject@@PAV1@@std@@YAPAPAVDisplayableObject@@PAPAV1@QAPAV1@ABQAV1@U?$integral_constant@_N$0A@@0@@Z 00436610 f i JigsawDemo.obj
 0001:00035650       ??$_Find_unchecked@PAPAVDisplayableObject@@PAV1@@std@@YAPAPAVDisplayableObject@@QAPAV1@0ABQAV1@@Z 00436650 f i JigsawDemo.obj
 0001:00035680       ??$_Get_unwrapped@V?$_Vector_const_iterator@V?$_Vector_val@U?$_Simple_types@PAVDisplayableObject@@@std@@@std@@@std@@$0A@@std@@YA@ABV?$_Vector_const_iterator@V?$_Vector_val@U?$_Simple_types@PAVDisplayableObject@@@std@@@std@@@0@@Z 00436680 f i JigsawDemo.obj
 0001:00035690       ??$_Get_unwrapped@V?$_Vector_iterator@V?$_Vector_val@U?$_Simple_types@PAVDisplayableObject@@@std@@@std@@@std@@$0A@@std@@YA@ABV?$_Vector_iterator@V?$_Vector_val@U?$_Simple_types@PAVDisplayableObject@@@std@@@std@@@0@@Z 00436690 f i JigsawDemo.obj
 0001:000356a0       ??$_Reset@V<lambda_2870de01b601283699da779de20905fc>@@@?$_Func_class@XPAVDisplayableObject@@@std@@IAEX$$QAV<lambda_2870de01b601283699da779de20905fc>@@@Z 004366a0 f i JigsawDemo.obj
 0001:000356f0       ??$_Reset@V<lambda_341a6657abb2758c42a6873833e6116f>@@@?$_Func_class@XPAVDisplayableObject@@@std@@IAEX$$QAV<lambda_341a6657abb2758c42a6873833e6116f>@@@Z 004366f0 f i JigsawDemo.obj
 0001:00035740       ??$_Reset@V<lambda_369f3aee610e50bbd15c3a78d9c8686f>@@@?$_Func_class@XPAVDisplayableObject@@@std@@IAEX$$QAV<lambda_369f3aee610e50bbd15c3a78d9c8686f>@@@Z 00436740 f i JigsawDemo.obj
 0001:00035790       ??$_Reset@V<lambda_4d3c514b9e5ad6cc29096aa3b57f98f2>@@@?$_Func_class@XPAVDisplayableObject@@@std@@IAEX$$QAV<lambda_4d3c514b9e5ad6cc29096aa3b57f98f2>@@@Z 00436790 f i JigsawDemo.obj
 0001:000357e0       ??$_Reset@V<lambda_817584b2460f1bcab806f46a25c321a8>@@@?$_Func_class@XPAVDisplayableObject@@@std@@IAEX$$QAV<lambda_817584b2460f1bcab806f46a25c321a8>@@@Z 004367e0 f i JigsawDemo.obj
 0001:00035920       ??$_Reset_impl@V?$_Func_impl_no_alloc@V<lambda_2870de01b601283699da779de20905fc>@@XPAVDisplayableObject@@@std@@V<lambda_2870de01b601283699da779de20905fc>@@@?$_Func_class@XPAVDisplayableObject@@@std@@IAEX$$QAV<lambda_2870de01b601283699da779de20905fc>@@U?$integral_constant@_N$0A@@1@@Z 00436920 f i JigsawDemo.obj
 0001:00035980       ??$_Reset_impl@V?$_Func_impl_no_alloc@V<lambda_341a6657abb2758c42a6873833e6116f>@@XPAVDisplayableObject@@@std@@V<lambda_341a6657abb2758c42a6873833e6116f>@@@?$_Func_class@XPAVDisplayableObject@@@std@@IAEX$$QAV<lambda_341a6657abb2758c42a6873833e6116f>@@U?$integral_constant@_N$0A@@1@@Z 00436980 f i JigsawDemo.obj
 0001:000359e0       ??$_Reset_impl@V?$_Func_impl_no_alloc@V<lambda_369f3aee610e50bbd15c3a78d9c8686f>@@XPAVDisplayableObject@@@std@@V<lambda_369f3aee610e50bbd15c3a78d9c8686f>@@@?$_Func_class@XPAVDisplayableObject@@@std@@IAEX$$QAV<lambda_369f3aee610e50bbd15c3a78d9c8686f>@@U?$integral_constant@_N$0A@@1@@Z 004369e0 f i JigsawDemo.obj
 0001:00035a40       ??$_Reset_impl@V?$_Func_impl_no_alloc@V<lambda_4d3c514b9e5ad6cc29096aa3b57f98f2>@@XPAVDisplayableObject@@@std@@V<lambda_4d3c514b9e5ad6cc29096aa3b57f98f2>@@@?$_Func_class@XPAVDisplayableObject@@@std@@IAEX$$QAV<lambda_4d3c514b9e5ad6cc29096aa3b57f98f2>@@U?$integral_constant@_N$0A@@1@@Z 00436a40 f i JigsawDemo.obj
 0001:00035aa0       ??$_Reset_impl@V?$_Func_impl_no_alloc@V<lambda_817584b2460f1bcab806f46a25c321a8>@@XPAVDisplayableObject@@@std@@V<lambda_817584b2460f1bcab806f46a25c321a8>@@@?$_Func_class@XPAVDisplayableObject@@@std@@IAEX$$QAV<lambda_817584b2460f1bcab806f46a25c321a8>@@U?$integral_constant@_N$0A@@1@@Z 00436aa0 f i JigsawDemo.obj
 0001:00035c20       ??$_Seek_wrapped@V?$_Vector_iterator@V?$_Vector_val@U?$_Simple_types@PAVDisplayableObject@@@std@@@std@@@std@@PAPAVDisplayableObject@@$0A@@std@@YAXAAV?$_Vector_iterator@V?$_Vector_val@U?$_Simple_types@PAVDisplayableObject@@@std@@@std@@@0@ABQAPAVDisplayableObject@@@Z 00436c20 f i JigsawDemo.obj
 0001:00035c40       ??$_Test_callable@V<lambda_2870de01b601283699da779de20905fc>@@@std@@YA_NABV<lambda_2870de01b601283699da779de20905fc>@@@Z 00436c40 f i JigsawDemo.obj
 0001:00035c60       ??$_Test_callable@V<lambda_2870de01b601283699da779de20905fc>@@@std@@YA_NABV<lambda_2870de01b601283699da779de20905fc>@@U?$integral_constant@_N$0A@@0@@Z 00436c60 f i JigsawDemo.obj
 0001:00035c70       ??$_Test_callable@V<lambda_341a6657abb2758c42a6873833e6116f>@@@std@@YA_NABV<lambda_341a6657abb2758c42a6873833e6116f>@@@Z 00436c70 f i JigsawDemo.obj
 0001:00035c90       ??$_Test_callable@V<lambda_341a6657abb2758c42a6873833e6116f>@@@std@@YA_NABV<lambda_341a6657abb2758c42a6873833e6116f>@@U?$integral_constant@_N$0A@@0@@Z 00436c90 f i JigsawDemo.obj
 0001:00035ca0       ??$_Test_callable@V<lambda_369f3aee610e50bbd15c3a78d9c8686f>@@@std@@YA_NABV<lambda_369f3aee610e50bbd15c3a78d9c8686f>@@@Z 00436ca0 f i JigsawDemo.obj
 0001:00035cc0       ??$_Test_callable@V<lambda_369f3aee610e50bbd15c3a78d9c8686f>@@@std@@YA_NABV<lambda_369f3aee610e50bbd15c3a78d9c8686f>@@U?$integral_constant@_N$0A@@0@@Z 00436cc0 f i JigsawDemo.obj
 0001:00035cd0       ??$_Test_callable@V<lambda_4d3c514b9e5ad6cc29096aa3b57f98f2>@@@std@@YA_NABV<lambda_4d3c514b9e5ad6cc29096aa3b57f98f2>@@@Z 00436cd0 f i JigsawDemo.obj
 0001:00035cf0       ??$_Test_callable@V<lambda_4d3c514b9e5ad6cc29096aa3b57f98f2>@@@std@@YA_NABV<lambda_4d3c514b9e5ad6cc29096aa3b57f98f2>@@U?$integral_constant@_N$0A@@0@@Z 00436cf0 f i JigsawDemo.obj
 0001:00035d00       ??$_Test_callable@V<lambda_817584b2460f1bcab806f46a25c321a8>@@@std@@YA_NABV<lambda_817584b2460f1bcab806f46a25c321a8>@@@Z 00436d00 f i JigsawDemo.obj
 0001:00035d20       ??$_Test_callable@V<lambda_817584b2460f1bcab806f46a25c321a8>@@@std@@YA_NABV<lambda_817584b2460f1bcab806f46a25c321a8>@@U?$integral_constant@_N$0A@@0@@Z 00436d20 f i JigsawDemo.obj
 0001:00035dc0       ??$addressof@$$CBV<lambda_2870de01b601283699da779de20905fc>@@@std@@YAPBV<lambda_2870de01b601283699da779de20905fc>@@ABV1@@Z 00436dc0 f i JigsawDemo.obj
 0001:00035dd0       ??$addressof@$$CBV<lambda_341a6657abb2758c42a6873833e6116f>@@@std@@YAPBV<lambda_341a6657abb2758c42a6873833e6116f>@@ABV1@@Z 00436dd0 f i JigsawDemo.obj
 0001:00035de0       ??$addressof@$$CBV<lambda_369f3aee610e50bbd15c3a78d9c8686f>@@@std@@YAPBV<lambda_369f3aee610e50bbd15c3a78d9c8686f>@@ABV1@@Z 00436de0 f i JigsawDemo.obj
 0001:00035df0       ??$addressof@$$CBV<lambda_4d3c514b9e5ad6cc29096aa3b57f98f2>@@@std@@YAPBV<lambda_4d3c514b9e5ad6cc29096aa3b57f98f2>@@ABV1@@Z 00436df0 f i JigsawDemo.obj
 0001:00035e00       ??$addressof@$$CBV<lambda_817584b2460f1bcab806f46a25c321a8>@@@std@@YAPBV<lambda_817584b2460f1bcab806f46a25c321a8>@@ABV1@@Z 00436e00 f i JigsawDemo.obj
 0001:00035e40       ??$find@V?$_Vector_iterator@V?$_Vector_val@U?$_Simple_types@PAVDisplayableObject@@@std@@@std@@@std@@PAVDisplayableObject@@@std@@YA?AV?$_Vector_iterator@V?$_Vector_val@U?$_Simple_types@PAVDisplayableObject@@@std@@@std@@@0@V10@V10@ABQAVDisplayableObject@@@Z 00436e40 f i JigsawDemo.obj
 0001:00035f30       ??$for_each@V?$_Vector_const_iterator@V?$_Vector_val@U?$_Simple_types@PAVDisplayableObject@@@std@@@std@@@std@@V?$function@$$A6AXPAVDisplayableObject@@@Z@2@@std@@YA?AV?$function@$$A6AXPAVDisplayableObject@@@Z@0@V?$_Vector_const_iterator@V?$_Vector_val@U?$_Simple_types@PAVDisplayableObject@@@std@@@std@@@0@0V10@@Z 00436f30 f i JigsawDemo.obj
 0001:00036040       ??$forward@AAV<lambda_2870de01b601283699da779de20905fc>@@@std@@YAAAV<lambda_2870de01b601283699da779de20905fc>@@AAV1@@Z 00437040 f i JigsawDemo.obj
 0001:00036050       ??$forward@AAV<lambda_341a6657abb2758c42a6873833e6116f>@@@std@@YAAAV<lambda_341a6657abb2758c42a6873833e6116f>@@AAV1@@Z 00437050 f i JigsawDemo.obj
 0001:00036060       ??$forward@AAV<lambda_369f3aee610e50bbd15c3a78d9c8686f>@@@std@@YAAAV<lambda_369f3aee610e50bbd15c3a78d9c8686f>@@AAV1@@Z 00437060 f i JigsawDemo.obj
 0001:00036070       ??$forward@AAV<lambda_4d3c514b9e5ad6cc29096aa3b57f98f2>@@@std@@YAAAV<lambda_4d3c514b9e5ad6cc29096aa3b57f98f2>@@AAV1@@Z 00437070 f i JigsawDemo.obj
 0001:00036080       ??$forward@AAV<lambda_817584b2460f1bcab806f46a25c321a8>@@@std@@YAAAV<lambda_817584b2460f1bcab806f46a25c321a8>@@AAV1@@Z 00437080 f i JigsawDemo.obj
 0001:000360c0       ??$forward@ABV<lambda_2870de01b601283699da779de20905fc>@@@std@@YAABV<lambda_2870de01b601283699da779de20905fc>@@ABV1@@Z 004370c0 f i JigsawDemo.obj
 0001:000360d0       ??$forward@ABV<lambda_341a6657abb2758c42a6873833e6116f>@@@std@@YAABV<lambda_341a6657abb2758c42a6873833e6116f>@@ABV1@@Z 004370d0 f i JigsawDemo.obj
 0001:000360e0       ??$forward@ABV<lambda_369f3aee610e50bbd15c3a78d9c8686f>@@@std@@YAABV<lambda_369f3aee610e50bbd15c3a78d9c8686f>@@ABV1@@Z 004370e0 f i JigsawDemo.obj
 0001:000360f0       ??$forward@ABV<lambda_4d3c514b9e5ad6cc29096aa3b57f98f2>@@@std@@YAABV<lambda_4d3c514b9e5ad6cc29096aa3b57f98f2>@@ABV1@@Z 004370f0 f i JigsawDemo.obj
 0001:00036100       ??$forward@ABV<lambda_817584b2460f1bcab806f46a25c321a8>@@@std@@YAABV<lambda_817584b2460f1bcab806f46a25c321a8>@@ABV1@@Z 00437100 f i JigsawDemo.obj
 0001:00036140       ??$forward@PAVDisplayableObject@@@std@@YA$$QAPAVDisplayableObject@@AAPAV1@@Z 00437140 f i JigsawDemo.obj
 0001:00036150       ??$forward@V<lambda_2870de01b601283699da779de20905fc>@@@std@@YA$$QAV<lambda_2870de01b601283699da779de20905fc>@@AAV1@@Z 00437150 f i JigsawDemo.obj
 0001:00036160       ??$forward@V<lambda_341a6657abb2758c42a6873833e6116f>@@@std@@YA$$QAV<lambda_341a6657abb2758c42a6873833e6116f>@@AAV1@@Z 00437160 f i JigsawDemo.obj
 0001:00036170       ??$forward@V<lambda_369f3aee610e50bbd15c3a78d9c8686f>@@@std@@YA$$QAV<lambda_369f3aee610e50bbd15c3a78d9c8686f>@@AAV1@@Z 00437170 f i JigsawDemo.obj
 0001:00036180       ??$forward@V<lambda_4d3c514b9e5ad6cc29096aa3b57f98f2>@@@std@@YA$$QAV<lambda_4d3c514b9e5ad6cc29096aa3b57f98f2>@@AAV1@@Z 00437180 f i JigsawDemo.obj
 0001:00036190       ??$forward@V<lambda_817584b2460f1bcab806f46a25c321a8>@@@std@@YA$$QAV<lambda_817584b2460f1bcab806f46a25c321a8>@@AAV1@@Z 00437190 f i JigsawDemo.obj
 0001:000361d0       ??$invoke@AAV<lambda_2870de01b601283699da779de20905fc>@@PAVDisplayableObject@@@std@@YAXAAV<lambda_2870de01b601283699da779de20905fc>@@$$QAPAVDisplayableObject@@@Z 004371d0 f i JigsawDemo.obj
 0001:00036200       ??$invoke@AAV<lambda_341a6657abb2758c42a6873833e6116f>@@PAVDisplayableObject@@@std@@YAXAAV<lambda_341a6657abb2758c42a6873833e6116f>@@$$QAPAVDisplayableObject@@@Z 00437200 f i JigsawDemo.obj
 0001:00036230       ??$invoke@AAV<lambda_369f3aee610e50bbd15c3a78d9c8686f>@@PAVDisplayableObject@@@std@@YAXAAV<lambda_369f3aee610e50bbd15c3a78d9c8686f>@@$$QAPAVDisplayableObject@@@Z 00437230 f i JigsawDemo.obj
 0001:00036260       ??$invoke@AAV<lambda_4d3c514b9e5ad6cc29096aa3b57f98f2>@@PAVDisplayableObject@@@std@@YAXAAV<lambda_4d3c514b9e5ad6cc29096aa3b57f98f2>@@$$QAPAVDisplayableObject@@@Z 00437260 f i JigsawDemo.obj
 0001:00036290       ??$invoke@AAV<lambda_817584b2460f1bcab806f46a25c321a8>@@PAVDisplayableObject@@@std@@YAXAAV<lambda_817584b2460f1bcab806f46a25c321a8>@@$$QAPAVDisplayableObject@@@Z 00437290 f i JigsawDemo.obj
 0001:00036350       ??$move@AAH@std@@YA$$QAHAAH@Z 00437350 f i JigsawDemo.obj
 0001:00036360       ??$move@AAV<lambda_2870de01b601283699da779de20905fc>@@@std@@YA$$QAV<lambda_2870de01b601283699da779de20905fc>@@AAV1@@Z 00437360 f i JigsawDemo.obj
 0001:00036370       ??$move@AAV<lambda_341a6657abb2758c42a6873833e6116f>@@@std@@YA$$QAV<lambda_341a6657abb2758c42a6873833e6116f>@@AAV1@@Z 00437370 f i JigsawDemo.obj
 0001:00036380       ??$move@AAV<lambda_369f3aee610e50bbd15c3a78d9c8686f>@@@std@@YA$$QAV<lambda_369f3aee610e50bbd15c3a78d9c8686f>@@AAV1@@Z 00437380 f i JigsawDemo.obj
 0001:00036390       ??$move@AAV<lambda_4d3c514b9e5ad6cc29096aa3b57f98f2>@@@std@@YA$$QAV<lambda_4d3c514b9e5ad6cc29096aa3b57f98f2>@@AAV1@@Z 00437390 f i JigsawDemo.obj
 0001:000363a0       ??$move@AAV<lambda_817584b2460f1bcab806f46a25c321a8>@@@std@@YA$$QAV<lambda_817584b2460f1bcab806f46a25c321a8>@@AAV1@@Z 004373a0 f i JigsawDemo.obj
 0001:000363e0       ??$move@AAV?$function@$$A6AXPAVDisplayableObject@@@Z@std@@@std@@YA$$QAV?$function@$$A6AXPAVDisplayableObject@@@Z@0@AAV10@@Z 004373e0 f i JigsawDemo.obj
 0001:000363f0       ??$swap@HX@std@@YAXAAH0@Z  004373f0 f i JigsawDemo.obj
 0001:00036440       ??0<lambda_341a6657abb2758c42a6873833e6116f>@@QAE@QAVJigsawPiece@@@Z 00437440 f i JigsawDemo.obj
 0001:00036460       ??0<lambda_369f3aee610e50bbd15c3a78d9c8686f>@@QAE@QAVJigsawPiece@@@Z 00437460 f i JigsawDemo.obj
 0001:00036480       ??0<lambda_4d3c514b9e5ad6cc29096aa3b57f98f2>@@QAE@QAVJigsawPiece@@@Z 00437480 f i JigsawDemo.obj
 0001:000364a0       ??0<lambda_817584b2460f1bcab806f46a25c321a8>@@QAE@QAVJigsawPiece@@@Z 004374a0 f i JigsawDemo.obj
 0001:000364f0       ??0?$_Func_base@XPAVDisplayableObject@@@std@@QAE@XZ 004374f0 f i JigsawDemo.obj
 0001:00036510       ??0?$_Func_class@XPAVDisplayableObject@@@std@@QAE@XZ 00437510 f i JigsawDemo.obj
 0001:00036530       ??0?$_Vector_iterator@V?$_Vector_val@U?$_Simple_types@PAVDisplayableObject@@@std@@@std@@@std@@QAE@$$QAV01@@Z 00437530 f i JigsawDemo.obj
 0001:00036560       ??0?$function@$$A6AXPAVDisplayableObject@@@Z@std@@QAE@$$QAV01@@Z 00437560 f i JigsawDemo.obj
 0001:000365e0       ??0?$function@$$A6AXPAVDisplayableObject@@@Z@std@@QAE@ABV01@@Z 004375e0 f i JigsawDemo.obj
 0001:00036660       ??0JigsawPiece@@QAE@PAU_iobuf@@HHPAVJigsawDemo@@V?$basic_string@DU?$char_traits@D@std@@V?$allocator@D@2@@std@@HH@Z 00437660 f i JigsawDemo.obj
 0001:00036a50       ??1?$_Func_class@XPAVDisplayableObject@@@std@@QAE@XZ 00437a50 f i JigsawDemo.obj
 0001:00036a70       ??1?$function@$$A6AXPAVDisplayableObject@@@Z@std@@QAE@XZ 00437a70 f i JigsawDemo.obj
 0001:00036a90       ??1JigsawPiece@@UAE@XZ     00437a90 f i JigsawDemo.obj
 0001:00036ab0       ??R<lambda_2870de01b601283699da779de20905fc>@@QBE@PAVDisplayableObject@@@Z 00437ab0 f i JigsawDemo.obj
 0001:00036ae0       ??R<lambda_341a6657abb2758c42a6873833e6116f>@@QBE@PAVDisplayableObject@@@Z 00437ae0 f i JigsawDemo.obj
 0001:00036b10       ??R<lambda_369f3aee610e50bbd15c3a78d9c8686f>@@QBE@PAVDisplayableObject@@@Z 00437b10 f i JigsawDemo.obj
 0001:00036b40       ??R<lambda_4d3c514b9e5ad6cc29096aa3b57f98f2>@@QBE@PAVDisplayableObject@@@Z 00437b40 f i JigsawDemo.obj
 0001:00036b70       ??R<lambda_817584b2460f1bcab806f46a25c321a8>@@QBE@PAVDisplayableObject@@@Z 00437b70 f i JigsawDemo.obj
 0001:00036c60       ??R?$_Func_class@XPAVDisplayableObject@@@std@@QBEXPAVDisplayableObject@@@Z 00437c60 f i JigsawDemo.obj
 0001:00036cc0       ??_EJigsawPiece@@UAEPAXI@Z 00437cc0 f i JigsawDemo.obj
 0001:00036cc0       ??_GJigsawPiece@@UAEPAXI@Z 00437cc0 f i JigsawDemo.obj
 0001:00036d00       ?_Clone@?$_Func_impl_no_alloc@V<lambda_2870de01b601283699da779de20905fc>@@XPAVDisplayableObject@@@std@@ABEPAV?$_Func_base@XPAVDisplayableObject@@@2@PAXU?$integral_constant@_N$0A@@2@@Z 00437d00 f i JigsawDemo.obj
 0001:00036d40       ?_Clone@?$_Func_impl_no_alloc@V<lambda_341a6657abb2758c42a6873833e6116f>@@XPAVDisplayableObject@@@std@@ABEPAV?$_Func_base@XPAVDisplayableObject@@@2@PAXU?$integral_constant@_N$0A@@2@@Z 00437d40 f i JigsawDemo.obj
 0001:00036d80       ?_Clone@?$_Func_impl_no_alloc@V<lambda_369f3aee610e50bbd15c3a78d9c8686f>@@XPAVDisplayableObject@@@std@@ABEPAV?$_Func_base@XPAVDisplayableObject@@@2@PAXU?$integral_constant@_N$0A@@2@@Z 00437d80 f i JigsawDemo.obj
 0001:00036dc0       ?_Clone@?$_Func_impl_no_alloc@V<lambda_4d3c514b9e5ad6cc29096aa3b57f98f2>@@XPAVDisplayableObject@@@std@@ABEPAV?$_Func_base@XPAVDisplayableObject@@@2@PAXU?$integral_constant@_N$0A@@2@@Z 00437dc0 f i JigsawDemo.obj
 0001:00036e00       ?_Clone@?$_Func_impl_no_alloc@V<lambda_817584b2460f1bcab806f46a25c321a8>@@XPAVDisplayableObject@@@std@@ABEPAV?$_Func_base@XPAVDisplayableObject@@@2@PAXU?$integral_constant@_N$0A@@2@@Z 00437e00 f i JigsawDemo.obj
 0001:00036f00       ?_Copy@?$_Func_impl_no_alloc@V<lambda_2870de01b601283699da779de20905fc>@@XPAVDisplayableObject@@@std@@EBEPAV?$_Func_base@XPAVDisplayableObject@@@2@PAX@Z 00437f00 f i JigsawDemo.obj
 0001:00036f30       ?_Copy@?$_Func_impl_no_alloc@V<lambda_341a6657abb2758c42a6873833e6116f>@@XPAVDisplayableObject@@@std@@EBEPAV?$_Func_base@XPAVDisplayableObject@@@2@PAX@Z 00437f30 f i JigsawDemo.obj
 0001:00036f60       ?_Copy@?$_Func_impl_no_alloc@V<lambda_369f3aee610e50bbd15c3a78d9c8686f>@@XPAVDisplayableObject@@@std@@EBEPAV?$_Func_base@XPAVDisplayableObject@@@2@PAX@Z 00437f60 f i JigsawDemo.obj
 0001:00036f90       ?_Copy@?$_Func_impl_no_alloc@V<lambda_4d3c514b9e5ad6cc29096aa3b57f98f2>@@XPAVDisplayableObject@@@std@@EBEPAV?$_Func_base@XPAVDisplayableObject@@@2@PAX@Z 00437f90 f i JigsawDemo.obj
 0001:00036fc0       ?_Copy@?$_Func_impl_no_alloc@V<lambda_817584b2460f1bcab806f46a25c321a8>@@XPAVDisplayableObject@@@std@@EBEPAV?$_Func_base@XPAVDisplayableObject@@@2@PAX@Z 00437fc0 f i JigsawDemo.obj
 0001:00037080       ?_Delete_this@?$_Func_impl_no_alloc@V<lambda_2870de01b601283699da779de20905fc>@@XPAVDisplayableObject@@@std@@EAEX_N@Z 00438080 f i JigsawDemo.obj
 0001:000370e0       ?_Delete_this@?$_Func_impl_no_alloc@V<lambda_341a6657abb2758c42a6873833e6116f>@@XPAVDisplayableObject@@@std@@EAEX_N@Z 004380e0 f i JigsawDemo.obj
 0001:00037140       ?_Delete_this@?$_Func_impl_no_alloc@V<lambda_369f3aee610e50bbd15c3a78d9c8686f>@@XPAVDisplayableObject@@@std@@EAEX_N@Z 00438140 f i JigsawDemo.obj
 0001:000371a0       ?_Delete_this@?$_Func_impl_no_alloc@V<lambda_4d3c514b9e5ad6cc29096aa3b57f98f2>@@XPAVDisplayableObject@@@std@@EAEX_N@Z 004381a0 f i JigsawDemo.obj
 0001:00037200       ?_Delete_this@?$_Func_impl_no_alloc@V<lambda_817584b2460f1bcab806f46a25c321a8>@@XPAVDisplayableObject@@@std@@EAEX_N@Z 00438200 f i JigsawDemo.obj
 0001:00037380       ?_Do_call@?$_Func_impl_no_alloc@V<lambda_2870de01b601283699da779de20905fc>@@XPAVDisplayableObject@@@std@@EAEX$$QAPAVDisplayableObject@@@Z 00438380 f i JigsawDemo.obj
 0001:000373c0       ?_Do_call@?$_Func_impl_no_alloc@V<lambda_341a6657abb2758c42a6873833e6116f>@@XPAVDisplayableObject@@@std@@EAEX$$QAPAVDisplayableObject@@@Z 004383c0 f i JigsawDemo.obj
 0001:00037400       ?_Do_call@?$_Func_impl_no_alloc@V<lambda_369f3aee610e50bbd15c3a78d9c8686f>@@XPAVDisplayableObject@@@std@@EAEX$$QAPAVDisplayableObject@@@Z 00438400 f i JigsawDemo.obj
 0001:00037440       ?_Do_call@?$_Func_impl_no_alloc@V<lambda_4d3c514b9e5ad6cc29096aa3b57f98f2>@@XPAVDisplayableObject@@@std@@EAEX$$QAPAVDisplayableObject@@@Z 00438440 f i JigsawDemo.obj
 0001:00037480       ?_Do_call@?$_Func_impl_no_alloc@V<lambda_817584b2460f1bcab806f46a25c321a8>@@XPAVDisplayableObject@@@std@@EAEX$$QAPAVDisplayableObject@@@Z 00438480 f i JigsawDemo.obj
 0001:00037580       ?_Empty@?$_Func_class@XPAVDisplayableObject@@@std@@IBE_NXZ 00438580 f i JigsawDemo.obj
 0001:000375c0       ?_Get@?$_Func_impl_no_alloc@V<lambda_2870de01b601283699da779de20905fc>@@XPAVDisplayableObject@@@std@@EBEPBXXZ 004385c0 f i JigsawDemo.obj
 0001:000375e0       ?_Get@?$_Func_impl_no_alloc@V<lambda_341a6657abb2758c42a6873833e6116f>@@XPAVDisplayableObject@@@std@@EBEPBXXZ 004385e0 f i JigsawDemo.obj
 0001:00037600       ?_Get@?$_Func_impl_no_alloc@V<lambda_369f3aee610e50bbd15c3a78d9c8686f>@@XPAVDisplayableObject@@@std@@EBEPBXXZ 00438600 f i JigsawDemo.obj
 0001:00037620       ?_Get@?$_Func_impl_no_alloc@V<lambda_4d3c514b9e5ad6cc29096aa3b57f98f2>@@XPAVDisplayableObject@@@std@@EBEPBXXZ 00438620 f i JigsawDemo.obj
 0001:00037640       ?_Get@?$_Func_impl_no_alloc@V<lambda_817584b2460f1bcab806f46a25c321a8>@@XPAVDisplayableObject@@@std@@EBEPBXXZ 00438640 f i JigsawDemo.obj
 0001:000376c0       ?_Getimpl@?$_Func_class@XPAVDisplayableObject@@@std@@ABEPAV?$_Func_base@XPAVDisplayableObject@@@2@XZ 004386c0 f i JigsawDemo.obj
 0001:000376e0       ?_Getspace@?$_Func_class@XPAVDisplayableObject@@@std@@AAEPAXXZ 004386e0 f i JigsawDemo.obj
 0001:00037700       ?_Getspace@?$_Func_class@XPAVDisplayableObject@@@std@@ABEPBXXZ 00438700 f i JigsawDemo.obj
 0001:00037720       ?_Local@?$_Func_class@XPAVDisplayableObject@@@std@@ABE_NXZ 00438720 f i JigsawDemo.obj
 0001:00037770       ?_Move@?$_Func_impl_no_alloc@V<lambda_2870de01b601283699da779de20905fc>@@XPAVDisplayableObject@@@std@@EAEPAV?$_Func_base@XPAVDisplayableObject@@@2@PAX@Z 00438770 f i JigsawDemo.obj
 0001:000377c0       ?_Move@?$_Func_impl_no_alloc@V<lambda_341a6657abb2758c42a6873833e6116f>@@XPAVDisplayableObject@@@std@@EAEPAV?$_Func_base@XPAVDisplayableObject@@@2@PAX@Z 004387c0 f i JigsawDemo.obj
 0001:00037810       ?_Move@?$_Func_impl_no_alloc@V<lambda_369f3aee610e50bbd15c3a78d9c8686f>@@XPAVDisplayableObject@@@std@@EAEPAV?$_Func_base@XPAVDisplayableObject@@@2@PAX@Z 00438810 f i JigsawDemo.obj
 0001:00037860       ?_Move@?$_Func_impl_no_alloc@V<lambda_4d3c514b9e5ad6cc29096aa3b57f98f2>@@XPAVDisplayableObject@@@std@@EAEPAV?$_Func_base@XPAVDisplayableObject@@@2@PAX@Z 00438860 f i JigsawDemo.obj
 0001:000378b0       ?_Move@?$_Func_impl_no_alloc@V<lambda_817584b2460f1bcab806f46a25c321a8>@@XPAVDisplayableObject@@@std@@EAEPAV?$_Func_base@XPAVDisplayableObject@@@2@PAX@Z 004388b0 f i JigsawDemo.obj
 0001:000379f0       ?_Reset_copy@?$_Func_class@XPAVDisplayableObject@@@std@@IAEXABV12@@Z 004389f0 f i JigsawDemo.obj
 0001:00037a50       ?_Reset_move@?$_Func_class@XPAVDisplayableObject@@@std@@IAEX$$QAV12@@Z 00438a50 f i JigsawDemo.obj
 0001:00037af0       ?_Seek_to@?$_Vector_const_iterator@V?$_Vector_val@U?$_Simple_types@PAVDisplayableObject@@@std@@@std@@@std@@QAEXPBQAVDisplayableObject@@@Z 00438af0 f i JigsawDemo.obj
 0001:00037b20       ?_Set@?$_Func_class@XPAVDisplayableObject@@@std@@AAEXPAV?$_Func_base@XPAVDisplayableObject@@@2@@Z 00438b20 f i JigsawDemo.obj
 0001:00037b50       ?_Target_type@?$_Func_impl_no_alloc@V<lambda_2870de01b601283699da779de20905fc>@@XPAVDisplayableObject@@@std@@EBEABVtype_info@@XZ 00438b50 f i JigsawDemo.obj
 0001:00037b70       ?_Target_type@?$_Func_impl_no_alloc@V<lambda_341a6657abb2758c42a6873833e6116f>@@XPAVDisplayableObject@@@std@@EBEABVtype_info@@XZ 00438b70 f i JigsawDemo.obj
 0001:00037b90       ?_Target_type@?$_Func_impl_no_alloc@V<lambda_369f3aee610e50bbd15c3a78d9c8686f>@@XPAVDisplayableObject@@@std@@EBEABVtype_info@@XZ 00438b90 f i JigsawDemo.obj
 0001:00037bb0       ?_Target_type@?$_Func_impl_no_alloc@V<lambda_4d3c514b9e5ad6cc29096aa3b57f98f2>@@XPAVDisplayableObject@@@std@@EBEABVtype_info@@XZ 00438bb0 f i JigsawDemo.obj
 0001:00037bd0       ?_Target_type@?$_Func_impl_no_alloc@V<lambda_817584b2460f1bcab806f46a25c321a8>@@XPAVDisplayableObject@@@std@@EBEABVtype_info@@XZ 00438bd0 f i JigsawDemo.obj
 0001:00037c50       ?_Tidy@?$_Func_class@XPAVDisplayableObject@@@std@@IAEXXZ 00438c50 f i JigsawDemo.obj
 0001:00037cd0       ?_Unwrapped@?$_Vector_const_iterator@V?$_Vector_val@U?$_Simple_types@PAVDisplayableObject@@@std@@@std@@@std@@QBEPBQAVDisplayableObject@@XZ 00438cd0 f i JigsawDemo.obj
 0001:00037cf0       ?_Unwrapped@?$_Vector_iterator@V?$_Vector_val@U?$_Simple_types@PAVDisplayableObject@@@std@@@std@@@std@@QBEPAPAVDisplayableObject@@XZ 00438cf0 f i JigsawDemo.obj
 0001:00037d10       ?_Verify_range@std@@YAXABV?$_Vector_const_iterator@V?$_Vector_val@U?$_Simple_types@PAVDisplayableObject@@@std@@@std@@@1@0@Z 00438d10 f i JigsawDemo.obj
 0001:00037e10       ?applyToAll@DisplayableObjectContainer@@QBEXV?$function@$$A6AXPAVDisplayableObject@@@Z@std@@@Z 00438e10 f i JigsawDemo.obj
 0001:00037ef0       ?changeOffset@FilterPointsTranslation@@QAEXHH@Z 00438ef0 f i JigsawDemo.obj
 0001:00037f30       ?checkForLinksWithOthers@JigsawPiece@@QAEXXZ 00438f30 f i JigsawDemo.obj
 0001:00038050       ?checkJoinBottom@JigsawPiece@@QAEXPAV1@@Z 00439050 f i JigsawDemo.obj
 0001:00038120       ?checkJoinLeft@JigsawPiece@@QAEXPAV1@@Z 00439120 f i JigsawDemo.obj
 0001:000381f0       ?checkJoinRight@JigsawPiece@@QAEXPAV1@@Z 004391f0 f i JigsawDemo.obj
 0001:000382c0       ?checkJoinTop@JigsawPiece@@QAEXPAV1@@Z 004392c0 f i JigsawDemo.obj
 0001:00038390       ?compress@FilterPointsScaling@@QAEXXZ 00439390 f i JigsawDemo.obj
 0001:000383c0       ?compressX@FilterPointsScaling@@QAEXXZ 004393c0 f i JigsawDemo.obj
 0001:00038410       ?compressY@FilterPointsScaling@@QAEXXZ 00439410 f i JigsawDemo.obj
 0001:00038460       ?convertClickedToVirtualPixelXPosition@BaseEngine@@QAEHH@Z 00439460 f i JigsawDemo.obj
 0001:00038490       ?convertClickedToVirtualPixelYPosition@BaseEngine@@QAEHH@Z 00439490 f i JigsawDemo.obj
 0001:000384c0       ?doDragRedraw@JigsawPiece@@UAEXXZ 004394c0 f i JigsawDemo.obj
 0001:000384e0       ?getMode@JigsawDemo@@QAE?AW4mode@1@XZ 004394e0 f i JigsawDemo.obj
 0001:00038500       ?getXInImage@JigsawPiece@@QAEHXZ 00439500 f i JigsawDemo.obj
 0001:00038520       ?getYInImage@JigsawPiece@@QAEHXZ 00439520 f i JigsawDemo.obj
 0001:00038540       ?joinBottom@JigsawPiece@@QAEXPAV1@@Z 00439540 f i JigsawDemo.obj
 0001:00038570       ?joinLeft@JigsawPiece@@QAEXPAV1@@Z 00439570 f i JigsawDemo.obj
 0001:000385a0       ?joinRight@JigsawPiece@@QAEXPAV1@@Z 004395a0 f i JigsawDemo.obj
 0001:000385d0       ?joinTop@JigsawPiece@@QAEXPAV1@@Z 004395d0 f i JigsawDemo.obj
 0001:00038600       ?mapCoordinates@JigsawPiece@@UAE_NAAN0ABVSimpleImage@@@Z 00439600 f i JigsawDemo.obj
 0001:000387d0       ?moveToLast@DisplayableObjectContainer@@QAE_NPAVDisplayableObject@@@Z 004397d0 f i JigsawDemo.obj
 0001:00038960       ?recursiveDrag@JigsawPiece@@UAEXHH@Z 00439960 f i JigsawDemo.obj
 0001:00038ac0       ?setFilter@JigsawPiece@@QAEXPAVPieceFilter@@@Z 00439ac0 f i JigsawDemo.obj
 0001:00038ae0       ?setOffset@FilterPointsTranslation@@QAEXHH@Z 00439ae0 f i JigsawDemo.obj
 0001:00038b10       ?shouldDraw@PieceFilter@@QAE_NHH@Z 00439b10 f i JigsawDemo.obj
 0001:00038b90       ?stretch@FilterPointsScaling@@QAEXXZ 00439b90 f i JigsawDemo.obj
 0001:00038bc0       ?stretchX@FilterPointsScaling@@QAEXXZ 00439bc0 f i JigsawDemo.obj
 0001:00038c10       ?stretchY@FilterPointsScaling@@QAEXXZ 00439c10 f i JigsawDemo.obj
 0001:00038c60       ?virtDraw@JigsawPiece@@UAEXXZ 00439c60 f i JigsawDemo.obj
 0001:00038d10       ?virtMouseDown@JigsawPiece@@UAEXHHH@Z 00439d10 f i JigsawDemo.obj
 0001:00038d40       ?virtMouseMoved@JigsawPiece@@UAEXHH@Z 00439d40 f i JigsawDemo.obj
 0001:00038e20       ?virtMouseUp@JigsawPiece@@UAEXHHH@Z 00439e20 f i JigsawDemo.obj
 0001:00038ee0       ?virtSingleItemMouseDown@JigsawPiece@@UAE_NHHH@Z 00439ee0 f i JigsawDemo.obj
 0001:00039050       ?write@JigsawPiece@@QAEXPAU_iobuf@@H@Z 0043a050 f i JigsawDemo.obj
 0001:000390c0       ?zoomIn@JigsawDemo@@QAEXXZ 0043a0c0 f i JigsawDemo.obj
 0001:00039190       ?zoomOut@JigsawDemo@@QAEXXZ 0043a190 f i JigsawDemo.obj
 0001:00039260       _fprintf                   0043a260 f i JigsawDemo.obj
 0001:000392a0       _SDL_main                  0043a2a0 f   mainfunction.obj
 0001:00039300       ?doProgram@@YAHHQAPAD@Z    0043a300 f   mainfunction.obj
 0001:00039440       ??1ImageManager@@QAE@XZ    0043a440 f i mainfunction.obj
 0001:00039470       ??_GImageManager@@QAEPAXI@Z 0043a470 f i mainfunction.obj
 0001:000394b0       ?destroyImageManager@ImageManager@@SAXXZ 0043a4b0 f i mainfunction.obj
 0001:00039510       ??0BaseEngine@@QAE@XZ      0043a510 f   BaseEngine.obj
 0001:00039750       ??1BaseEngine@@UAE@XZ      0043a750 f   BaseEngine.obj
 0001:000397a0       ?initialise@BaseEngine@@QAEHPBDHH0H@Z 0043a7a0 f   BaseEngine.obj
 0001:000398d0       ?deinitialise@BaseEngine@@QAEXXZ 0043a8d0 f   BaseEngine.obj
 0001:00039900       ?mainLoop@BaseEngine@@QAEHXZ 0043a900 f   BaseEngine.obj
 0001:00039a30       ?handleEvent@BaseEngine@@QAE_NPATSDL_Event@@@Z 0043aa30 f   BaseEngine.obj
 0001:0003a070       ?isKeyPressed@BaseEngine@@QBE_NH@Z 0043b070 f   BaseEngine.obj
 0001:0003a0a0       ?virtKeyUp@BaseEngine@@UAEXH@Z 0043b0a0 f   BaseEngine.obj
 0001:0003a0b0       ?virtKeyDown@BaseEngine@@UAEXH@Z 0043b0b0 f   BaseEngine.obj
 0001:0003a0c0       ?virtMouseMoved@BaseEngine@@UAEXHH@Z 0043b0c0 f   BaseEngine.obj
 0001:0003a0d0       ?virtMouseDown@BaseEngine@@UAEXHHH@Z 0043b0d0 f   BaseEngine.obj
 0001:0003a0e0       ?virtMouseUp@BaseEngine@@UAEXHHH@Z 0043b0e0 f   BaseEngine.obj
 0001:0003a0f0       ?virtInitialise@BaseEngine@@UAEHXZ 0043b0f0 f   BaseEngine.obj
 0001:0003a140       ?virtCreateWindows@BaseEngine@@UAEXPBD@Z 0043b140 f   BaseEngine.obj
 0001:0003a1d0       ?virtCreateSurfaces@BaseEngine@@UAEXXZ 0043b1d0 f   BaseEngine.obj
 0001:0003a220       ?virtCleanUp@BaseEngine@@UAEXXZ 0043b220 f   BaseEngine.obj
 0001:0003a230       ?virtSetupBackgroundBuffer@BaseEngine@@UAEXXZ 0043b230 f   BaseEngine.obj
 0001:0003a250       ?virtDrawStringsUnderneath@BaseEngine@@UAEXXZ 0043b250 f   BaseEngine.obj
 0001:0003a260       ?virtDrawStringsOnTop@BaseEngine@@UAEXXZ 0043b260 f   BaseEngine.obj
 0001:0003a270       ?virtCheckForUpdateTime@BaseEngine@@UAE_NXZ 0043b270 f   BaseEngine.obj
 0001:0003a2c0       ?virtRenderScreen@BaseEngine@@UAEXXZ 0043b2c0 f   BaseEngine.obj
 0001:0003a450       ?getColour@BaseEngine@@QBEIH@Z 0043b450 f   BaseEngine.obj
 0001:0003a690       ?virtInitialiseObjects@BaseEngine@@UAEHXZ 0043b690 f   BaseEngine.obj
 0001:0003a6c0       ?drawAllObjects@BaseEngine@@UAEXXZ 0043b6c0 f   BaseEngine.obj
 0001:0003a8a0       ?updateAllObjects@BaseEngine@@UAEXH@Z 0043b8a0 f   BaseEngine.obj
 0001:0003aa80       _mydebug                   0043ba80 f   BaseEngine.obj
 0001:0003b000       ??$?0ABV?$allocator@PAVDisplayableObject@@@std@@$$V@?$_Compressed_pair@V?$allocator@PAVDisplayableObject@@@std@@V?$_Vector_val@U?$_Simple_types@PAVDisplayableObject@@@std@@@2@$00@std@@QAE@U_One_then_variadic_args_t@1@ABV?$allocator@PAVDisplayableObject@@@1@@Z 0043c000 f i BaseEngine.obj
 0001:0003b030       ??$?0ABV?$allocator@PAVDisplayableObject@@@std@@X@?$_Vector_alloc@U?$_Vec_base_types@PAVDisplayableObject@@V?$allocator@PAVDisplayableObject@@@std@@@std@@@std@@QAE@ABV?$allocator@PAVDisplayableObject@@@1@@Z 0043c030 f i BaseEngine.obj
 0001:0003b080       ??$?0PAVDisplayableObject@@@?$allocator@U_Container_proxy@std@@@std@@QAE@ABV?$allocator@PAVDisplayableObject@@@1@@Z 0043c080 f i BaseEngine.obj
 0001:0003b520       ??$forward@ABV?$allocator@PAVDisplayableObject@@@std@@@std@@YAABV?$allocator@PAVDisplayableObject@@@0@ABV10@@Z 0043c520 f i BaseEngine.obj
 0001:0003b5f0       ??0?$_Vector_val@U?$_Simple_types@PAVDisplayableObject@@@std@@@std@@QAE@XZ 0043c5f0 f i BaseEngine.obj
 0001:0003b640       ??0?$allocator@PAVDisplayableObject@@@std@@QAE@XZ 0043c640 f i BaseEngine.obj
 0001:0003b660       ??0?$vector@PAVDisplayableObject@@V?$allocator@PAVDisplayableObject@@@std@@@std@@QAE@IABV?$allocator@PAVDisplayableObject@@@1@@Z 0043c660 f i BaseEngine.obj
 0001:0003b760       ??0DisplayableObjectContainer@@QAE@H@Z 0043c760 f i BaseEngine.obj
 0001:0003b7c0       ??0FilterPoints@@QAE@XZ    0043c7c0 f i BaseEngine.obj
 0001:0003b7e0       ??1?$_Vector_alloc@U?$_Vec_base_types@PAVDisplayableObject@@V?$allocator@PAVDisplayableObject@@@std@@@std@@@std@@QAE@XZ 0043c7e0 f i BaseEngine.obj
 0001:0003b830       ??1?$vector@PAVDisplayableObject@@V?$allocator@PAVDisplayableObject@@@std@@@std@@QAE@XZ 0043c830 f i BaseEngine.obj
 0001:0003b890       ??1DisplayableObjectContainer@@UAE@XZ 0043c890 f i BaseEngine.obj
 0001:0003b900       ??D?$_Vector_iterator@V?$_Vector_val@U?$_Simple_types@PAVDisplayableObject@@@std@@@std@@@std@@QBEAAPAVDisplayableObject@@XZ 0043c900 f i BaseEngine.obj
 0001:0003b920       ??E?$_Vector_iterator@V?$_Vector_val@U?$_Simple_types@PAVDisplayableObject@@@std@@@std@@@std@@QAE?AV01@H@Z 0043c920 f i BaseEngine.obj
 0001:0003b9d0       ??E?$_Vector_iterator@V?$_Vector_val@U?$_Simple_types@PAVDisplayableObject@@@std@@@std@@@std@@QAEAAV01@XZ 0043c9d0 f i BaseEngine.obj
 0001:0003bb60       ??_GBaseEngine@@UAEPAXI@Z  0043cb60 f i BaseEngine.obj
 0001:0003bb60       ??_EBaseEngine@@UAEPAXI@Z  0043cb60 f i BaseEngine.obj
 0001:0003bba0       ??_GDisplayableObjectContainer@@UAEPAXI@Z 0043cba0 f i BaseEngine.obj
 0001:0003bba0       ??_EDisplayableObjectContainer@@UAEPAXI@Z 0043cba0 f i BaseEngine.obj
 0001:0003bbe0       ?_Alloc_proxy@?$_Vector_alloc@U?$_Vec_base_types@PAVDisplayableObject@@V?$allocator@PAVDisplayableObject@@@std@@@std@@@std@@QAEXXZ 0043cbe0 f i BaseEngine.obj
 0001:0003bc80       ?_Buy@?$vector@PAVDisplayableObject@@V?$allocator@PAVDisplayableObject@@@std@@@std@@AAE_NI@Z 0043cc80 f i BaseEngine.obj
 0001:0003bd50       ?_Free_proxy@?$_Vector_alloc@U?$_Vec_base_types@PAVDisplayableObject@@V?$allocator@PAVDisplayableObject@@@std@@@std@@@std@@QAEXXZ 0043cd50 f i BaseEngine.obj
 0001:0003bdd0       ?_Myproxy@?$_Vector_alloc@U?$_Vec_base_types@PAVDisplayableObject@@V?$allocator@PAVDisplayableObject@@@std@@@std@@@std@@QAEAAPAU_Container_proxy@2@XZ 0043cdd0 f i BaseEngine.obj
 0001:0003bdf0       ?_Tidy@?$vector@PAVDisplayableObject@@V?$allocator@PAVDisplayableObject@@@std@@@std@@AAEXXZ 0043cdf0 f i BaseEngine.obj
 0001:0003bea0       ?getHasActed@DisplayableObject@@QBE_NXZ 0043cea0 f i BaseEngine.obj
 0001:0003bec0       ?isTimeToAct@BaseEngine@@QBE_NXZ 0043cec0 f i BaseEngine.obj
 0001:0003bf00       ?mySDLUpdateTexture@DrawingSurface@@QAEXPAUSDL_Texture@@@Z 0043cf00 f i BaseEngine.obj
 0001:0003bf40       ?setHasActed@DisplayableObject@@QAEX_N@Z 0043cf40 f i BaseEngine.obj
 0001:0003bf60       ?setTimeToAct@BaseEngine@@QAEXH@Z 0043cf60 f i BaseEngine.obj
 0001:0003bf90       ?symbolToKeycode@BaseEngine@@SAHH@Z 0043cf90 f i BaseEngine.obj
 0001:0003c480       ?virtMainLoopDoBeforeUpdate@BaseEngine@@UAEXXZ 0043d480 f i BaseEngine.obj
 0001:0003c490       ??0DisplayableObject@@QAE@PAVBaseEngine@@HH_N@Z 0043d490 f   DisplayableObject.obj
 0001:0003c550       ??0DisplayableObject@@QAE@HHPAVBaseEngine@@HH_N@Z 0043d550 f   DisplayableObject.obj
 0001:0003c610       ??1DisplayableObject@@UAE@XZ 0043d610 f   DisplayableObject.obj
 0001:0003c630       ?virtDraw@DisplayableObject@@UAEXXZ 0043d630 f   DisplayableObject.obj
 0001:0003c6d0       ?virtDoUpdate@DisplayableObject@@UAEXH@Z 0043d6d0 f   DisplayableObject.obj
 0001:0003c6e0       ?redrawDisplay@DisplayableObject@@QAEXXZ 0043d6e0 f   DisplayableObject.obj
 0001:0003c700       ?redrawRectangle@DisplayableObject@@QAEXXZ 0043d700 f   DisplayableObject.obj
 0001:0003c740       ?virtIsObjectInRedrawArea@DisplayableObject@@QAE_NXZ 0043d740 f   DisplayableObject.obj
 0001:0003c7e0       ?fixPosition@DisplayableObject@@QAEXXZ 0043d7e0 f   DisplayableObject.obj
 0001:0003c9b0       ??_EDisplayableObject@@UAEPAXI@Z 0043d9b0 f i DisplayableObject.obj
 0001:0003c9b0       ??_GDisplayableObject@@UAEPAXI@Z 0043d9b0 f i DisplayableObject.obj
 0001:0003c9f0       ?convertVirtualPixelToClickedXPosition@BaseEngine@@QAEHH@Z 0043d9f0 f i DisplayableObject.obj
 0001:0003ca20       ?convertVirtualPixelToClickedYPosition@BaseEngine@@QAEHH@Z 0043da20 f i DisplayableObject.obj
 0001:0003ca50       ?convertVirtualToRealXPosition@DrawingSurface@@QAEHH@Z 0043da50 f i DisplayableObject.obj
 0001:0003ca90       ?convertVirtualToRealYPosition@DrawingSurface@@QAEHH@Z 0043da90 f i DisplayableObject.obj
 0001:0003cad0       ?redrawRectangle@BaseEngine@@QAEXHHHH@Z 0043dad0 f i DisplayableObject.obj
 0001:0003cc40       ?setForegroundPixel@BaseEngine@@QAEXHHI@Z 0043dc40 f i DisplayableObject.obj
 0001:0003cc70       ??0FontManager@@QAE@XZ     0043dc70 f   FontManager.obj
 0001:0003cce0       ??1FontManager@@QAE@XZ     0043dce0 f   FontManager.obj
 0001:0003cd60       ?getFont@FontManager@@QAEPAVFont@@PBDH@Z 0043dd60 f   FontManager.obj
 0001:0003cf00       ?loadFonts@FontManager@@QAEXXZ 0043df00 f   FontManager.obj
 0001:0003d030       ??$growArrayOfObjects@PAVFont@@@@YAPAPAVFont@@PAPAV0@AAHH@Z 0043e030 f i FontManager.obj
 0001:0003d0f0       ??0Font@@QAE@PBDH@Z        0043e0f0 f i FontManager.obj
 0001:0003d170       ??1Font@@QAE@XZ            0043e170 f i FontManager.obj
 0001:0003d1f0       ??_GFont@@QAEPAXI@Z        0043e1f0 f i FontManager.obj
 0001:0003d230       ?getSize@Font@@QAEHXZ      0043e230 f i FontManager.obj
 0001:0003d250       ??0MyDemoA@@QAE@XZ         0043e250 f   MyDemoA.obj
 0001:0003d2c0       ??1MyDemoA@@UAE@XZ         0043e2c0 f   MyDemoA.obj
 0001:0003d300       ?virtSetupBackgroundBuffer@MyDemoA@@UAEXXZ 0043e300 f   MyDemoA.obj
 0001:0003d4f0       ?virtMouseDown@MyDemoA@@UAEXHHH@Z 0043e4f0 f   MyDemoA.obj
 0001:0003d7e0       ?virtKeyDown@MyDemoA@@UAEXH@Z 0043e7e0 f   MyDemoA.obj
 0001:0003d930       ?virtInitialiseObjects@MyDemoA@@UAEHXZ 0043e930 f   MyDemoA.obj
 0001:0003dbd0       ??_EMyDemoA@@UAEPAXI@Z     0043ebd0 f i MyDemoA.obj
 0001:0003dbd0       ??_GMyDemoA@@UAEPAXI@Z     0043ebd0 f i MyDemoA.obj
 0001:0003dc10       ?getMapXForScreenX@TileManager@@QBEHH@Z 0043ec10 f i MyDemoA.obj
 0001:0003dc40       ?getMapYForScreenY@TileManager@@QBEHH@Z 0043ec40 f i MyDemoA.obj
 0001:0003dc70       ?virtSetupBackgroundBuffer@MyImageMappingDemo@@UAEXXZ 0043ec70 f   MyImageMappingDemo.obj
 0001:0003dd70       ?virtInitialiseObjects@MyImageMappingDemo@@UAEHXZ 0043ed70 f   MyImageMappingDemo.obj
 0001:0003e0e0       ?virtKeyDown@MyImageMappingDemo@@UAEXH@Z 0043f0e0 f   MyImageMappingDemo.obj
 0001:0003e110       ?virtMainLoopDoBeforeUpdate@MyImageMappingDemo@@UAEXXZ 0043f110 f   MyImageMappingDemo.obj
 0001:0003e1a0       ?mapCoordinates@MyImageMappingDemo@@UAE_NAAN0ABVSimpleImage@@@Z 0043f1a0 f   MyImageMappingDemo.obj
 0001:0003e610       ??0MyObjectA@@QAE@PAVBaseEngine@@@Z 0043f610 f   MyObjectA.obj
 0001:0003e660       ??1MyObjectA@@UAE@XZ       0043f660 f   MyObjectA.obj
 0001:0003e680       ?virtDraw@MyObjectA@@UAEXXZ 0043f680 f   MyObjectA.obj
 0001:0003e6d0       ?virtDoUpdate@MyObjectA@@UAEXH@Z 0043f6d0 f   MyObjectA.obj
 0001:0003e940       ??_GMyObjectA@@UAEPAXI@Z   0043f940 f i MyObjectA.obj
 0001:0003e940       ??_EMyObjectA@@UAEPAXI@Z   0043f940 f i MyObjectA.obj
 0001:0003e980       ??0MyTileManager@@QAE@XZ   0043f980 f   MyTileManager.obj
 0001:0003e9b0       ??1MyTileManager@@UAE@XZ   0043f9b0 f   MyTileManager.obj
 0001:0003e9d0       ?virtDrawTileAt@MyTileManager@@UBEXPAVBaseEngine@@PAVDrawingSurface@@HHHH@Z 0043f9d0 f   MyTileManager.obj
 0001:0003ea80       ??_GMyTileManager@@UAEPAXI@Z 0043fa80 f i MyTileManager.obj
 0001:0003ea80       ??_EMyTileManager@@UAEPAXI@Z 0043fa80 f i MyTileManager.obj
 0001:0003eac0       ??0SimpleImage@@QAE@XZ     0043fac0 f   SimpleImage.obj
 0001:0003eaf0       ??0SimpleImage@@QAE@V?$shared_ptr@VRawImageData@@@std@@@Z 0043faf0 f   SimpleImage.obj
 0001:0003eb30       ?exists@SimpleImage@@QBE_NXZ 0043fb30 f   SimpleImage.obj
 0001:0003eb50       ?renderImage@SimpleImage@@QBEXPAVDrawingSurface@@HHHHHH@Z 0043fb50 f   SimpleImage.obj
 0001:0003ec60       ?renderImageWithMask@SimpleImage@@QBEXPAVDrawingSurface@@HHHHHHH@Z 0043fc60 f   SimpleImage.obj
 0001:0003eda0       ?renderImageWithMaskAndTransparency@SimpleImage@@QBEXPAVDrawingSurface@@HHHHHHHH@Z 0043fda0 f   SimpleImage.obj
 0001:0003ef70       ?adjustXYWidthHeight@SimpleImage@@SA_NPAVDrawingSurface@@AAH11111@Z 0043ff70 f   SimpleImage.obj
 0001:0003f170       ?renderImageBlit@SimpleImage@@QAEXPAVBaseEngine@@PAVDrawingSurface@@HHHHHHHH@Z 00440170 f   SimpleImage.obj
 0001:0003f420       ?renderImageApplyingMapping@SimpleImage@@QBEXPAVBaseEngine@@PAVDrawingSurface@@HHHHPAVCoordinateMapping@@@Z 00440420 f   SimpleImage.obj
 0001:0003fa30       ??0CroppedCoordinateMapping@@QAE@XZ 00440a30 f i SimpleImage.obj
 0001:0003fa60       ??BDrawingSurface@@QAEPAUSDL_Surface@@XZ 00440a60 f i SimpleImage.obj
 0001:0003fa80       ?getSurface@RawImageData@@QAEPAUSDL_Surface@@XZ 00440a80 f i SimpleImage.obj
 0001:0003faa0       ?mapCoordinates@CroppedCoordinateMapping@@UAE_NAAN0ABVSimpleImage@@@Z 00440aa0 f i SimpleImage.obj
 0001:0003fb40       ?rawGetPixel@DrawingSurface@@QBEIHH@Z 00440b40 f i SimpleImage.obj
 0001:0003fbb0       ??0JasonsDemoA@@QAE@XZ     00440bb0 f   JasonsDemoA.obj
 0001:0003fc20       ??1JasonsDemoA@@UAE@XZ     00440c20 f   JasonsDemoA.obj
 0001:0003fc60       ?virtSetupBackgroundBuffer@JasonsDemoA@@UAEXXZ 00440c60 f   JasonsDemoA.obj
 0001:0003fea0       ?virtMouseDown@JasonsDemoA@@UAEXHHH@Z 00440ea0 f   JasonsDemoA.obj
 0001:0003ffc0       ?virtKeyDown@JasonsDemoA@@UAEXH@Z 00440fc0 f   JasonsDemoA.obj
 0001:0003fff0       ?virtInitialiseObjects@JasonsDemoA@@UAEHXZ 00440ff0 f   JasonsDemoA.obj
 0001:000401e0       ??_EJasonsDemoA@@UAEPAXI@Z 004411e0 f i JasonsDemoA.obj
 0001:000401e0       ??_GJasonsDemoA@@UAEPAXI@Z 004411e0 f i JasonsDemoA.obj
 0001:00040220       ??0JasonsObjectA@@QAE@PAVBaseEngine@@@Z 00441220 f   JasonsObjectA.obj
 0001:00040260       ??1JasonsObjectA@@UAE@XZ   00441260 f   JasonsObjectA.obj
 0001:00040280       ?virtDraw@JasonsObjectA@@UAEXXZ 00441280 f   JasonsObjectA.obj
 0001:000402d0       ?virtDoUpdate@JasonsObjectA@@UAEXH@Z 004412d0 f   JasonsObjectA.obj
 0001:000404b0       ??_EJasonsObjectA@@UAEPAXI@Z 004414b0 f i JasonsObjectA.obj
 0001:000404b0       ??_GJasonsObjectA@@UAEPAXI@Z 004414b0 f i JasonsObjectA.obj
 0001:000404f0       ??0JasonsTileManager@@QAE@XZ 004414f0 f   JasonsTileManager.obj
 0001:00040520       ??1JasonsTileManager@@UAE@XZ 00441520 f   JasonsTileManager.obj
 0001:00040540       ?virtDrawTileAt@JasonsTileManager@@UBEXPAVBaseEngine@@PAVDrawingSurface@@HHHH@Z 00441540 f   JasonsTileManager.obj
 0001:000405f0       ??_EJasonsTileManager@@UAEPAXI@Z 004415f0 f i JasonsTileManager.obj
 0001:000405f0       ??_GJasonsTileManager@@UAEPAXI@Z 004415f0 f i JasonsTileManager.obj
 0001:00040630       ?virtInitialise@PlayingCardsDemo@@UAEHXZ 00441630 f   PlayingCardsDemo.obj
 0001:00040680       ?virtSetupBackgroundBuffer@PlayingCardsDemo@@UAEXXZ 00441680 f   PlayingCardsDemo.obj
 0001:000406a0       ?virtInitialiseObjects@PlayingCardsDemo@@UAEHXZ 004416a0 f   PlayingCardsDemo.obj
 0001:00040d00       ?virtMouseDown@PlayingCardsDemo@@UAEXHHH@Z 00441d00 f   PlayingCardsDemo.obj
 0001:00040d20       ?virtKeyDown@PlayingCardsDemo@@UAEXH@Z 00441d20 f   PlayingCardsDemo.obj
 0001:00040e20       ?virtKeyUp@PlayingCardsDemo@@UAEXH@Z 00441e20 f   PlayingCardsDemo.obj
 0001:00040e40       ?virtMouseWheel@PlayingCardsDemo@@UAEXHHHH@Z 00441e40 f   PlayingCardsDemo.obj
 0001:00041140       ??$?8VRawImageData@@@std@@YA_NABV?$shared_ptr@VRawImageData@@@0@$$T@Z 00442140 f i PlayingCardsDemo.obj
 0001:00041170       ??$_Random_shuffle1@V?$_Vector_iterator@V?$_Vector_val@U?$_Simple_types@PAVDisplayableObject@@@std@@@std@@@std@@V?$_Rng_from_urng@HU_Rand_urng_from_func@std@@@2@@std@@YAXV?$_Vector_iterator@V?$_Vector_val@U?$_Simple_types@PAVDisplayableObject@@@std@@@std@@@0@0AAV?$_Rng_from_urng@HU_Rand_urng_from_func@std@@@0@@Z 00442170 f i PlayingCardsDemo.obj
 0001:00041340       ??$for_each@V?$_Vector_const_iterator@V?$_Vector_val@U?$_Simple_types@PAVDisplayableObject@@@std@@@std@@@std@@V<lambda_30e6a374895662ded208c9cbe5dce392>@@@std@@YA?AV<lambda_30e6a374895662ded208c9cbe5dce392>@@V?$_Vector_const_iterator@V?$_Vector_val@U?$_Simple_types@PAVDisplayableObject@@@std@@@std@@@0@0V1@@Z 00442340 f i PlayingCardsDemo.obj
 0001:00041430       ??$for_each@V?$_Vector_iterator@V?$_Vector_val@U?$_Simple_types@PAVDisplayableObject@@@std@@@std@@@std@@V<lambda_357b4ee994050758da51b6d8503d100a>@@@std@@YA?AV<lambda_357b4ee994050758da51b6d8503d100a>@@V?$_Vector_iterator@V?$_Vector_val@U?$_Simple_types@PAVDisplayableObject@@@std@@@std@@@0@0V1@@Z 00442430 f i PlayingCardsDemo.obj
 0001:00041520       ??$iter_swap@PAPAVDisplayableObject@@PAPAV1@@std@@YAXPAPAVDisplayableObject@@0@Z 00442520 f i PlayingCardsDemo.obj
 0001:00041540       ??$move@AAPAVDisplayableObject@@@std@@YA$$QAPAVDisplayableObject@@AAPAV1@@Z 00442540 f i PlayingCardsDemo.obj
 0001:00041550       ??$random_shuffle@V?$_Vector_iterator@V?$_Vector_val@U?$_Simple_types@PAVDisplayableObject@@@std@@@std@@@std@@@std@@YAXV?$_Vector_iterator@V?$_Vector_val@U?$_Simple_types@PAVDisplayableObject@@@std@@@std@@@0@0@Z 00442550 f i PlayingCardsDemo.obj
 0001:00041600       ??$shuffle@V?$_Vector_iterator@V?$_Vector_val@U?$_Simple_types@PAVDisplayableObject@@@std@@@std@@@std@@AAU_Rand_urng_from_func@2@@std@@YAXV?$_Vector_iterator@V?$_Vector_val@U?$_Simple_types@PAVDisplayableObject@@@std@@@std@@@0@0AAU_Rand_urng_from_func@0@@Z 00442600 f i PlayingCardsDemo.obj
 0001:000416c0       ??$swap@PAVDisplayableObject@@X@std@@YAXAAPAVDisplayableObject@@0@Z 004426c0 f i PlayingCardsDemo.obj
 0001:00041710       ??0<lambda_30e6a374895662ded208c9cbe5dce392>@@QAE@ABH00@Z 00442710 f i PlayingCardsDemo.obj
 0001:00041750       ??0<lambda_357b4ee994050758da51b6d8503d100a>@@QAE@ABH00@Z 00442750 f i PlayingCardsDemo.obj
 0001:00041790       ??0?$_Rng_from_urng@HU_Rand_urng_from_func@std@@@std@@QAE@AAU_Rand_urng_from_func@1@@Z 00442790 f i PlayingCardsDemo.obj
 0001:00041810       ??0CardContainer@@QAE@PAVBaseEngine@@HHV?$basic_string@DU?$char_traits@D@std@@V?$allocator@D@2@@std@@@Z 00442810 f i PlayingCardsDemo.obj
 0001:00041910       ??0CardOrTile@@QAE@PAVBaseEngine@@HHV?$basic_string@DU?$char_traits@D@std@@V?$allocator@D@2@@std@@HHHH1HHHHHHH_N2@Z 00442910 f i PlayingCardsDemo.obj
 0001:00041b00       ??0CardOrTile@@QAE@PAVBaseEngine@@HHV?$basic_string@DU?$char_traits@D@std@@V?$allocator@D@2@@std@@H_N2@Z 00442b00 f i PlayingCardsDemo.obj
 0001:00041d20       ??0CoordinateMappingRotateAndColour@@QAE@XZ 00442d20 f i PlayingCardsDemo.obj
 0001:00041de0       ??0DragableToken@@QAE@PAVBaseEngine@@HHH_N@Z 00442de0 f i PlayingCardsDemo.obj
 0001:00041eb0       ??0DragableTokenContainer@@QAE@HHPAVBaseEngine@@HH_N1@Z 00442eb0 f i PlayingCardsDemo.obj
 0001:00041f90       ??0TokenTray@@QAE@PAVBaseEngine@@HH@Z 00442f90 f i PlayingCardsDemo.obj
 0001:00041fe0       ??1CardContainer@@UAE@XZ   00442fe0 f i PlayingCardsDemo.obj
 0001:00042030       ??1CardOrTile@@UAE@XZ      00443030 f i PlayingCardsDemo.obj
 0001:00042090       ??1CoordinateMappingRotateAndColour@@UAE@XZ 00443090 f i PlayingCardsDemo.obj
 0001:000420b0       ??1DragableToken@@UAE@XZ   004430b0 f i PlayingCardsDemo.obj
 0001:000420d0       ??1DragableTokenContainer@@UAE@XZ 004430d0 f i PlayingCardsDemo.obj
 0001:00042100       ??1TokenTray@@UAE@XZ       00443100 f i PlayingCardsDemo.obj
 0001:00042130       ??A?$vector@PAVDisplayableObject@@V?$allocator@PAVDisplayableObject@@@std@@@std@@QBEABQAVDisplayableObject@@I@Z 00443130 f i PlayingCardsDemo.obj
 0001:000421d0       ??R<lambda_30e6a374895662ded208c9cbe5dce392>@@QBE@PAVDisplayableObject@@@Z 004431d0 f i PlayingCardsDemo.obj
 0001:00042220       ??R<lambda_357b4ee994050758da51b6d8503d100a>@@QBE@PAVDisplayableObject@@@Z 00443220 f i PlayingCardsDemo.obj
 0001:00042270       ??R?$_Rng_from_urng@HU_Rand_urng_from_func@std@@@std@@QAEHH@Z 00443270 f i PlayingCardsDemo.obj
 0001:00042350       ??R_Rand_urng_from_func@std@@QAEIXZ 00443350 f i PlayingCardsDemo.obj
 0001:00042365       ??_ECardContainer@@WDM@AEPAXI@Z 00443365 f i PlayingCardsDemo.obj
 0001:0004236f       ??_ECardOrTile@@WDM@AEPAXI@Z 0044336f f i PlayingCardsDemo.obj
 0001:00042379       ??_EDragableTokenContainer@@WDM@AEPAXI@Z 00443379 f i PlayingCardsDemo.obj
 0001:00042383       ??_ETokenTray@@WDM@AEPAXI@Z 00443383 f i PlayingCardsDemo.obj
 0001:00042390       ??_GCardContainer@@UAEPAXI@Z 00443390 f i PlayingCardsDemo.obj
 0001:00042390       ??_ECardContainer@@UAEPAXI@Z 00443390 f i PlayingCardsDemo.obj
 0001:000423d0       ??_GCardOrTile@@UAEPAXI@Z  004433d0 f i PlayingCardsDemo.obj
 0001:000423d0       ??_ECardOrTile@@UAEPAXI@Z  004433d0 f i PlayingCardsDemo.obj
 0001:00042410       ??_ECoordinateMappingRotateAndColour@@UAEPAXI@Z 00443410 f i PlayingCardsDemo.obj
 0001:00042410       ??_GCoordinateMappingRotateAndColour@@UAEPAXI@Z 00443410 f i PlayingCardsDemo.obj
 0001:00042450       ??_EDragableToken@@UAEPAXI@Z 00443450 f i PlayingCardsDemo.obj
 0001:00042450       ??_GDragableToken@@UAEPAXI@Z 00443450 f i PlayingCardsDemo.obj
 0001:00042490       ??_EDragableTokenContainer@@UAEPAXI@Z 00443490 f i PlayingCardsDemo.obj
 0001:00042490       ??_GDragableTokenContainer@@UAEPAXI@Z 00443490 f i PlayingCardsDemo.obj
 0001:000424d0       ??_ETokenTray@@UAEPAXI@Z   004434d0 f i PlayingCardsDemo.obj
 0001:000424d0       ??_GTokenTray@@UAEPAXI@Z   004434d0 f i PlayingCardsDemo.obj
 0001:00042510       ?_Get_bits@?$_Rng_from_urng@HU_Rand_urng_from_func@std@@@std@@AAEIXZ 00443510 f i PlayingCardsDemo.obj
 0001:00042560       ?addCardToContainer@CardContainer@@QAE_NPAVCardOrTile@@_N@Z 00443560 f i PlayingCardsDemo.obj
 0001:000425b0       ?bringToFront@CardOrTile@@UAEXXZ 004435b0 f i PlayingCardsDemo.obj
 0001:000425f0       ?bringToFront@DragableTokenContainer@@UAEXXZ 004435f0 f i PlayingCardsDemo.obj
 0001:00042620       ?changePixelColour@CoordinateMappingRotateAndColour@@UAE_NHHAAHPAVDrawingSurface@@@Z 00443620 f i PlayingCardsDemo.obj
 0001:00042a00       ?checkForAndHandleTokenClick@DragableTokenContainer@@QAE_NHH@Z 00443a00 f i PlayingCardsDemo.obj
 0001:00042aa0       ?clear@?$vector@PAVDisplayableObject@@V?$allocator@PAVDisplayableObject@@@std@@@std@@QAEXXZ 00443aa0 f i PlayingCardsDemo.obj
 0001:00042b30       ?createToken@TokenTray@@QAEXIHH@Z 00443b30 f i PlayingCardsDemo.obj
 0001:00042c10       ?destroyable@DragableToken@@UAE_NXZ 00443c10 f i PlayingCardsDemo.obj
 0001:00042c20       ?doDragRedraw@DragableTokenContainer@@UAEXXZ 00443c20 f i PlayingCardsDemo.obj
 0001:00042c40       ?drawForegroundLine@BaseEngine@@QAEXHHHHI@Z 00443c40 f i PlayingCardsDemo.obj
 0001:00042cb0       ?drawTokensOnItem@DragableTokenContainer@@QAEXXZ 00443cb0 f i PlayingCardsDemo.obj
 0001:00042dd0       ?getContentCount@DisplayableObjectContainer@@QBEHXZ 00443dd0 f i PlayingCardsDemo.obj
 0001:00042df0       ?getContentItem@DisplayableObjectContainer@@QBEPAVDisplayableObject@@H@Z 00443df0 f i PlayingCardsDemo.obj
 0001:00042e20       ?getDrawingRegionBottom@DisplayableObject@@QBEHXZ 00443e20 f i PlayingCardsDemo.obj
 0001:00042e50       ?getDrawingRegionLeft@DisplayableObject@@QBEHXZ 00443e50 f i PlayingCardsDemo.obj
 0001:00042e70       ?getDrawingRegionRight@DisplayableObject@@QBEHXZ 00443e70 f i PlayingCardsDemo.obj
 0001:00042ea0       ?getDrawingRegionTop@DisplayableObject@@QBEHXZ 00443ea0 f i PlayingCardsDemo.obj
 0001:00042ec0       ?getPixel@DrawingSurface@@QAEIHH@Z 00443ec0 f i PlayingCardsDemo.obj
 0001:00042f30       ?getRawImageData@SimpleImage@@QAE?AV?$shared_ptr@VRawImageData@@@std@@XZ 00443f30 f i PlayingCardsDemo.obj
 0001:00042f70       ?getTopCardFromContainer@CardContainer@@QAEPAVDisplayableObject@@_N@Z 00443f70 f i PlayingCardsDemo.obj
 0001:00043040       ?getTopObjectForNotifyValue@DisplayableObjectContainer@@QBEPAVDisplayableObject@@HHHH@Z 00444040 f i PlayingCardsDemo.obj
 0001:00043100       ?handleTokenWasClicked@DragableToken@@QAEXXZ 00444100 f i PlayingCardsDemo.obj
 0001:00043180       ?mapCoordinates@CoordinateMappingRotateAndColour@@UAE_NAAN0ABVSimpleImage@@@Z 00444180 f i PlayingCardsDemo.obj
 0001:000434a0       ?max@_Rand_urng_from_func@std@@SAIXZ 004444a0 f i PlayingCardsDemo.obj
 0001:000434b0       ?min@_Rand_urng_from_func@std@@SAIXZ 004444b0 f i PlayingCardsDemo.obj
 0001:000434c0       ?notifyAllObjects@DisplayableObjectContainer@@QBEXHHH@Z 004444c0 f i PlayingCardsDemo.obj
 0001:00043550       ?notifyTopObjectAboutMouseClick@BaseEngine@@QAEX_N@Z 00444550 f i PlayingCardsDemo.obj
 0001:00043570       ?readyBackImage@CardOrTile@@QAEXXZ 00444570 f i PlayingCardsDemo.obj
 0001:00043850       ?readyFrontImage@CardOrTile@@QAEXXZ 00444850 f i PlayingCardsDemo.obj
 0001:00043b10       ?removeDisplayableObject@DisplayableObjectContainer@@QAE_NPAVDisplayableObject@@@Z 00444b10 f i PlayingCardsDemo.obj
 0001:00043c80       ?removeTopCardFromContainer@CardContainer@@QAEPAVDisplayableObject@@_N@Z 00444c80 f i PlayingCardsDemo.obj
 0001:00043d00       ?setDefaultColour@DisplayableObject@@QAEXH@Z 00444d00 f i PlayingCardsDemo.obj
 0001:00043d20       ?setPosition@DragableTokenContainer@@UAEXHH@Z 00444d20 f i PlayingCardsDemo.obj
 0001:00043d80       ?setSize@DisplayableObject@@QAEXHH@Z 00444d80 f i PlayingCardsDemo.obj
 0001:00043db0       ?setTransparencyColour@CoordinateMappingRotateAndColour@@QAEXH@Z 00444db0 f i PlayingCardsDemo.obj
 0001:00043dd0       ?setTransparencyPixel@CardOrTile@@QAEXHH@Z 00444dd0 f i PlayingCardsDemo.obj
 0001:00043e10       ?showCorrectImage@CardOrTile@@QAEXXZ 00444e10 f i PlayingCardsDemo.obj
 0001:00043e50       ?shuffle@DisplayableObjectContainer@@QAEXXZ 00444e50 f i PlayingCardsDemo.obj
 0001:00043ea0       ?updateTransparency@CardOrTile@@QAEXXZ 00444ea0 f i PlayingCardsDemo.obj
 0001:00044160       ?virtDraw@CardContainer@@UAEXXZ 00445160 f i PlayingCardsDemo.obj
 0001:00044850       ?virtDraw@CardOrTile@@UAEXXZ 00445850 f i PlayingCardsDemo.obj
 0001:00044b40       ?virtDraw@DragableToken@@UAEXXZ 00445b40 f i PlayingCardsDemo.obj
 0001:00044ea0       ?virtDraw@DragableTokenContainer@@UAEXXZ 00445ea0 f i PlayingCardsDemo.obj
 0001:00045090       ?virtDraw@TokenTray@@UAEXXZ 00446090 f i PlayingCardsDemo.obj
 0001:00045600       ?virtMouseDown@DragableToken@@UAEXHHH@Z 00446600 f i PlayingCardsDemo.obj
 0001:00045610       ?virtMouseDown@DragableTokenContainer@@UAEXHHH@Z 00446610 f i PlayingCardsDemo.obj
 0001:000456c0       ?virtMouseMoved@DragableToken@@UAEXHH@Z 004466c0 f i PlayingCardsDemo.obj
 0001:00045730       ?virtMouseMoved@DragableTokenContainer@@UAEXHH@Z 00446730 f i PlayingCardsDemo.obj
 0001:000457b0       ?virtMouseUp@CardContainer@@UAEXHHH@Z 004467b0 f i PlayingCardsDemo.obj
 0001:00045800       ?virtMouseUp@CardOrTile@@UAEXHHH@Z 00446800 f i PlayingCardsDemo.obj
 0001:000458f0       ?virtMouseUp@DragableToken@@UAEXHHH@Z 004468f0 f i PlayingCardsDemo.obj
 0001:00045af0       ?virtMouseUp@DragableTokenContainer@@UAEXHHH@Z 00446af0 f i PlayingCardsDemo.obj
 0001:00045b90       ?virtNotify@CardContainer@@UAEJHHH@Z 00446b90 f i PlayingCardsDemo.obj
 0001:00045c10       ?virtNotify@DragableToken@@UAEJHHH@Z 00446c10 f i PlayingCardsDemo.obj
 0001:00045d10       ?virtNotify@DragableTokenContainer@@UAEJHHH@Z 00446d10 f i PlayingCardsDemo.obj
 0001:00045d70       ?virtSingleItemMouseDown@CardContainer@@UAE_NHHH@Z 00446d70 f i PlayingCardsDemo.obj
 0001:00045f90       ?virtSingleItemMouseDown@CardOrTile@@UAE_NHHH@Z 00446f90 f i PlayingCardsDemo.obj
 0001:00046130       ?virtSingleItemMouseDown@DragableToken@@UAE_NHHH@Z 00447130 f i PlayingCardsDemo.obj
 0001:000461e0       ?virtSingleItemMouseDown@DragableTokenContainer@@UAE_NHHH@Z 004471e0 f i PlayingCardsDemo.obj
 0001:00046270       ?virtSingleItemMouseDown@TokenTray@@UAE_NHHH@Z 00447270 f i PlayingCardsDemo.obj
 0001:000465c0       ??0RawImageData@@QAE@ABV?$shared_ptr@VRawImageData@@@std@@H@Z 004475c0 f   RawImage.obj
 0001:00046700       ??0RawImageData@@QAE@HHABV?$shared_ptr@VRawImageData@@@std@@@Z 00447700 f   RawImage.obj
 0001:00046910       ?virtSetupBackgroundBuffer@SimpleDemo@@UAEXXZ 00447910 f   SimpleDemo.obj
 0001:00046a50       ?virtInitialiseObjects@SimpleDemo@@UAEHXZ 00447a50 f   SimpleDemo.obj
 0001:00046b00       ?virtDrawStringsUnderneath@SimpleDemo@@UAEXXZ 00447b00 f   SimpleDemo.obj
 0001:00046bb0       ?virtDrawStringsOnTop@SimpleDemo@@UAEXXZ 00447bb0 f   SimpleDemo.obj
 0001:00046c30       ?virtMouseDown@SimpleDemo@@UAEXHHH@Z 00447c30 f   SimpleDemo.obj
 0001:00046c50       ?virtKeyDown@SimpleDemo@@UAEXH@Z 00447c50 f   SimpleDemo.obj
 0001:00046d90       ??0StarfieldDemo@@QAE@XZ   00447d90 f   StarfieldDemo.obj
 0001:00046dd0       ??1StarfieldDemo@@UAE@XZ   00447dd0 f   StarfieldDemo.obj
 0001:00046e00       ?virtSetupBackgroundBuffer@StarfieldDemo@@UAEXXZ 00447e00 f   StarfieldDemo.obj
 0001:00046f40       ?virtMainLoopDoBeforeUpdate@StarfieldDemo@@UAEXXZ 00447f40 f   StarfieldDemo.obj
 0001:00046f80       ?copyAllBackgroundBuffer@StarfieldDemo@@UAEXXZ 00447f80 f   StarfieldDemo.obj
 0001:000470c0       ??_EStarfieldDemo@@UAEPAXI@Z 004480c0 f i StarfieldDemo.obj
 0001:000470c0       ??_GStarfieldDemo@@UAEPAXI@Z 004480c0 f i StarfieldDemo.obj
 0001:00047100       ?drawAllTiles@TileManager@@QBEXPAVBaseEngine@@PAVDrawingSurface@@@Z 00448100 f   TileManager.obj
 0001:000471a0       ?drawSomeTiles@TileManager@@QBEXPAVBaseEngine@@PAVDrawingSurface@@HHHH@Z 004481a0 f   TileManager.obj
 0001:00047240       ?virtDrawTileAt@TileManager@@UBEXPAVBaseEngine@@PAVDrawingSurface@@HHHH@Z 00448240 f   TileManager.obj
 0001:00047330       ??0BouncingBall@@QAE@PAVBouncingBallMain@@HHHHPBDHH@Z 00448330 f   BouncingBall.obj
 0001:00047400       ??1BouncingBall@@UAE@XZ    00448400 f   BouncingBall.obj
 0001:00047420       ?virtDraw@BouncingBall@@UAEXXZ 00448420 f   BouncingBall.obj
 0001:000476f0       ?virtDoUpdate@BouncingBall@@UAEXH@Z 004486f0 f   BouncingBall.obj
 0001:00047710       ??0BouncingBall1@@QAE@PAVBouncingBallMain@@HHHHPBDHHPAVTileManager@@@Z 00448710 f   BouncingBall.obj
 0001:000477b0       ?setMovement@BouncingBall1@@QAEXHHHHHHH@Z 004487b0 f   BouncingBall.obj
 0001:00047820       ?virtDoUpdate@BouncingBall1@@UAEXH@Z 00448820 f   BouncingBall.obj
 0001:00047990       ??0BouncingBall2@@QAE@PAVBouncingBallMain@@HHHHPBDHH@Z 00448990 f   BouncingBall.obj
 0001:00047a10       ?setPosition@BouncingBall2@@QAEXNN@Z 00448a10 f   BouncingBall.obj
 0001:00047a40       ?setSpeed@BouncingBall2@@QAEXNN@Z 00448a40 f   BouncingBall.obj
 0001:00047a70       ?virtDoUpdate@BouncingBall2@@UAEXH@Z 00448a70 f   BouncingBall.obj
 0001:00048060       ??0MovementPosition@@QAE@XZ 00449060 f i BouncingBall.obj
 0001:000480e0       ??1BouncingBall1@@UAE@XZ   004490e0 f i BouncingBall.obj
 0001:00048100       ??1BouncingBall2@@UAE@XZ   00449100 f i BouncingBall.obj
 0001:00048120       ??_EBouncingBall1@@UAEPAXI@Z 00449120 f i BouncingBall.obj
 0001:00048120       ??_GBouncingBall1@@UAEPAXI@Z 00449120 f i BouncingBall.obj
 0001:00048160       ??_GBouncingBall2@@UAEPAXI@Z 00449160 f i BouncingBall.obj
 0001:00048160       ??_EBouncingBall2@@UAEPAXI@Z 00449160 f i BouncingBall.obj
 0001:000481a0       ??_EBouncingBall@@UAEPAXI@Z 004491a0 f i BouncingBall.obj
 0001:000481a0       ??_GBouncingBall@@UAEPAXI@Z 004491a0 f i BouncingBall.obj
 0001:000481e0       ?calculate@MovementPosition@@QAEXH@Z 004491e0 f i BouncingBall.obj
 0001:000482d0       ?getX@MovementPosition@@QBEHXZ 004492d0 f i BouncingBall.obj
 0001:000482f0       ?getY@MovementPosition@@QBEHXZ 004492f0 f i BouncingBall.obj
 0001:00048310       ?hasMovementFinished@MovementPosition@@QBE_NH@Z 00449310 f i BouncingBall.obj
 0001:00048350       ?reverse@MovementPosition@@QAEXXZ 00449350 f i BouncingBall.obj
 0001:000483e0       ?setup@MovementPosition@@QAEXHHHHHH@Z 004493e0 f i BouncingBall.obj
 0001:00048450       ?virtMouseDown@BouncingBall@@UAEXHHH@Z 00449450 f i BouncingBall.obj
 0001:00048490       ?virtSetupBackgroundBuffer@BouncingBallMain@@UAEXXZ 00449490 f   BouncingBallMain.obj
 0001:00048e80       ?virtInitialiseObjects@BouncingBallMain@@UAEHXZ 00449e80 f   BouncingBallMain.obj
 0001:00049150       ?virtDrawStringsUnderneath@BouncingBallMain@@UAEXXZ 0044a150 f   BouncingBallMain.obj
 0001:00049190       ?virtMouseDown@BouncingBallMain@@UAEXHHH@Z 0044a190 f   BouncingBallMain.obj
 0001:000491d0       ?virtKeyDown@BouncingBallMain@@UAEXH@Z 0044a1d0 f   BouncingBallMain.obj
 0001:00049550       ??$?HDU?$char_traits@D@std@@V?$allocator@D@1@@std@@YA?AV?$basic_string@DU?$char_traits@D@std@@V?$allocator@D@2@@0@$$QAV10@ABV10@@Z 0044a550 f i BouncingBallMain.obj
 0001:000495a0       ??$?HDU?$char_traits@D@std@@V?$allocator@D@1@@std@@YA?AV?$basic_string@DU?$char_traits@D@std@@V?$allocator@D@2@@0@$$QAV10@QBD@Z 0044a5a0 f i BouncingBallMain.obj
 0001:000495f0       ??$?HDU?$char_traits@D@std@@V?$allocator@D@1@@std@@YA?AV?$basic_string@DU?$char_traits@D@std@@V?$allocator@D@2@@0@QBD$$QAV10@@Z 0044a5f0 f i BouncingBallMain.obj
 0001:00049640       ?drawBackgroundLine@BaseEngine@@QAEXHHHHI@Z 0044a640 f i BouncingBallMain.obj
 0001:000496b0       ?drawBackgroundPolygon@BaseEngine@@QAEXNNNNNNNNI@Z 0044a6b0 f i BouncingBallMain.obj
 0001:00049770       ?drawBackgroundPolygon@BaseEngine@@QAEXNNNNNNNNNNI@Z 0044a770 f i BouncingBallMain.obj
 0001:00049840       ?drawBackgroundPolygon@BaseEngine@@QAEXNNNNNNNNNNNNI@Z 0044a840 f i BouncingBallMain.obj
 0001:00049930       ?drawBackgroundPolygon@BaseEngine@@QAEXNNNNNNNNNNNNNNI@Z 0044a930 f i BouncingBallMain.obj
 0001:00049a30       ?drawBackgroundPolygon@BaseEngine@@QAEXNNNNNNNNNNNNNNNNI@Z 0044aa30 f i BouncingBallMain.obj
 0001:00049b70       ?drawBackgroundTriangle@BaseEngine@@QAEXHHHHHHI@Z 0044ab70 f i BouncingBallMain.obj
 0001:00049c00       ?drawBackgroundVerticalSidedRegion@BaseEngine@@QAEXNNNNNNI@Z 0044ac00 f i BouncingBallMain.obj
 0001:00049c90       ?getImageURL@RawImageData@@QAEABV?$basic_string@DU?$char_traits@D@std@@V?$allocator@D@2@@std@@XZ 0044ac90 f i BouncingBallMain.obj
 0001:00049cb0       ?getImageURL@SimpleImage@@QAE?BV?$basic_string@DU?$char_traits@D@std@@V?$allocator@D@2@@std@@XZ 0044acb0 f i BouncingBallMain.obj
 0001:00049d40       ?insert@?$basic_string@DU?$char_traits@D@std@@V?$allocator@D@2@@std@@QAEAAV12@IQBD@Z 0044ad40 f i BouncingBallMain.obj
 0001:00049d80       ?resizeTo@ImageManager@@QAE?AVSimpleImage@@V2@HH@Z 0044ad80 f i BouncingBallMain.obj
 0001:0004a2c0       ?shrinkBy@ImageManager@@QAE?AVSimpleImage@@V2@H@Z 0044b2c0 f i BouncingBallMain.obj
 0001:0004a710       ?virtInitialise@ZoomingDemo@@UAEHXZ 0044b710 f   ZoomingDemo.obj
 0001:0004a760       ?virtSetupBackgroundBuffer@ZoomingDemo@@UAEXXZ 0044b760 f   ZoomingDemo.obj
 0001:0004a780       ?virtInitialiseObjects@ZoomingDemo@@UAEHXZ 0044b780 f   ZoomingDemo.obj
 0001:0004a940       ?virtDrawStringsUnderneath@ZoomingDemo@@UAEXXZ 0044b940 f   ZoomingDemo.obj
 0001:0004a9f0       ?virtDrawStringsOnTop@ZoomingDemo@@UAEXXZ 0044b9f0 f   ZoomingDemo.obj
 0001:0004aa70       ?virtMouseDown@ZoomingDemo@@UAEXHHH@Z 0044ba70 f   ZoomingDemo.obj
 0001:0004aac0       ?virtKeyDown@ZoomingDemo@@UAEXH@Z 0044bac0 f   ZoomingDemo.obj
 0001:0004abc0       ?virtMouseWheel@ZoomingDemo@@UAEXHHHH@Z 0044bbc0 f   ZoomingDemo.obj
 0001:0004adc0       ??0SimpleFlashingDragableImageObject@@QAE@HHPAVBaseEngine@@V?$basic_string@DU?$char_traits@D@std@@V?$allocator@D@2@@std@@1_N2@Z 0044bdc0 f i ZoomingDemo.obj
 0001:0004afc0       ??1SimpleFlashingDragableImageObject@@UAE@XZ 0044bfc0 f i ZoomingDemo.obj
 0001:0004b000       ??_GSimpleFlashingDragableImageObject@@UAEPAXI@Z 0044c000 f i ZoomingDemo.obj
 0001:0004b000       ??_ESimpleFlashingDragableImageObject@@UAEPAXI@Z 0044c000 f i ZoomingDemo.obj
 0001:0004b040       ?virtDoUpdate@SimpleFlashingDragableImageObject@@UAEXH@Z 0044c040 f i ZoomingDemo.obj
 0001:0004b0a0       ?virtDraw@SimpleFlashingDragableImageObject@@UAEXXZ 0044c0a0 f i ZoomingDemo.obj
 0001:0004b190       ?virtMouseDown@SimpleFlashingDragableImageObject@@UAEXHHH@Z 0044c190 f i ZoomingDemo.obj
 0001:0004b200       ?virtMouseMoved@SimpleFlashingDragableImageObject@@UAEXHH@Z 0044c200 f i ZoomingDemo.obj
 0001:0004b260       ?virtMouseUp@SimpleFlashingDragableImageObject@@UAEXHHH@Z 0044c260 f i ZoomingDemo.obj
 0001:0004b280       ??0MazeDemoMain@@QAE@XZ    0044c280 f   MazeDemoMain.obj
 0001:0004b300       ??1MazeDemoMain@@UAE@XZ    0044c300 f   MazeDemoMain.obj
 0001:0004b340       ?virtSetupBackgroundBuffer@MazeDemoMain@@UAEXXZ 0044c340 f   MazeDemoMain.obj
 0001:0004b530       ?virtInitialiseObjects@MazeDemoMain@@UAEHXZ 0044c530 f   MazeDemoMain.obj
 0001:0004b730       ?virtDrawStringsUnderneath@MazeDemoMain@@UAEXXZ 0044c730 f   MazeDemoMain.obj
 0001:0004b7c0       ?virtMouseDown@MazeDemoMain@@UAEXHHH@Z 0044c7c0 f   MazeDemoMain.obj
 0001:0004b7d0       ?virtKeyDown@MazeDemoMain@@UAEXH@Z 0044c7d0 f   MazeDemoMain.obj
 0001:0004ba20       ??0MazeDemoTileManager@@QAE@XZ 0044ca20 f i MazeDemoMain.obj
 0001:0004ba50       ??0TileManager@@QAE@HH@Z   0044ca50 f i MazeDemoMain.obj
 0001:0004bad0       ??1MazeDemoTileManager@@UAE@XZ 0044cad0 f i MazeDemoMain.obj
 0001:0004bb00       ??_GMazeDemoMain@@UAEPAXI@Z 0044cb00 f i MazeDemoMain.obj
 0001:0004bb00       ??_EMazeDemoMain@@UAEPAXI@Z 0044cb00 f i MazeDemoMain.obj
 0001:0004bb40       ??_EMazeDemoTileManager@@UAEPAXI@Z 0044cb40 f i MazeDemoMain.obj
 0001:0004bb40       ??_GMazeDemoTileManager@@UAEPAXI@Z 0044cb40 f i MazeDemoMain.obj
 0001:0004bb80       ??0MazeDemoObject@@QAE@PAVMazeDemoMain@@HH@Z 0044cb80 f   MazeDemoObject.obj
 0001:0004bc60       ??1MazeDemoObject@@UAE@XZ  0044cc60 f   MazeDemoObject.obj
 0001:0004bc80       ?virtDraw@MazeDemoObject@@UAEXXZ 0044cc80 f   MazeDemoObject.obj
 0001:0004bd30       ?virtDoUpdate@MazeDemoObject@@UAEXH@Z 0044cd30 f   MazeDemoObject.obj
 0001:0004c3a0       ??_EMazeDemoObject@@UAEPAXI@Z 0044d3a0 f i MazeDemoObject.obj
 0001:0004c3a0       ??_GMazeDemoObject@@UAEPAXI@Z 0044d3a0 f i MazeDemoObject.obj
 0001:0004c3e0       ?GetTileManager@MazeDemoMain@@QAEAAVMazeDemoTileManager@@XZ 0044d3e0 f i MazeDemoObject.obj
 0001:0004c400       ?checkCircles@CollisionDetection@@SA_NHHHHH@Z 0044d400 f i MazeDemoObject.obj
 0001:0004c460       ?getDisplayableObject@DisplayableObjectContainer@@QBEPAVDisplayableObject@@H@Z 0044d460 f i MazeDemoObject.obj
 0001:0004c4a0       ?getXDiffForDirection@MazeDemoObject@@QAEHH@Z 0044d4a0 f i MazeDemoObject.obj
 0001:0004c510       ?getYDiffForDirection@MazeDemoObject@@QAEHH@Z 0044d510 f i MazeDemoObject.obj
 0001:0004c580       ?virtDrawTileAt@MazeDemoTileManager@@UBEXPAVBaseEngine@@PAVDrawingSurface@@HHHH@Z 0044d580 f   MazeDemoTileManager.obj
 0001:0004c757       _SDL_LockSurface           0044d757 f   SDL2:SDL2.dll
 0001:0004c75d       _SDL_UnlockSurface         0044d75d f   SDL2:SDL2.dll
 0001:0004c763       _SDL_FillRect              0044d763 f   SDL2:SDL2.dll
 0001:0004c769       _SDL_CreateRGBSurface      0044d769 f   SDL2:SDL2.dll
 0001:0004c76f       _SDL_FreeSurface           0044d76f f   SDL2:SDL2.dll
 0001:0004c775       _SDL_UpperBlit             0044d775 f   SDL2:SDL2.dll
 0001:0004c77b       _SDL_GetError              0044d77b f   SDL2:SDL2.dll
 0001:0004c781       _SDL_CreateWindow          0044d781 f   SDL2:SDL2.dll
 0001:0004c787       _SDL_PollEvent             0044d787 f   SDL2:SDL2.dll
 0001:0004c78d       _SDL_WaitEvent             0044d78d f   SDL2:SDL2.dll
 0001:0004c793       _SDL_CreateRenderer        0044d793 f   SDL2:SDL2.dll
 0001:0004c799       _SDL_CreateTexture         0044d799 f   SDL2:SDL2.dll
 0001:0004c79f       _SDL_UpdateTexture         0044d79f f   SDL2:SDL2.dll
 0001:0004c7a5       _SDL_RenderCopy            0044d7a5 f   SDL2:SDL2.dll
 0001:0004c7ab       _SDL_RenderPresent         0044d7ab f   SDL2:SDL2.dll
 0001:0004c7b1       _SDL_GetTicks              0044d7b1 f   SDL2:SDL2.dll
 0001:0004c7b7       _SDL_Init                  0044d7b7 f   SDL2:SDL2.dll
 0001:0004c7bd       _SDL_Quit                  0044d7bd f   SDL2:SDL2.dll
 0001:0004c7c3       _SDL_SetClipRect           0044d7c3 f   SDL2:SDL2.dll
 0001:0004c7c9       _SDL_UpperBlitScaled       0044d7c9 f   SDL2:SDL2.dll
 0001:0004c7cf       _IMG_Load                  0044d7cf f   SDL2_image:SDL2_image.dll
 0001:0004c7d5       _TTF_RenderText_Solid      0044d7d5 f   SDL2_ttf:SDL2_ttf.dll
 0001:0004c7db       _TTF_Init                  0044d7db f   SDL2_ttf:SDL2_ttf.dll
 0001:0004c7e1       _TTF_Quit                  0044d7e1 f   SDL2_ttf:SDL2_ttf.dll
 0001:0004c7e7       _TTF_OpenFont              0044d7e7 f   SDL2_ttf:SDL2_ttf.dll
 0001:0004c7ed       _TTF_CloseFont             0044d7ed f   SDL2_ttf:SDL2_ttf.dll
 0001:0004c7f3       ??0_Lockit@std@@QAE@H@Z    0044d7f3 f   msvcprtd:MSVCP140D.dll
 0001:0004c7f9       ??1_Lockit@std@@QAE@XZ     0044d7f9 f   msvcprtd:MSVCP140D.dll
 0001:0004c7ff       ?uncaught_exception@std@@YA_NXZ 0044d7ff f   msvcprtd:MSVCP140D.dll
 0001:0004c805       ?_Xbad_alloc@std@@YAXXZ    0044d805 f   msvcprtd:MSVCP140D.dll
 0001:0004c80b       ?_Xinvalid_argument@std@@YAXPBD@Z 0044d80b f   msvcprtd:MSVCP140D.dll
 0001:0004c811       ?_Xlength_error@std@@YAXPBD@Z 0044d811 f   msvcprtd:MSVCP140D.dll
 0001:0004c817       ?_Xout_of_range@std@@YAXPBD@Z 0044d817 f   msvcprtd:MSVCP140D.dll
 0001:0004c820       ??0_Fac_node@std@@QAE@PAU01@PAV_Facet_base@1@@Z 0044d820 f i msvcprtd:locale0_implib.obj
 0001:0004c850       ??1_Fac_node@std@@QAE@XZ   0044d850 f i msvcprtd:locale0_implib.obj
 0001:0004c910       ??1_Fac_tidy_reg_t@std@@QAE@XZ 0044d910 f i msvcprtd:locale0_implib.obj
 0001:0004c980       ??2_Fac_node@std@@SAPAXI@Z 0044d980 f i msvcprtd:locale0_implib.obj
 0001:0004c9e0       ??3_Fac_node@std@@SAXPAX@Z 0044d9e0 f i msvcprtd:locale0_implib.obj
 0001:0004ca00       ??_G_Fac_node@std@@QAEPAXI@Z 0044da00 f i msvcprtd:locale0_implib.obj
 0001:0004ca60       ?_Facet_Register@std@@YAXPAV_Facet_base@1@@Z 0044da60 f   msvcprtd:locale0_implib.obj
 0001:0004cb10       ?__empty_global_delete@@YAXPAXIW4align_val_t@std@@@Z 0044db10 f i msvcprtd:locale0_implib.obj
 0001:0004cb20       ?__empty_global_delete@@YAXPAXW4align_val_t@std@@@Z 0044db20 f i msvcprtd:locale0_implib.obj
 0001:0004cb25       ??Bid@locale@std@@QAEIXZ   0044db25 f   msvcprtd:MSVCP140D.dll
 0001:0004cb2b       ?_Getgloballocale@locale@std@@CAPAV_Locimp@12@XZ 0044db2b f   msvcprtd:MSVCP140D.dll
 0001:0004cb31       ?always_noconv@codecvt_base@std@@QBE_NXZ 0044db31 f   msvcprtd:MSVCP140D.dll
 0001:0004cb37       ?in@?$codecvt@DDU_Mbstatet@@@std@@QBEHAAU_Mbstatet@@PBD1AAPBDPAD3AAPAD@Z 0044db37 f   msvcprtd:MSVCP140D.dll
 0001:0004cb3d       ?out@?$codecvt@DDU_Mbstatet@@@std@@QBEHAAU_Mbstatet@@PBD1AAPBDPAD3AAPAD@Z 0044db3d f   msvcprtd:MSVCP140D.dll
 0001:0004cb43       ?unshift@?$codecvt@DDU_Mbstatet@@@std@@QBEHAAU_Mbstatet@@PAD1AAPAD@Z 0044db43 f   msvcprtd:MSVCP140D.dll
 0001:0004cb49       ?_Getcat@?$codecvt@DDU_Mbstatet@@@std@@SAIPAPBVfacet@locale@2@PBV42@@Z 0044db49 f   msvcprtd:MSVCP140D.dll
 0001:0004cb4f       ??Bios_base@std@@QBE_NXZ   0044db4f f   msvcprtd:MSVCP140D.dll
 0001:0004cb55       ?good@ios_base@std@@QBE_NXZ 0044db55 f   msvcprtd:MSVCP140D.dll
 0001:0004cb5b       ?flags@ios_base@std@@QBEHXZ 0044db5b f   msvcprtd:MSVCP140D.dll
 0001:0004cb61       ?width@ios_base@std@@QBE_JXZ 0044db61 f   msvcprtd:MSVCP140D.dll
 0001:0004cb67       ?width@ios_base@std@@QAE_J_J@Z 0044db67 f   msvcprtd:MSVCP140D.dll
 0001:0004cb6d       ??0?$basic_streambuf@DU?$char_traits@D@std@@@std@@IAE@XZ 0044db6d f   msvcprtd:MSVCP140D.dll
 0001:0004cb73       ??1?$basic_streambuf@DU?$char_traits@D@std@@@std@@UAE@XZ 0044db73 f   msvcprtd:MSVCP140D.dll
 0001:0004cb79       ?getloc@?$basic_streambuf@DU?$char_traits@D@std@@@std@@QBE?AVlocale@2@XZ 0044db79 f   msvcprtd:MSVCP140D.dll
 0001:0004cb7f       ?sbumpc@?$basic_streambuf@DU?$char_traits@D@std@@@std@@QAEHXZ 0044db7f f   msvcprtd:MSVCP140D.dll
 0001:0004cb85       ?sgetc@?$basic_streambuf@DU?$char_traits@D@std@@@std@@QAEHXZ 0044db85 f   msvcprtd:MSVCP140D.dll
 0001:0004cb8b       ?snextc@?$basic_streambuf@DU?$char_traits@D@std@@@std@@QAEHXZ 0044db8b f   msvcprtd:MSVCP140D.dll
 0001:0004cb91       ?sputc@?$basic_streambuf@DU?$char_traits@D@std@@@std@@QAEHD@Z 0044db91 f   msvcprtd:MSVCP140D.dll
 0001:0004cb97       ?sputn@?$basic_streambuf@DU?$char_traits@D@std@@@std@@QAE_JPBD_J@Z 0044db97 f   msvcprtd:MSVCP140D.dll
 0001:0004cb9d       ?eback@?$basic_streambuf@DU?$char_traits@D@std@@@std@@IBEPADXZ 0044db9d f   msvcprtd:MSVCP140D.dll
 0001:0004cba3       ?gptr@?$basic_streambuf@DU?$char_traits@D@std@@@std@@IBEPADXZ 0044dba3 f   msvcprtd:MSVCP140D.dll
 0001:0004cba9       ?pptr@?$basic_streambuf@DU?$char_traits@D@std@@@std@@IBEPADXZ 0044dba9 f   msvcprtd:MSVCP140D.dll
 0001:0004cbaf       ?egptr@?$basic_streambuf@DU?$char_traits@D@std@@@std@@IBEPADXZ 0044dbaf f   msvcprtd:MSVCP140D.dll
 0001:0004cbb5       ?gbump@?$basic_streambuf@DU?$char_traits@D@std@@@std@@IAEXH@Z 0044dbb5 f   msvcprtd:MSVCP140D.dll
 0001:0004cbbb       ?setg@?$basic_streambuf@DU?$char_traits@D@std@@@std@@IAEXPAD00@Z 0044dbbb f   msvcprtd:MSVCP140D.dll
 0001:0004cbc1       ?epptr@?$basic_streambuf@DU?$char_traits@D@std@@@std@@IBEPADXZ 0044dbc1 f   msvcprtd:MSVCP140D.dll
 0001:0004cbc7       ?_Gndec@?$basic_streambuf@DU?$char_traits@D@std@@@std@@IAEPADXZ 0044dbc7 f   msvcprtd:MSVCP140D.dll
 0001:0004cbcd       ?_Gninc@?$basic_streambuf@DU?$char_traits@D@std@@@std@@IAEPADXZ 0044dbcd f   msvcprtd:MSVCP140D.dll
 0001:0004cbd3       ?_Gnavail@?$basic_streambuf@DU?$char_traits@D@std@@@std@@IBE_JXZ 0044dbd3 f   msvcprtd:MSVCP140D.dll
 0001:0004cbd9       ?pbump@?$basic_streambuf@DU?$char_traits@D@std@@@std@@IAEXH@Z 0044dbd9 f   msvcprtd:MSVCP140D.dll
 0001:0004cbdf       ?setp@?$basic_streambuf@DU?$char_traits@D@std@@@std@@IAEXPAD0@Z 0044dbdf f   msvcprtd:MSVCP140D.dll
 0001:0004cbe5       ?setp@?$basic_streambuf@DU?$char_traits@D@std@@@std@@IAEXPAD00@Z 0044dbe5 f   msvcprtd:MSVCP140D.dll
 0001:0004cbeb       ?_Pninc@?$basic_streambuf@DU?$char_traits@D@std@@@std@@IAEPADXZ 0044dbeb f   msvcprtd:MSVCP140D.dll
 0001:0004cbf1       ?_Pnavail@?$basic_streambuf@DU?$char_traits@D@std@@@std@@IBE_JXZ 0044dbf1 f   msvcprtd:MSVCP140D.dll
 0001:0004cbf7       ?_Init@?$basic_streambuf@DU?$char_traits@D@std@@@std@@IAEXXZ 0044dbf7 f   msvcprtd:MSVCP140D.dll
 0001:0004cbfd       ?_Init@?$basic_streambuf@DU?$char_traits@D@std@@@std@@IAEXPAPAD0PAH001@Z 0044dbfd f   msvcprtd:MSVCP140D.dll
 0001:0004cc03       ?xsgetn@?$basic_streambuf@DU?$char_traits@D@std@@@std@@MAE_JPAD_J@Z 0044dc03 f   msvcprtd:MSVCP140D.dll
 0001:0004cc09       ?xsputn@?$basic_streambuf@DU?$char_traits@D@std@@@std@@MAE_JPBD_J@Z 0044dc09 f   msvcprtd:MSVCP140D.dll
 0001:0004cc0f       ??1?$basic_ios@DU?$char_traits@D@std@@@std@@UAE@XZ 0044dc0f f   msvcprtd:MSVCP140D.dll
 0001:0004cc15       ?setstate@?$basic_ios@DU?$char_traits@D@std@@@std@@QAEXH_N@Z 0044dc15 f   msvcprtd:MSVCP140D.dll
 0001:0004cc1b       ?tie@?$basic_ios@DU?$char_traits@D@std@@@std@@QBEPAV?$basic_ostream@DU?$char_traits@D@std@@@2@XZ 0044dc1b f   msvcprtd:MSVCP140D.dll
 0001:0004cc21       ?rdbuf@?$basic_ios@DU?$char_traits@D@std@@@std@@QBEPAV?$basic_streambuf@DU?$char_traits@D@std@@@2@XZ 0044dc21 f   msvcprtd:MSVCP140D.dll
 0001:0004cc27       ?fill@?$basic_ios@DU?$char_traits@D@std@@@std@@QBEDXZ 0044dc27 f   msvcprtd:MSVCP140D.dll
 0001:0004cc2d       ?widen@?$basic_ios@DU?$char_traits@D@std@@@std@@QBEDD@Z 0044dc2d f   msvcprtd:MSVCP140D.dll
 0001:0004cc33       ??0?$basic_ios@DU?$char_traits@D@std@@@std@@IAE@XZ 0044dc33 f   msvcprtd:MSVCP140D.dll
 0001:0004cc39       ??0?$basic_ostream@DU?$char_traits@D@std@@@std@@QAE@PAV?$basic_streambuf@DU?$char_traits@D@std@@@1@_N@Z 0044dc39 f   msvcprtd:MSVCP140D.dll
 0001:0004cc3f       ??1?$basic_ostream@DU?$char_traits@D@std@@@std@@UAE@XZ 0044dc3f f   msvcprtd:MSVCP140D.dll
 0001:0004cc45       ?_Osfx@?$basic_ostream@DU?$char_traits@D@std@@@std@@QAEXXZ 0044dc45 f   msvcprtd:MSVCP140D.dll
 0001:0004cc4b       ??6?$basic_ostream@DU?$char_traits@D@std@@@std@@QAEAAV01@H@Z 0044dc4b f   msvcprtd:MSVCP140D.dll
 0001:0004cc51       ?flush@?$basic_ostream@DU?$char_traits@D@std@@@std@@QAEAAV12@XZ 0044dc51 f   msvcprtd:MSVCP140D.dll
 0001:0004cc57       ??0?$basic_istream@DU?$char_traits@D@std@@@std@@QAE@PAV?$basic_streambuf@DU?$char_traits@D@std@@@1@_N@Z 0044dc57 f   msvcprtd:MSVCP140D.dll
 0001:0004cc5d       ??1?$basic_istream@DU?$char_traits@D@std@@@std@@UAE@XZ 0044dc5d f   msvcprtd:MSVCP140D.dll
 0001:0004cc63       ?_Ipfx@?$basic_istream@DU?$char_traits@D@std@@@std@@QAE_N_N@Z 0044dc63 f   msvcprtd:MSVCP140D.dll
 0001:0004cc69       ??0?$basic_iostream@DU?$char_traits@D@std@@@std@@QAE@PAV?$basic_streambuf@DU?$char_traits@D@std@@@1@@Z 0044dc69 f   msvcprtd:MSVCP140D.dll
 0001:0004cc6f       ??1?$basic_iostream@DU?$char_traits@D@std@@@std@@UAE@XZ 0044dc6f f   msvcprtd:MSVCP140D.dll
 0001:0004cc75       ?_Fiopen@std@@YAPAU_iobuf@@PBDHH@Z 0044dc75 f   msvcprtd:MSVCP140D.dll
 0001:0004cc7b       ?_Lock@?$basic_streambuf@DU?$char_traits@D@std@@@std@@UAEXXZ 0044dc7b f   msvcprtd:MSVCP140D.dll
 0001:0004cc81       ?_Unlock@?$basic_streambuf@DU?$char_traits@D@std@@@std@@UAEXXZ 0044dc81 f   msvcprtd:MSVCP140D.dll
 0001:0004cc87       ?imbue@?$basic_streambuf@DU?$char_traits@D@std@@@std@@MAEXABVlocale@2@@Z 0044dc87 f   msvcprtd:MSVCP140D.dll
 0001:0004cc8d       ?setbuf@?$basic_streambuf@DU?$char_traits@D@std@@@std@@MAEPAV12@PAD_J@Z 0044dc8d f   msvcprtd:MSVCP140D.dll
 0001:0004cc93       ?showmanyc@?$basic_streambuf@DU?$char_traits@D@std@@@std@@MAE_JXZ 0044dc93 f   msvcprtd:MSVCP140D.dll
 0001:0004cc99       ?sync@?$basic_streambuf@DU?$char_traits@D@std@@@std@@MAEHXZ 0044dc99 f   msvcprtd:MSVCP140D.dll
 0001:0004cc9f       ?uflow@?$basic_streambuf@DU?$char_traits@D@std@@@std@@MAEHXZ 0044dc9f f   msvcprtd:MSVCP140D.dll
 0001:0004cca5       ??6?$basic_ostream@DU?$char_traits@D@std@@@std@@QAEAAV01@P6AAAV01@AAV01@@Z@Z 0044dca5 f   msvcprtd:MSVCP140D.dll
 0001:0004ccab       ?put@?$basic_ostream@DU?$char_traits@D@std@@@std@@QAEAAV12@D@Z 0044dcab f   msvcprtd:MSVCP140D.dll
 0001:0004ccb1       ?_Xbad_function_call@std@@YAXXZ 0044dcb1 f   msvcprtd:MSVCP140D.dll
 0001:0004d090       ?configure_argv@__scrt_narrow_argv_policy@@SAHXZ 0044e090 f i MSVCRTD:exe_main.obj
 0001:0004d0b0       ?initialize_environment@__scrt_narrow_environment_policy@@SAHXZ 0044e0b0 f i MSVCRTD:exe_main.obj
 0001:0004d0f0       ?set_app_type@__scrt_main_policy@@SAXXZ 0044e0f0 f i MSVCRTD:exe_main.obj
 0001:0004d110       ?set_commode@__scrt_file_policy@@SAXXZ 0044e110 f i MSVCRTD:exe_main.obj
 0001:0004d130       ?set_fmode@__scrt_file_policy@@SAXXZ 0044e130 f i MSVCRTD:exe_main.obj
 0001:0004d150       _mainCRTStartup            0044e150 f   MSVCRTD:exe_main.obj
 0001:0004d160       ??2@YAPAXI@Z               0044e160 f   MSVCRTD:new_scalar.obj
 0001:0004d1c0       ??3@YAXPAXI@Z              0044e1c0 f   MSVCRTD:delete_scalar_size.obj
 0001:0004d1e0       @__security_check_cookie@4 0044e1e0 f   MSVCRTD:secchk.obj
 0001:0004d200       ??1type_info@@UAE@XZ       0044e200 f   MSVCRTD:std_type_info_static.obj
 0001:0004d220       ??_Gtype_info@@UAEPAXI@Z   0044e220 f i MSVCRTD:std_type_info_static.obj
 0001:0004d220       ??_Etype_info@@UAEPAXI@Z   0044e220 f i MSVCRTD:std_type_info_static.obj
 0001:0004d260       ??_U@YAPAXI@Z              0044e260 f   MSVCRTD:new_array.obj
 0001:0004d280       ??_V@YAXPAX@Z              0044e280 f   MSVCRTD:delete_array.obj
 0001:0004d2a0       ??$__crt_fast_decode_pointer@PAP6AXXZ@@YAPAP6AXXZQAP6AXXZ@Z 0044e2a0 f i MSVCRTD:utility.obj
 0001:0004d2d0       ??$__crt_fast_encode_pointer@PAP6AXXZ@@YAPAP6AXXZQAP6AXXZ@Z 0044e2d0 f i MSVCRTD:utility.obj
 0001:0004d310       ?__crt_rotate_pointer_value@@YAIIH@Z 0044e310 f i MSVCRTD:utility.obj
 0001:0004d460       _NtCurrentTeb              0044e460 f i MSVCRTD:utility.obj
 0001:0004d470       ___scrt_acquire_startup_lock 0044e470 f   MSVCRTD:utility.obj
 0001:0004d4d0       ___scrt_dllmain_after_initialize_c 0044e4d0 f   MSVCRTD:utility.obj
 0001:0004d510       ___scrt_dllmain_before_initialize_c 0044e510 f   MSVCRTD:utility.obj
 0001:0004d540       ___scrt_dllmain_crt_thread_attach 0044e540 f   MSVCRTD:utility.obj
 0001:0004d580       ___scrt_dllmain_crt_thread_detach 0044e580 f   MSVCRTD:utility.obj
 0001:0004d5a0       ___scrt_dllmain_exception_filter 0044e5a0 f   MSVCRTD:utility.obj
 0001:0004d600       ___scrt_dllmain_uninitialize_c 0044e600 f   MSVCRTD:utility.obj
 0001:0004d640       ___scrt_dllmain_uninitialize_critical 0044e640 f   MSVCRTD:utility.obj
 0001:0004d660       ___scrt_initialize_crt     0044e660 f   MSVCRTD:utility.obj
 0001:0004d6c0       ___scrt_initialize_onexit_tables 0044e6c0 f   MSVCRTD:utility.obj
 0001:0004d7e0       ___scrt_is_nonwritable_in_current_image 0044e7e0 f   MSVCRTD:utility.obj
 0001:0004d960       ___scrt_release_startup_lock 0044e960 f   MSVCRTD:utility.obj
 0001:0004d990       ___scrt_uninitialize_crt   0044e990 f   MSVCRTD:utility.obj
 0001:0004d9e0       __onexit                   0044e9e0 f   MSVCRTD:utility.obj
 0001:0004da70       _at_quick_exit             0044ea70 f   MSVCRTD:utility.obj
 0001:0004dad0       _atexit                    0044ead0 f   MSVCRTD:utility.obj
 0001:0004db10       @_guard_check_icall_nop@4  0044eb10 f i MSVCRTD:guard_support.obj
 0001:0004db20       _ReadNoFence               0044eb20 f i MSVCRTD:guard_support.obj
 0001:0004db40       _ReadPointerNoFence        0044eb40 f i MSVCRTD:guard_support.obj
 0001:0004db60       __guard_icall_checks_enforced 0044eb60 f i MSVCRTD:guard_support.obj
 0001:0004dc30       ___security_init_cookie    0044ec30 f   MSVCRTD:gs_support.obj
 0001:0004dcd0       __matherr                  0044ecd0 f   MSVCRTD:matherr.obj
 0001:0004dce0       __get_startup_argv_mode    0044ece0 f   MSVCRTD:argv_mode.obj
 0001:0004dcf0       __get_startup_commit_mode  0044ecf0 f   MSVCRTD:commit_mode.obj
 0001:0004dd00       __get_startup_file_mode    0044ed00 f   MSVCRTD:file_mode.obj
 0001:0004dd10       __get_startup_new_mode     0044ed10 f   MSVCRTD:new_mode.obj
 0001:0004dd20       __get_startup_thread_locale_mode 0044ed20 f   MSVCRTD:thread_locale.obj
 0001:0004dd30       ?__scrt_initialize_type_info@@YAXXZ 0044ed30 f   MSVCRTD:tncleanup.obj
 0001:0004dd50       ?__scrt_uninitialize_type_info@@YAXXZ 0044ed50 f   MSVCRTD:tncleanup.obj
 0001:0004dd70       __should_initialize_environment 0044ed70 f   MSVCRTD:env_mode.obj
 0001:0004dd80       __initialize_default_precision 0044ed80 f   MSVCRTD:default_precision.obj
 0001:0004ddb0       __initialize_invalid_parameter_handler 0044edb0 f   MSVCRTD:invalid_parameter_handler.obj
 0001:0004ddc0       __initialize_denormal_control 0044edc0 f   MSVCRTD:denormal_control.obj
 0001:0004ddd0       ___local_stdio_scanf_options 0044edd0 f i MSVCRTD:default_local_stdio_options.obj
 0001:0004dde0       ___scrt_initialize_default_local_stdio_options 0044ede0 f   MSVCRTD:default_local_stdio_options.obj
 0001:0004de30       ___scrt_is_user_matherr_present 0044ee30 f   MSVCRTD:matherr_detection.obj
 0001:0004de60       ___scrt_get_dyn_tls_init_callback 0044ee60 f   MSVCRTD:dyn_tls_init.obj
 0001:0004de70       ___scrt_get_dyn_tls_dtor_callback 0044ee70 f   MSVCRTD:dyn_tls_dtor.obj
 0001:0004de80       ___scrt_fastfail           0044ee80 f   MSVCRTD:utility_desktop.obj
 0001:0004e010       ___scrt_get_show_window_mode 0044f010 f   MSVCRTD:utility_desktop.obj
 0001:0004e060       ___scrt_initialize_mta     0044f060 f   MSVCRTD:utility_desktop.obj
 0001:0004e070       ___scrt_initialize_winrt   0044f070 f   MSVCRTD:utility_desktop.obj
 0001:0004e080       ___scrt_is_managed_app     0044f080 f   MSVCRTD:utility_desktop.obj
 0001:0004e130       ___scrt_set_unhandled_exception_filter 0044f130 f   MSVCRTD:utility_desktop.obj
 0001:0004e150       ___scrt_stub_for_initialize_mta 0044f150 f   MSVCRTD:utility_desktop.obj
 0001:0004e150       ___scrt_exe_initialize_mta 0044f150 f   MSVCRTD:utility_desktop.obj
 0001:0004e160       ___scrt_unhandled_exception_filter@4 0044f160 f   MSVCRTD:utility_desktop.obj
 0001:0004e1e0       __crt_debugger_hook        0044f1e0 f   MSVCRTD:utility_desktop.obj
 0001:0004e200       __RTC_Initialize           0044f200 f   MSVCRTD:initsect.obj
 0001:0004e240       __RTC_Terminate            0044f240 f   MSVCRTD:initsect.obj
 0001:0004e280       __except_handler4          0044f280 f   MSVCRTD:chandler4gs.obj
 0001:0004e2b0       ??0bad_alloc@std@@AAE@QBD@Z 0044f2b0 f i MSVCRTD:throw_bad_alloc.obj
 0001:0004e2e0       ??0bad_alloc@std@@QAE@ABV01@@Z 0044f2e0 f i MSVCRTD:throw_bad_alloc.obj
 0001:0004e310       ??0bad_alloc@std@@QAE@XZ   0044f310 f i MSVCRTD:throw_bad_alloc.obj
 0001:0004e340       ??0bad_array_new_length@std@@QAE@ABV01@@Z 0044f340 f i MSVCRTD:throw_bad_alloc.obj
 0001:0004e370       ??0bad_array_new_length@std@@QAE@XZ 0044f370 f i MSVCRTD:throw_bad_alloc.obj
 0001:0004e3a0       ??1bad_alloc@std@@UAE@XZ   0044f3a0 f i MSVCRTD:throw_bad_alloc.obj
 0001:0004e3c0       ??1bad_array_new_length@std@@UAE@XZ 0044f3c0 f i MSVCRTD:throw_bad_alloc.obj
 0001:0004e3e0       ??_Ebad_alloc@std@@UAEPAXI@Z 0044f3e0 f i MSVCRTD:throw_bad_alloc.obj
 0001:0004e3e0       ??_Gbad_alloc@std@@UAEPAXI@Z 0044f3e0 f i MSVCRTD:throw_bad_alloc.obj
 0001:0004e420       ??_Ebad_array_new_length@std@@UAEPAXI@Z 0044f420 f i MSVCRTD:throw_bad_alloc.obj
 0001:0004e420       ??_Gbad_array_new_length@std@@UAEPAXI@Z 0044f420 f i MSVCRTD:throw_bad_alloc.obj
 0001:0004e460       ?__scrt_throw_std_bad_alloc@@YAXXZ 0044f460 f   MSVCRTD:throw_bad_alloc.obj
 0001:0004e490       ?__scrt_throw_std_bad_array_new_length@@YAXXZ 0044f490 f   MSVCRTD:throw_bad_alloc.obj
 0001:0004e4c0       ??3@YAXPAX@Z               0044f4c0 f   MSVCRTD:delete_scalar.obj
 0001:0004e4e0       ___raise_securityfailure   0044f4e0 f   MSVCRTD:gs_report.obj
 0001:0004e520       ___report_gsfailure        0044f520 f   MSVCRTD:gs_report.obj
 0001:0004e670       ___report_rangecheckfailure 0044f670 f   MSVCRTD:gs_report.obj
 0001:0004e680       ___report_securityfailure  0044f680 f   MSVCRTD:gs_report.obj
 0001:0004e790       ___report_securityfailureEx 0044f790 f   MSVCRTD:gs_report.obj
 0001:0004e900       ___isa_available_init      0044f900 f   MSVCRTD:cpu_disp.obj
 0001:0004ec90       ___scrt_is_ucrt_dll_in_use 0044fc90 f   MSVCRTD:ucrt_detection.obj
 0001:0004ecbd       _memcpy                    0044fcbd f   vcruntimed:VCRUNTIME140D.dll
 0001:0004ecc3       _memmove                   0044fcc3 f   vcruntimed:VCRUNTIME140D.dll
 0001:0004ecc9       ___std_exception_copy      0044fcc9 f   vcruntimed:VCRUNTIME140D.dll
 0001:0004eccf       ___std_exception_destroy   0044fccf f   vcruntimed:VCRUNTIME140D.dll
 0001:0004ecd5       __CxxThrowException@8      0044fcd5 f   vcruntimed:VCRUNTIME140D.dll
 0001:0004ecdb       ___CxxFrameHandler3        0044fcdb f   vcruntimed:VCRUNTIME140D.dll
 0001:0004ece1       ___RTDynamicCast           0044fce1 f   vcruntimed:VCRUNTIME140D.dll
 0001:0004ece7       __purecall                 0044fce7 f   vcruntimed:VCRUNTIME140D.dll
 0001:0004eced       _memcmp                    0044fced f   vcruntimed:VCRUNTIME140D.dll
 0001:0004ecf3       _memset                    0044fcf3 f   vcruntimed:VCRUNTIME140D.dll
 0001:0004ecf9       ___std_type_info_destroy_list 0044fcf9 f   vcruntimed:VCRUNTIME140D.dll
 0001:0004ecff       __except_handler4_common   0044fcff f   vcruntimed:VCRUNTIME140D.dll
 0001:0004ed05       __invalid_parameter        0044fd05 f   ucrtd:ucrtbased.dll
 0001:0004ed0b       __CrtDbgReport             0044fd0b f   ucrtd:ucrtbased.dll
 0001:0004ed11       __errno                    0044fd11 f   ucrtd:ucrtbased.dll
 0001:0004ed17       _rand                      0044fd17 f   ucrtd:ucrtbased.dll
 0001:0004ed1d       _strtol                    0044fd1d f   ucrtd:ucrtbased.dll
 0001:0004ed23       __get_stream_buffer_pointers 0044fd23 f   ucrtd:ucrtbased.dll
 0001:0004ed29       _fclose                    0044fd29 f   ucrtd:ucrtbased.dll
 0001:0004ed2f       _fflush                    0044fd2f f   ucrtd:ucrtbased.dll
 0001:0004ed35       _fgetc                     0044fd35 f   ucrtd:ucrtbased.dll
 0001:0004ed3b       _fgetpos                   0044fd3b f   ucrtd:ucrtbased.dll
 0001:0004ed41       _fputc                     0044fd41 f   ucrtd:ucrtbased.dll
 0001:0004ed47       _fread                     0044fd47 f   ucrtd:ucrtbased.dll
 0001:0004ed4d       _fsetpos                   0044fd4d f   ucrtd:ucrtbased.dll
 0001:0004ed53       __fseeki64                 0044fd53 f   ucrtd:ucrtbased.dll
 0001:0004ed59       _fwrite                    0044fd59 f   ucrtd:ucrtbased.dll
 0001:0004ed5f       _setvbuf                   0044fd5f f   ucrtd:ucrtbased.dll
 0001:0004ed65       _ungetc                    0044fd65 f   ucrtd:ucrtbased.dll
 0001:0004ed6b       __lock_file                0044fd6b f   ucrtd:ucrtbased.dll
 0001:0004ed71       __unlock_file              0044fd71 f   ucrtd:ucrtbased.dll
 0001:0004ed77       ___stdio_common_vsprintf   0044fd77 f   ucrtd:ucrtbased.dll
 0001:0004ed7d       _strlen                    0044fd7d f   ucrtd:ucrtbased.dll
 0001:0004ed83       ___acrt_iob_func           0044fd83 f   ucrtd:ucrtbased.dll
 0001:0004ed89       ___stdio_common_vfprintf   0044fd89 f   ucrtd:ucrtbased.dll
 0001:0004ed8f       _fabs                      0044fd8f f   ucrtd:ucrtbased.dll
 0001:0004ed95       _pow                       0044fd95 f   ucrtd:ucrtbased.dll
 0001:0004ed9b       _sqrt                      0044fd9b f   ucrtd:ucrtbased.dll
 0001:0004eda1       _atan                      0044fda1 f   ucrtd:ucrtbased.dll
 0001:0004eda7       _atan2                     0044fda7 f   ucrtd:ucrtbased.dll
 0001:0004edad       _cos                       0044fdad f   ucrtd:ucrtbased.dll
 0001:0004edb3       _sin                       0044fdb3 f   ucrtd:ucrtbased.dll
 0001:0004edb9       _atoi                      0044fdb9 f   ucrtd:ucrtbased.dll
 0001:0004edbf       _fgets                     0044fdbf f   ucrtd:ucrtbased.dll
 0001:0004edc5       _fopen                     0044fdc5 f   ucrtd:ucrtbased.dll
 0001:0004edcb       __CrtDumpMemoryLeaks       0044fdcb f   ucrtd:ucrtbased.dll
 0001:0004edd1       _srand                     0044fdd1 f   ucrtd:ucrtbased.dll
 0001:0004edd7       __time64                   0044fdd7 f   ucrtd:ucrtbased.dll
 0001:0004eddd       _puts                      0044fddd f   ucrtd:ucrtbased.dll
 0001:0004ede3       _strcmp                    0044fde3 f   ucrtd:ucrtbased.dll
 0001:0004ede9       _strcpy                    0044fde9 f   ucrtd:ucrtbased.dll
 0001:0004edef       __free_dbg                 0044fdef f   ucrtd:ucrtbased.dll
 0001:0004edf5       __malloc_dbg               0044fdf5 f   ucrtd:ucrtbased.dll
 0001:0004edfb       __seh_filter_exe           0044fdfb f   ucrtd:ucrtbased.dll
 0001:0004ee01       __set_app_type             0044fe01 f   ucrtd:ucrtbased.dll
 0001:0004ee07       ___setusermatherr          0044fe07 f   ucrtd:ucrtbased.dll
 0001:0004ee0d       __configure_narrow_argv    0044fe0d f   ucrtd:ucrtbased.dll
 0001:0004ee13       __initialize_narrow_environment 0044fe13 f   ucrtd:ucrtbased.dll
 0001:0004ee19       __get_initial_narrow_environment 0044fe19 f   ucrtd:ucrtbased.dll
 0001:0004ee1f       __initterm                 0044fe1f f   ucrtd:ucrtbased.dll
 0001:0004ee25       __initterm_e               0044fe25 f   ucrtd:ucrtbased.dll
 0001:0004ee2b       _exit                      0044fe2b f   ucrtd:ucrtbased.dll
 0001:0004ee31       __exit                     0044fe31 f   ucrtd:ucrtbased.dll
 0001:0004ee37       __set_fmode                0044fe37 f   ucrtd:ucrtbased.dll
 0001:0004ee3d       ___p___argc                0044fe3d f   ucrtd:ucrtbased.dll
 0001:0004ee43       ___p___argv                0044fe43 f   ucrtd:ucrtbased.dll
 0001:0004ee49       __cexit                    0044fe49 f   ucrtd:ucrtbased.dll
 0001:0004ee4f       __c_exit                   0044fe4f f   ucrtd:ucrtbased.dll
 0001:0004ee55       __register_thread_local_exe_atexit_callback 0044fe55 f   ucrtd:ucrtbased.dll
 0001:0004ee5b       __configthreadlocale       0044fe5b f   ucrtd:ucrtbased.dll
 0001:0004ee61       __set_new_mode             0044fe61 f   ucrtd:ucrtbased.dll
 0001:0004ee67       ___p__commode              0044fe67 f   ucrtd:ucrtbased.dll
 0001:0004ee6d       __callnewh                 0044fe6d f   ucrtd:ucrtbased.dll
 0001:0004ee73       _malloc                    0044fe73 f   ucrtd:ucrtbased.dll
 0001:0004ee79       __seh_filter_dll           0044fe79 f   ucrtd:ucrtbased.dll
 0001:0004ee7f       __initialize_onexit_table  0044fe7f f   ucrtd:ucrtbased.dll
 0001:0004ee85       __register_onexit_function 0044fe85 f   ucrtd:ucrtbased.dll
 0001:0004ee8b       __execute_onexit_table     0044fe8b f   ucrtd:ucrtbased.dll
 0001:0004ee91       __crt_atexit               0044fe91 f   ucrtd:ucrtbased.dll
 0001:0004ee97       __crt_at_quick_exit        0044fe97 f   ucrtd:ucrtbased.dll
 0001:0004ee9d       __controlfp_s              0044fe9d f   ucrtd:ucrtbased.dll
 0001:0004eea3       _terminate                 0044fea3 f   ucrtd:ucrtbased.dll
 0001:0004eff0       _WinMain@16                0044fff0 f   SDL2main:SDL_windows_main.obj
 0001:0004f000       _main                      00450000 f   SDL2main:SDL_windows_main.obj
 0001:0004f150       _wmain                     00450150 f   SDL2main:SDL_windows_main.obj
 0001:0004f155       _QueryPerformanceCounter@4 00450155 f   kernel32:KERNEL32.dll
 0001:0004f15b       _GetCurrentProcessId@0     0045015b f   kernel32:KERNEL32.dll
 0001:0004f161       _GetCurrentThreadId@0      00450161 f   kernel32:KERNEL32.dll
 0001:0004f167       _GetSystemTimeAsFileTime@4 00450167 f   kernel32:KERNEL32.dll
 0001:0004f16d       _InitializeSListHead@4     0045016d f   kernel32:KERNEL32.dll
 0001:0004f173       _IsDebuggerPresent@0       00450173 f   kernel32:KERNEL32.dll
 0001:0004f179       _UnhandledExceptionFilter@4 00450179 f   kernel32:KERNEL32.dll
 0001:0004f17f       _SetUnhandledExceptionFilter@4 0045017f f   kernel32:KERNEL32.dll
 0001:0004f185       _GetStartupInfoW@4         00450185 f   kernel32:KERNEL32.dll
 0001:0004f18b       _IsProcessorFeaturePresent@4 0045018b f   kernel32:KERNEL32.dll
 0001:0004f191       _GetModuleHandleW@4        00450191 f   kernel32:KERNEL32.dll
 0001:0004f197       _GetCurrentProcess@0       00450197 f   kernel32:KERNEL32.dll
 0001:0004f19d       _TerminateProcess@8        0045019d f   kernel32:KERNEL32.dll
 0001:0004f1a3       _GetCommandLineW@0         004501a3 f   kernel32:KERNEL32.dll
 0001:0004f1a9       _VirtualAlloc@16           004501a9 f   kernel32:KERNEL32.dll
 0001:0004f1af       _VirtualFree@12            004501af f   kernel32:KERNEL32.dll
 0001:0004f1b5       _WideCharToMultiByte@32    004501b5 f   kernel32:KERNEL32.dll
 0001:0004f1bb       _SDL_SetMainReady          004501bb f   SDL2:SDL2.dll
 0001:0004f1c1       _SDL_ShowSimpleMessageBox  004501c1 f   SDL2:SDL2.dll
 0001:0004f1d0       ___acrt_initialize         004501d0 f   MSVCRTD:ucrt_stubs.obj
 0001:0004f1d0       ___scrt_stub_for_acrt_initialize 004501d0 f   MSVCRTD:ucrt_stubs.obj
 0001:0004f1d0       ___vcrt_initialize         004501d0 f   MSVCRTD:ucrt_stubs.obj
 0001:0004f1e0       ___acrt_thread_attach      004501e0 f   MSVCRTD:ucrt_stubs.obj
 0001:0004f1e0       ___scrt_stub_for_acrt_thread_attach 004501e0 f   MSVCRTD:ucrt_stubs.obj
 0001:0004f1e0       ___vcrt_thread_attach      004501e0 f   MSVCRTD:ucrt_stubs.obj
 0001:0004f1f0       ___scrt_stub_for_acrt_thread_detach 004501f0 f   MSVCRTD:ucrt_stubs.obj
 0001:0004f1f0       ___acrt_thread_detach      004501f0 f   MSVCRTD:ucrt_stubs.obj
 0001:0004f1f0       ___vcrt_thread_detach      004501f0 f   MSVCRTD:ucrt_stubs.obj
 0001:0004f200       ___scrt_stub_for_acrt_uninitialize 00450200 f   MSVCRTD:ucrt_stubs.obj
 0001:0004f200       ___acrt_uninitialize       00450200 f   MSVCRTD:ucrt_stubs.obj
 0001:0004f200       ___vcrt_uninitialize       00450200 f   MSVCRTD:ucrt_stubs.obj
 0001:0004f210       ___scrt_stub_for_acrt_uninitialize_critical 00450210 f   MSVCRTD:ucrt_stubs.obj
 0001:0004f210       ___vcrt_uninitialize_critical 00450210 f   MSVCRTD:ucrt_stubs.obj
 0001:0004f210       ___acrt_uninitialize_critical 00450210 f   MSVCRTD:ucrt_stubs.obj
 0001:0004f220       ___scrt_stub_for_is_c_termination_complete 00450220 f   MSVCRTD:ucrt_stubs.obj
 0001:0004f220       __is_c_termination_complete 00450220 f   MSVCRTD:ucrt_stubs.obj
 0002:00000000       ___xc_a                    00459000     MSVCRTD:initializers.obj
 0002:00000410       ___xc_z                    00459410     MSVCRTD:initializers.obj
 0002:00000514       ___xi_a                    00459514     MSVCRTD:initializers.obj
 0002:00000820       ___xi_z                    00459820     MSVCRTD:initializers.obj
 0002:00000924       ___xp_a                    00459924     MSVCRTD:initializers.obj
 0002:00000a28       ___xp_z                    00459a28     MSVCRTD:initializers.obj
 0002:00000b2c       ___xt_a                    00459b2c     MSVCRTD:initializers.obj
 0002:00000c30       ___xt_z                    00459c30     MSVCRTD:initializers.obj
 0002:0000103c       ??_7exception@std@@6B@     0045a03c     CW3_Game.obj
 0002:00001048       ??_C@_0BC@EOODALEL@Unknown?5exception@ 0045a048     CW3_Game.obj
 0002:00001060       ??_C@_0BB@FCMFBGOM@invalid?5argument@ 0045a060     CW3_Game.obj
 0002:00001074       ??_C@_02DKCKIIND@?$CFs@    0045a074     CW3_Game.obj
 0002:00001078       ??_C@_1CG@JNLFBNGN@?$AA?$CC?$AAi?$AAn?$AAv?$AAa?$AAl?$AAi?$AAd?$AA?5?$AAa?$AAr?$AAg?$AAu?$AAm?$AAe@ 0045a078     CW3_Game.obj
 0002:000010a8       ??_C@_0BJ@LFDBABJJ@ITERATOR?5LIST?5CORRUPTED?$CB@ 0045a0a8     CW3_Game.obj
 0002:000010c8       ??_C@_0GJ@DNBKPNGO@d?3?2program?5files?5?$CIx86?$CJ?2microsof@ 0045a0c8     CW3_Game.obj
 0002:00001148       ??_C@_1NC@BNGFDLIH@?$AAd?$AA?3?$AA?2?$AAp?$AAr?$AAo?$AAg?$AAr?$AAa?$AAm?$AA?5?$AAf?$AAi?$AAl?$AAe@ 0045a148     CW3_Game.obj
 0002:00001248       ??_C@_1EE@KLDMFDFL@?$AAs?$AAt?$AAd?$AA?3?$AA?3?$AA_?$AAI?$AAt?$AAe?$AAr?$AAa?$AAt?$AAo?$AAr?$AA_@ 0045a248     CW3_Game.obj
 0002:0000129c       ??_C@_1DG@PLBPCAEM@?$AA?$CC?$AAI?$AAT?$AAE?$AAR?$AAA?$AAT?$AAO?$AAR?$AA?5?$AAL?$AAI?$AAS?$AAT?$AA?5@ 0045a29c     CW3_Game.obj
 0002:000012e0       ??_C@_0GJ@CBKHMPMN@d?3?2program?5files?5?$CIx86?$CJ?2microsof@ 0045a2e0     CW3_Game.obj
 0002:00001360       ??_C@_1NC@OAIOOOCE@?$AAd?$AA?3?$AA?2?$AAp?$AAr?$AAo?$AAg?$AAr?$AAa?$AAm?$AA?5?$AAf?$AAi?$AAl?$AAe@ 0045a360     CW3_Game.obj
 0002:00001460       ??_C@_1EK@NIFDJFDG@?$AAs?$AAt?$AAd?$AA?3?$AA?3?$AA_?$AAA?$AAd?$AAj?$AAu?$AAs?$AAt?$AA_?$AAm?$AAa@ 0045a460     CW3_Game.obj
 0002:000014bc       ??_7bad_cast@std@@6B@      0045a4bc     CW3_Game.obj
 0002:000014c8       ??_C@_08EPJLHIJG@bad?5cast@ 0045a4c8     CW3_Game.obj
 0002:000014d4       ??_C@_0BG@HGEDEDEC@invalid?5stoi?5argument@ 0045a4d4     CW3_Game.obj
 0002:000014f0       ??_C@_0BL@MFFNMGGC@stoi?5argument?5out?5of?5range@ 0045a4f0     CW3_Game.obj
 0002:00001514       ??_7CW3_Game@@6BDisplayableObjectContainer@@@ 0045a514     CW3_Game.obj
 0002:000015c0       ??_7CW3_Game@@6BFilterPoints@@@ 0045a5c0     CW3_Game.obj
 0002:000015dc       ??_7?$basic_filebuf@DU?$char_traits@D@std@@@std@@6B@ 0045a5dc     CW3_Game.obj
 0002:00001628       ??_7?$basic_ifstream@DU?$char_traits@D@std@@@std@@6B@ 0045a628     CW3_Game.obj
 0002:00001630       ??_8?$basic_ifstream@DU?$char_traits@D@std@@@std@@7B@ 0045a630     CW3_Game.obj
 0002:00001640       ??_7?$basic_stringbuf@DU?$char_traits@D@std@@V?$allocator@D@2@@std@@6B@ 0045a640     CW3_Game.obj
 0002:0000168c       ??_7?$basic_stringstream@DU?$char_traits@D@std@@V?$allocator@D@2@@std@@6B@ 0045a68c     CW3_Game.obj
 0002:00001694       ??_8?$basic_stringstream@DU?$char_traits@D@std@@V?$allocator@D@2@@std@@7B?$basic_istream@DU?$char_traits@D@std@@@1@@ 0045a694     CW3_Game.obj
 0002:000016a0       ??_8?$basic_stringstream@DU?$char_traits@D@std@@V?$allocator@D@2@@std@@7B?$basic_ostream@DU?$char_traits@D@std@@@1@@ 0045a6a0     CW3_Game.obj
 0002:000016b0       ??_7?$basic_ofstream@DU?$char_traits@D@std@@@std@@6B@ 0045a6b0     CW3_Game.obj
 0002:000016b8       ??_8?$basic_ofstream@DU?$char_traits@D@std@@@std@@7B@ 0045a6b8     CW3_Game.obj
 0002:000016c4       ??_C@_0CE@EAMOGAIE@vector?5erase?5iterator?5outside?5r@ 0045a6c4     CW3_Game.obj
 0002:000016f0       ??_C@_0GH@GAAELPDF@d?3?2program?5files?5?$CIx86?$CJ?2microsof@ 0045a6f0     CW3_Game.obj
 0002:00001770       ??_C@_1MO@KCHLDOJP@?$AAd?$AA?3?$AA?2?$AAp?$AAr?$AAo?$AAg?$AAr?$AAa?$AAm?$AA?5?$AAf?$AAi?$AAl?$AAe@ 0045a770     CW3_Game.obj
 0002:00001868       ??_C@_1MA@GGCDPBFD@?$AAs?$AAt?$AAd?$AA?3?$AA?3?$AAv?$AAe?$AAc?$AAt?$AAo?$AAr?$AA?$DM?$AAs?$AAt?$AAr@ 0045a868     CW3_Game.obj
 0002:00001950       ??_C@_1EM@BEMPOGMM@?$AA?$CC?$AAv?$AAe?$AAc?$AAt?$AAo?$AAr?$AA?5?$AAe?$AAr?$AAa?$AAs?$AAe?$AA?5?$AAi@ 0045a950     CW3_Game.obj
 0002:000019ac       ??_C@_0DE@CHADHGFF@can?8t?5dereference?5value?9initial@ 0045a9ac     CW3_Game.obj
 0002:000019f0       ??_C@_1PA@DMJFJEGO@?$AAs?$AAt?$AAd?$AA?3?$AA?3?$AA_?$AAV?$AAe?$AAc?$AAt?$AAo?$AAr?$AA_?$AAc?$AAo@ 0045a9f0     CW3_Game.obj
 0002:00001b10       ??_C@_1GM@FNBFNBEL@?$AA?$CC?$AAc?$AAa?$AAn?$AA?8?$AAt?$AA?5?$AAd?$AAe?$AAr?$AAe?$AAf?$AAe?$AAr?$AAe@ 0045ab10     CW3_Game.obj
 0002:00001b94       ??_C@_0CP@MDHADBHN@can?8t?5dereference?5out?5of?5range?5@ 0045ab94     CW3_Game.obj
 0002:00001bd0       ??_C@_1GC@JDCKOLAC@?$AA?$CC?$AAc?$AAa?$AAn?$AA?8?$AAt?$AA?5?$AAd?$AAe?$AAr?$AAe?$AAf?$AAe?$AAr?$AAe@ 0045abd0     CW3_Game.obj
 0002:00001c48       ??_C@_0BO@PFKOHNJC@vector?5subscript?5out?5of?5range@ 0045ac48     CW3_Game.obj
 0002:00001c70       ??_C@_1MK@PODALHBD@?$AAs?$AAt?$AAd?$AA?3?$AA?3?$AAv?$AAe?$AAc?$AAt?$AAo?$AAr?$AA?$DM?$AAc?$AAl?$AAa@ 0045ac70     CW3_Game.obj
 0002:00001d68       ??_C@_1EA@LEKOKFNB@?$AA?$CC?$AAv?$AAe?$AAc?$AAt?$AAo?$AAr?$AA?5?$AAs?$AAu?$AAb?$AAs?$AAc?$AAr?$AAi@ 0045ad68     CW3_Game.obj
 0002:00001db8       ??_C@_1LO@PHHLNKEP@?$AAs?$AAt?$AAd?$AA?3?$AA?3?$AAv?$AAe?$AAc?$AAt?$AAo?$AAr?$AA?$DM?$AAc?$AAl?$AAa@ 0045adb8     CW3_Game.obj
 0002:00001e9c       ??_C@_0CB@EJBNKHHC@invalid?5to?5pop_back?5empty?5strin@ 0045ae9c     CW3_Game.obj
 0002:00001ec8       ??_C@_0GI@MMCPEEHB@d?3?2program?5files?5?$CIx86?$CJ?2microsof@ 0045aec8     CW3_Game.obj
 0002:00001f48       ??_C@_1NA@OIFONIJN@?$AAd?$AA?3?$AA?2?$AAp?$AAr?$AAo?$AAg?$AAr?$AAa?$AAm?$AA?5?$AAf?$AAi?$AAl?$AAe@ 0045af48     CW3_Game.obj
 0002:00002048       ??_C@_1LI@HCBEBID@?$AAs?$AAt?$AAd?$AA?3?$AA?3?$AAb?$AAa?$AAs?$AAi?$AAc?$AA_?$AAs?$AAt?$AAr?$AAi@ 0045b048     CW3_Game.obj
 0002:00002128       ??_C@_1EG@GNALHNOG@?$AA?$CC?$AAi?$AAn?$AAv?$AAa?$AAl?$AAi?$AAd?$AA?5?$AAt?$AAo?$AA?5?$AAp?$AAo?$AAp@ 0045b128     CW3_Game.obj
 0002:0000217c       ??_C@_0BM@NMJKDPPO@invalid?5vector?$DMT?$DO?5subscript@ 0045b17c     CW3_Game.obj
 0002:000021a0       ??_C@_0DC@KEKNBAEB@can?8t?5increment?5value?9initializ@ 0045b1a0     CW3_Game.obj
 0002:000021e0       ??_C@_1PC@LAHDNGHL@?$AAs?$AAt?$AAd?$AA?3?$AA?3?$AA_?$AAV?$AAe?$AAc?$AAt?$AAo?$AAr?$AA_?$AAc?$AAo@ 0045b1e0     CW3_Game.obj
 0002:00002308       ??_C@_1GI@EDCILPL@?$AA?$CC?$AAc?$AAa?$AAn?$AA?8?$AAt?$AA?5?$AAi?$AAn?$AAc?$AAr?$AAe?$AAm?$AAe?$AAn@ 0045b308     CW3_Game.obj
 0002:00002384       ??_C@_0CJ@OAAAAGPM@can?8t?5increment?5vector?5iterator@ 0045b384     CW3_Game.obj
 0002:000023b8       ??_C@_1FG@LDPPKMGP@?$AA?$CC?$AAc?$AAa?$AAn?$AA?8?$AAt?$AA?5?$AAi?$AAn?$AAc?$AAr?$AAe?$AAm?$AAe?$AAn@ 0045b3b8     CW3_Game.obj
 0002:00002420       ??_C@_0BO@CAOBBIOC@vector?5iterators?5incompatible@ 0045b420     CW3_Game.obj
 0002:00002448       ??_C@_1OK@EOCJDFAL@?$AAs?$AAt?$AAd?$AA?3?$AA?3?$AA_?$AAV?$AAe?$AAc?$AAt?$AAo?$AAr?$AA_?$AAc?$AAo@ 0045b448     CW3_Game.obj
 0002:00002560       ??_C@_1EA@DJDGNIII@?$AA?$CC?$AAv?$AAe?$AAc?$AAt?$AAo?$AAr?$AA?5?$AAi?$AAt?$AAe?$AAr?$AAa?$AAt?$AAo@ 0045b560     CW3_Game.obj
 0002:000025ac       ??_C@_0BD@OLBABOEK@vector?$DMT?$DO?5too?5long@ 0045b5ac     CW3_Game.obj
 0002:000025c4       ??_C@_0CO@LHPFLLJB@cannot?5seek?5value?9initialized?5v@ 0045b5c4     CW3_Game.obj
 0002:00002600       ??_C@_1PK@EDLKJPEA@?$AAs?$AAt?$AAd?$AA?3?$AA?3?$AA_?$AAV?$AAe?$AAc?$AAt?$AAo?$AAr?$AA_?$AAc?$AAo@ 0045b600     CW3_Game.obj
 0002:00002730       ??_C@_1GA@EIHBFEJD@?$AA?$CC?$AAc?$AAa?$AAn?$AAn?$AAo?$AAt?$AA?5?$AAs?$AAe?$AAe?$AAk?$AA?5?$AAv?$AAa@ 0045b730     CW3_Game.obj
 0002:000027a4       ??_C@_0CJ@DIFMEJBE@cannot?5seek?5vector?5iterator?5bef@ 0045b7a4     CW3_Game.obj
 0002:000027d8       ??_C@_1FG@JCGKNFIB@?$AA?$CC?$AAc?$AAa?$AAn?$AAn?$AAo?$AAt?$AA?5?$AAs?$AAe?$AAe?$AAk?$AA?5?$AAv?$AAe@ 0045b7d8     CW3_Game.obj
 0002:00002840       ??_C@_0CG@JDIOCKHH@cannot?5seek?5vector?5iterator?5aft@ 0045b840     CW3_Game.obj
 0002:00002870       ??_C@_1FA@LCODAPOP@?$AA?$CC?$AAc?$AAa?$AAn?$AAn?$AAo?$AAt?$AA?5?$AAs?$AAe?$AAe?$AAk?$AA?5?$AAv?$AAe@ 0045b870     CW3_Game.obj
 0002:000028d0       ??_C@_1PI@JIEMALDJ@?$AAs?$AAt?$AAd?$AA?3?$AA?3?$AA_?$AAV?$AAe?$AAc?$AAt?$AAo?$AAr?$AA_?$AAc?$AAo@ 0045b8d0     CW3_Game.obj
 0002:000029fc       ??_C@_0DF@IMIHIHOP@cannot?5dereference?5value?9initia@ 0045b9fc     CW3_Game.obj
 0002:00002a40       ??_C@_1MG@GDGHDIKC@?$AAs?$AAt?$AAd?$AA?3?$AA?3?$AA_?$AAS?$AAt?$AAr?$AAi?$AAn?$AAg?$AA_?$AAc?$AAo@ 0045ba40     CW3_Game.obj
 0002:00002b30       ??_C@_1GO@PNALIMBD@?$AA?$CC?$AAc?$AAa?$AAn?$AAn?$AAo?$AAt?$AA?5?$AAd?$AAe?$AAr?$AAe?$AAf?$AAe?$AAr@ 0045bb30     CW3_Game.obj
 0002:00002bb8       ??_C@_0IC@DGJDAAEM@cannot?5dereference?5string?5itera@ 0045bbb8     CW3_Game.obj
 0002:00002c58       ??_C@_1BAO@BGLBIONH@?$AA?$CC?$AAc?$AAa?$AAn?$AAn?$AAo?$AAt?$AA?5?$AAd?$AAe?$AAr?$AAe?$AAf?$AAe?$AAr@ 0045bc58     CW3_Game.obj
 0002:00002da0       ??_C@_0FF@HJKEHIBC@cannot?5dereference?5string?5itera@ 0045bda0     CW3_Game.obj
 0002:00002e08       ??_C@_1KO@CMPBFHAM@?$AA?$CC?$AAc?$AAa?$AAn?$AAn?$AAo?$AAt?$AA?5?$AAd?$AAe?$AAr?$AAe?$AAf?$AAe?$AAr@ 0045be08     CW3_Game.obj
 0002:00002ed8       ??_C@_0BI@CFPLBAOH@invalid?5string?5position@ 0045bed8     CW3_Game.obj
 0002:00002ef4       ??_C@_0BA@JFNIOLAK@string?5too?5long@ 0045bef4     CW3_Game.obj
 0002:00002f08       ??_C@_1EO@GFNCMDLA@?$AAs?$AAt?$AAd?$AA?3?$AA?3?$AA_?$AAA?$AAl?$AAl?$AAo?$AAc?$AAa?$AAt?$AAe?$AA_@ 0045bf08     CW3_Game.obj
 0002:00002f68       ??_C@_0BJ@HAJGEHKO@transposed?5pointer?5range@ 0045bf68     CW3_Game.obj
 0002:00002f88       ??_C@_1CG@LJCPDKEJ@?$AAs?$AAt?$AAd?$AA?3?$AA?3?$AA_?$AAV?$AAe?$AAr?$AAi?$AAf?$AAy?$AA_?$AAr?$AAa@ 0045bf88     CW3_Game.obj
 0002:00002fb8       ??_C@_1DG@FJIKMGFD@?$AA?$CC?$AAt?$AAr?$AAa?$AAn?$AAs?$AAp?$AAo?$AAs?$AAe?$AAd?$AA?5?$AAp?$AAo?$AAi@ 0045bfb8     CW3_Game.obj
 0002:00002ff8       __real@3fe8000000000000    0045bff8     CW3_Game.obj
 0002:00003008       __real@4028000000000000    0045c008     CW3_Game.obj
 0002:00003318       ??_C@_0DC@BNOGMHFL@Error?5creating?5surface?5in?5RawIm@ 0045c318     CW3_Player.obj
 0002:00003354       ??_C@_0BD@IFIGDDIC@?7?7?$CL?$CL?$CL?5Load?5image?3?5@ 0045c354     CW3_Player.obj
 0002:0000336c       ??_C@_0DJ@OJEPJEDH@ImageManager?3?3getImagePtrbyURL?$CI@ 0045c36c     CW3_Player.obj
 0002:000033b0       ??_C@_0BJ@LOCNEGOL@Failed?5to?5load?5image?5?$CFs?6@ 0045c3b0     CW3_Player.obj
 0002:000033d4       ??_7CW3_GameObject@@6B@    0045c3d4     CW3_Player.obj
 0002:0000341c       ??_7CW3_LivingGameObject@@6B@ 0045c41c     CW3_Player.obj
 0002:0000346c       ??_C@_05PPJGDEGI@?$CFi?1?$CFi@ 0045c46c     CW3_Player.obj
 0002:00003478       ??_7CW3_Player@@6B@        0045c478     CW3_Player.obj
 0002:000034c8       ??_C@_0BP@OLDKBHLM@map?1set?5iterators?5incompatible@ 0045c4c8     CW3_Player.obj
 0002:000034f0       ??_C@_0GG@GCBODOPK@d?3?2program?5files?5?$CIx86?$CJ?2microsof@ 0045c4f0     CW3_Player.obj
 0002:00003570       ??_C@_1MM@IPOGDAC@?$AAd?$AA?3?$AA?2?$AAp?$AAr?$AAo?$AAg?$AAr?$AAa?$AAm?$AA?5?$AAf?$AAi?$AAl?$AAe@ 0045c570     CW3_Player.obj
 0002:00003668       ??_C@_1BPK@GJANFNGE@?$AAs?$AAt?$AAd?$AA?3?$AA?3?$AA_?$AAT?$AAr?$AAe?$AAe?$AA_?$AAc?$AAo?$AAn?$AAs@ 0045c668     CW3_Player.obj
 0002:000038c8       ??_C@_1EC@JLIDLCDH@?$AA?$CC?$AAm?$AAa?$AAp?$AA?1?$AAs?$AAe?$AAt?$AA?5?$AAi?$AAt?$AAe?$AAr?$AAa?$AAt@ 0045c8c8     CW3_Player.obj
 0002:00003918       ??_C@_1BPG@KHABJGCD@?$AAs?$AAt?$AAd?$AA?3?$AA?3?$AA_?$AAT?$AAr?$AAe?$AAe?$AA_?$AAc?$AAo?$AAn?$AAs@ 0045c918     CW3_Player.obj
 0002:00003b74       ??_C@_0DG@LCFNIIPB@cannot?5dereference?5value?9initia@ 0045cb74     CW3_Player.obj
 0002:00003bb8       ??_C@_1BPE@BBFPAJEC@?$AAs?$AAt?$AAd?$AA?3?$AA?3?$AA_?$AAT?$AAr?$AAe?$AAe?$AA_?$AAc?$AAo?$AAn?$AAs@ 0045cbb8     CW3_Player.obj
 0002:00003e10       ??_C@_1HA@ILGCNILF@?$AA?$CC?$AAc?$AAa?$AAn?$AAn?$AAo?$AAt?$AA?5?$AAd?$AAe?$AAr?$AAe?$AAf?$AAe?$AAr@ 0045ce10     CW3_Player.obj
 0002:00003e98       ??_C@_0CI@OKFEHCEB@cannot?5dereference?5end?5map?1set?5@ 0045ce98     CW3_Player.obj
 0002:00003ec8       ??_C@_1FE@NKHAAGMB@?$AA?$CC?$AAc?$AAa?$AAn?$AAn?$AAo?$AAt?$AA?5?$AAd?$AAe?$AAr?$AAe?$AAf?$AAe?$AAr@ 0045cec8     CW3_Player.obj
 0002:00003f2c       ??_C@_0CF@JILFNJOL@map?1set?5erase?5iterator?5outside?5@ 0045cf2c     CW3_Player.obj
 0002:00003f58       ??_C@_1DJO@DBMLLDIM@?$AAs?$AAt?$AAd?$AA?3?$AA?3?$AA_?$AAT?$AAr?$AAe?$AAe?$AA?$DM?$AAc?$AAl?$AAa?$AAs@ 0045cf58     CW3_Player.obj
 0002:000043b0       ??_C@_1EO@CEDAEPC@?$AA?$CC?$AAm?$AAa?$AAp?$AA?1?$AAs?$AAe?$AAt?$AA?5?$AAe?$AAr?$AAa?$AAs?$AAe?$AA?5@ 0045d3b0     CW3_Player.obj
 0002:00004410       ??_C@_1DJG@KIJFPGMB@?$AAs?$AAt?$AAd?$AA?3?$AA?3?$AA_?$AAT?$AAr?$AAe?$AAe?$AA?$DM?$AAc?$AAl?$AAa?$AAs@ 0045d410     CW3_Player.obj
 0002:00004860       ??_C@_0DE@DMNPKCGM@cannot?5increment?5value?9initiali@ 0045d860     CW3_Player.obj
 0002:000048a0       ??_C@_1BPK@MJPALEKB@?$AAs?$AAt?$AAd?$AA?3?$AA?3?$AA_?$AAT?$AAr?$AAe?$AAe?$AA_?$AAc?$AAo?$AAn?$AAs@ 0045d8a0     CW3_Player.obj
 0002:00004b00       ??_C@_1GM@BJMCGEGI@?$AA?$CC?$AAc?$AAa?$AAn?$AAn?$AAo?$AAt?$AA?5?$AAi?$AAn?$AAc?$AAr?$AAe?$AAm?$AAe@ 0045db00     CW3_Player.obj
 0002:00004b84       ??_C@_0CG@NLEHEOHN@cannot?5increment?5end?5map?1set?5it@ 0045db84     CW3_Player.obj
 0002:00004bb8       ??_C@_1FA@KLFCDGNE@?$AA?$CC?$AAc?$AAa?$AAn?$AAn?$AAo?$AAt?$AA?5?$AAi?$AAn?$AAc?$AAr?$AAe?$AAm?$AAe@ 0045dbb8     CW3_Player.obj
 0002:00004c18       ??_C@_1BLA@PHDMBNNC@?$AAs?$AAt?$AAd?$AA?3?$AA?3?$AA_?$AAT?$AAr?$AAe?$AAe?$AA_?$AAv?$AAa?$AAl?$AA?$DM@ 0045dc18     CW3_Player.obj
 0002:00004e20       ??_C@_1BPG@HPMHPOG@?$AAs?$AAt?$AAd?$AA?3?$AA?3?$AA_?$AAT?$AAr?$AAe?$AAe?$AA_?$AAc?$AAo?$AAn?$AAs@ 0045de20     CW3_Player.obj
 0002:00005080       ??_C@_1BKM@FMCHJHNP@?$AAs?$AAt?$AAd?$AA?3?$AA?3?$AA_?$AAT?$AAr?$AAe?$AAe?$AA_?$AAv?$AAa?$AAl?$AA?$DM@ 0045e080     CW3_Player.obj
 0002:00005284       ??_C@_0BD@FEEMDEPI@invalid?5comparator@ 0045e284     CW3_Player.obj
 0002:0000529c       ??_C@_1CI@JONCLBEJ@?$AAs?$AAt?$AAd?$AA?3?$AA?3?$AA_?$AAD?$AAe?$AAb?$AAu?$AAg?$AA_?$AAl?$AAt?$AA_@ 0045e29c     CW3_Player.obj
 0002:000052cc       ??_C@_1CK@NDNHPKPI@?$AA?$CC?$AAi?$AAn?$AAv?$AAa?$AAl?$AAi?$AAd?$AA?5?$AAc?$AAo?$AAm?$AAp?$AAa?$AAr@ 0045e2cc     CW3_Player.obj
 0002:00005304       ??_7?$_Ref_count@VRawImageData@@@std@@6B@ 0045e304     CW3_Player.obj
 0002:00005318       ??_C@_0DE@JECMPNID@cannot?5decrement?5value?9initiali@ 0045e318     CW3_Player.obj
 0002:00005358       ??_C@_1BPK@DKMCAIGA@?$AAs?$AAt?$AAd?$AA?3?$AA?3?$AA_?$AAT?$AAr?$AAe?$AAe?$AA_?$AAc?$AAo?$AAn?$AAs@ 0045e358     CW3_Player.obj
 0002:000055b8       ??_C@_1GM@ECOECPCJ@?$AA?$CC?$AAc?$AAa?$AAn?$AAn?$AAo?$AAt?$AA?5?$AAd?$AAe?$AAc?$AAr?$AAe?$AAm?$AAe@ 0045e5b8     CW3_Player.obj
 0002:0000563c       ??_C@_0CI@FJCIBNID@cannot?5decrement?5begin?5map?1set?5@ 0045e63c     CW3_Player.obj
 0002:00005670       ??_C@_1FE@HAEBNAIH@?$AA?$CC?$AAc?$AAa?$AAn?$AAn?$AAo?$AAt?$AA?5?$AAd?$AAe?$AAc?$AAr?$AAe?$AAm?$AAe@ 0045e670     CW3_Player.obj
 0002:000056d8       ??_C@_1BPG@PEMOMDCH@?$AAs?$AAt?$AAd?$AA?3?$AA?3?$AA_?$AAT?$AAr?$AAe?$AAe?$AA_?$AAc?$AAo?$AAn?$AAs@ 0045e6d8     CW3_Player.obj
 0002:00005934       ??_C@_0BE@JONHPENG@map?1set?$DMT?$DO?5too?5long@ 0045e934     CW3_Player.obj
 0002:00005c28       ??_7CW3_BaseEnemy@@6B@     0045ec28     CW3_SimpleEnemy.obj
 0002:00005c84       ??_7CW3_SimpleEnemy@@6B@   0045ec84     CW3_SimpleEnemy.obj
 0002:00005d38       ??_7CoordinateMapping@@6B@ 0045ed38     CW3_SimpleGun.obj
 0002:00005d48       ??_7CoordinateMappingRotate@@6B@ 0045ed48     CW3_SimpleGun.obj
 0002:00005d58       ??_7CW3_BaseGun@@6B@       0045ed58     CW3_SimpleGun.obj
 0002:00005d6c       ??_7CW3_SimpleGun@@6B@     0045ed6c     CW3_SimpleGun.obj
 0002:00005d80       ??_7CW3_BaseBullet@@6B@    0045ed80     CW3_SimpleGun.obj
 0002:00005dc8       ??_7CW3_SimpleBullet@@6B@  0045edc8     CW3_SimpleGun.obj
 0002:00005e10       __real@3f1a36e2eb1c432d    0045ee10     CW3_SimpleGun.obj
 0002:00005e20       __real@3fb999999999999a    0045ee20     CW3_SimpleGun.obj
 0002:00005e30       __real@3fe0000000000000    0045ee30     CW3_SimpleGun.obj
 0002:00005e40       __real@400921fb54442d18    0045ee40     CW3_SimpleGun.obj
 0002:00005e50       __real@402e000000000000    0045ee50     CW3_SimpleGun.obj
 0002:00005e60       __xmm@80000000000000008000000000000000 0045ee60     CW3_SimpleGun.obj
 0002:00006344       ??_7TileManager@@6B@       0045f344     CW3_TileManager.obj
 0002:00006354       ??_7CW3_TileManager@@6B@   0045f354     CW3_TileManager.obj
 0002:0000637c       ??_C@_0CN@GHCLOPHF@Error?5in?5setting?5pixel?9?5should?5@ 0045f37c     DraggingDemo.obj
 0002:000063b8       ??_C@_0JM@GIEKPEHN@WARNING?3?5Attempted?5write?5to?5sur@ 0045f3b8     DraggingDemo.obj
 0002:00006478       ??_7DragableBaseClassObject@@6B@ 0045f478     DraggingDemo.obj
 0002:000064d0       ??_7DragableObject@@6B@    0045f4d0     DraggingDemo.obj
 0002:00006528       ??_7ImageObject@@6B@       0045f528     DraggingDemo.obj
 0002:0000656c       ??_7DragableImageObject@@6B@ 0045f56c     DraggingDemo.obj
 0002:000065c0       ?MY_PI@DrawingSurface@@2NB 0045f5c0     DrawingSurface.obj
 0002:000065d0       ??_C@_0LN@HOLHFHJI@WARNING?3?5Attempted?5blit?5to?5lock@ 0045f5d0     DrawingSurface.obj
 0002:000066b8       __real@3fe0c152382d7365    0045f6b8     DrawingSurface.obj
 0002:000066c8       __real@3ff0000000000000    0045f6c8     DrawingSurface.obj
 0002:000066d8       __real@3ff8000000000000    0045f6d8     DrawingSurface.obj
 0002:000066e8       __real@3ff921fb54442d18    0045f6e8     DrawingSurface.obj
 0002:000066f8       __real@4000000000000000    0045f6f8     DrawingSurface.obj
 0002:00006708       __real@4008000000000000    0045f708     DrawingSurface.obj
 0002:00006718       __real@400f6a7a2955385e    0045f718     DrawingSurface.obj
 0002:00006728       __real@4010000000000000    0045f728     DrawingSurface.obj
 0002:00006738       __real@401921fb54442d18    0045f738     DrawingSurface.obj
 0002:00006748       ??_7FlashingDemo@@6BDisplayableObjectContainer@@@ 0045f748     FlashingDemo.obj
 0002:000067f4       ??_7FlashingDemo@@6BFilterPoints@@@ 0045f7f4     FlashingDemo.obj
 0002:0000681c       ??_7MappableImageObject@@6B@ 0045f81c     ImageMappingDemo.obj
 0002:00006870       __real@c059000000000000    0045f870     ImageMappingDemo.obj
 0002:00006918       ??_7BouncingObject@@6B@    0045f918     ImageObjectDemo.obj
 0002:0000695c       ??_7BouncingImageObject@@6B@ 0045f95c     ImageObjectDemo.obj
 0002:000069a0       __real@0000000000000000    0045f9a0     ImageObjectDemo.obj
 0002:000069b0       __real@3f747ae147ae147b    0045f9b0     ImageObjectDemo.obj
 0002:000069c0       __real@4004000000000000    0045f9c0     ImageObjectDemo.obj
 0002:00006a4c       ??_7JigsawPiece@@6BDragableImageObject@@@ 0045fa4c     JigsawDemo.obj
 0002:00006aa8       ??_7JigsawPiece@@6BCoordinateMapping@@@ 0045faa8     JigsawDemo.obj
 0002:00006ab4       ??_C@_0CA@ONKMLLKE@?$CF05dx?$CF07dy?$CF07dr?$CF02dc?$CF07dr?$CF07d?$AN?6@ 0045fab4     JigsawDemo.obj
 0002:00006adc       ??_C@_0BI@OPENOKOK@checkJoinBottom?5success@ 0045fadc     JigsawDemo.obj
 0002:00006af8       ??_C@_0BF@IKBLDNLD@checkJoinTop?5success@ 0045faf8     JigsawDemo.obj
 0002:00006b14       ??_C@_0BH@OIGOFELM@checkJoinRight?5success@ 0045fb14     JigsawDemo.obj
 0002:00006b30       ??_C@_0BG@NHPDEGHB@checkJoinLeft?5success@ 0045fb30     JigsawDemo.obj
 0002:00006b50       ??_7?$_Func_impl_no_alloc@V<lambda_2870de01b601283699da779de20905fc>@@XPAVDisplayableObject@@@std@@6B@ 0045fb50     JigsawDemo.obj
 0002:00006b74       ??_7?$_Func_impl_no_alloc@V<lambda_4d3c514b9e5ad6cc29096aa3b57f98f2>@@XPAVDisplayableObject@@@std@@6B@ 0045fb74     JigsawDemo.obj
 0002:00006b98       ??_7?$_Func_impl_no_alloc@V<lambda_369f3aee610e50bbd15c3a78d9c8686f>@@XPAVDisplayableObject@@@std@@6B@ 0045fb98     JigsawDemo.obj
 0002:00006bbc       ??_7?$_Func_impl_no_alloc@V<lambda_817584b2460f1bcab806f46a25c321a8>@@XPAVDisplayableObject@@@std@@6B@ 0045fbbc     JigsawDemo.obj
 0002:00006be0       ??_7?$_Func_impl_no_alloc@V<lambda_341a6657abb2758c42a6873833e6116f>@@XPAVDisplayableObject@@@std@@6B@ 0045fbe0     JigsawDemo.obj
 0002:00006c6c       ??_C@_0DI@PBEELKIF@vector?5iterators?5in?5range?5are?5f@ 0045fc6c     JigsawDemo.obj
 0002:00006cb0       ??_C@_1HE@KBMFDAFB@?$AA?$CC?$AAv?$AAe?$AAc?$AAt?$AAo?$AAr?$AA?5?$AAi?$AAt?$AAe?$AAr?$AAa?$AAt?$AAo@ 0045fcb0     JigsawDemo.obj
 0002:00006d3c       ??_C@_0CB@LIAHLBAO@vector?5iterator?5range?5transpose@ 0045fd3c     JigsawDemo.obj
 0002:00006d68       ??_C@_1EG@ODKBEHFN@?$AA?$CC?$AAv?$AAe?$AAc?$AAt?$AAo?$AAr?$AA?5?$AAi?$AAt?$AAe?$AAr?$AAa?$AAt?$AAo@ 0045fd68     JigsawDemo.obj
 0002:00006dc0       __real@4051800000000000    0045fdc0     JigsawDemo.obj
 0002:00006e80       ??_7FilterPoints@@6B@      0045fe80     BaseEngine.obj
 0002:00006e9c       ??_7DisplayableObjectContainer@@6B@ 0045fe9c     BaseEngine.obj
 0002:00006eac       ??_7BaseEngine@@6BDisplayableObjectContainer@@@ 0045feac     BaseEngine.obj
 0002:00006f58       ??_7BaseEngine@@6BFilterPoints@@@ 0045ff58     BaseEngine.obj
 0002:00006f74       ??_7DisplayableObject@@6B@ 0045ff74     DisplayableObject.obj
 0002:00006ff0       ??_C@_0BI@GMOFELCF@Free?5font?3?5?$CFd?5point?5?$CFs?6@ 0045fff0     FontManager.obj
 0002:000070c4       ??_7MyDemoA@@6BDisplayableObjectContainer@@@ 004600c4     MyDemoA.obj
 0002:00007170       ??_7MyDemoA@@6BFilterPoints@@@ 00460170     MyDemoA.obj
 0002:000071d0       __real@4059000000000000    004601d0     MyImageMappingDemo.obj
 0002:000071e0       ??_7MyObjectA@@6B@         004601e0     MyObjectA.obj
 0002:00007224       ??_7MyTileManager@@6B@     00460224     MyTileManager.obj
 0002:00007234       ??_7CroppedCoordinateMapping@@6B@ 00460234     SimpleImage.obj
 0002:00007270       ??_7JasonsDemoA@@6BDisplayableObjectContainer@@@ 00460270     JasonsDemoA.obj
 0002:0000731c       ??_7JasonsDemoA@@6BFilterPoints@@@ 0046031c     JasonsDemoA.obj
 0002:00007338       ??_7JasonsObjectA@@6B@     00460338     JasonsObjectA.obj
 0002:0000737c       ??_7JasonsTileManager@@6B@ 0046037c     JasonsTileManager.obj
 0002:000073fc       ??_7DragableTokenContainer@@6BDragableBaseClassObject@@@ 004603fc     PlayingCardsDemo.obj
 0002:00007458       ??_7DragableTokenContainer@@6BDisplayableObjectContainer@@@ 00460458     PlayingCardsDemo.obj
 0002:00007464       ??_C@_0BI@NHFDFHOB@Cornerstone?5Regular?4ttf@ 00460464     PlayingCardsDemo.obj
 0002:00007480       ??_C@_05JLAFMLMB@Token@    00460480     PlayingCardsDemo.obj
 0002:00007488       ??_C@_05FKOOCFCH@Cntnr@    00460488     PlayingCardsDemo.obj
 0002:00007494       ??_7DragableToken@@6B@     00460494     PlayingCardsDemo.obj
 0002:000074dc       ??_7TokenTray@@6BDragableBaseClassObject@@@ 004604dc     PlayingCardsDemo.obj
 0002:00007538       ??_7TokenTray@@6BDisplayableObjectContainer@@@ 00460538     PlayingCardsDemo.obj
 0002:00007544       ??_C@_06OIOKNNNI@Tokens@   00460544     PlayingCardsDemo.obj
 0002:00007550       ??_7CardContainer@@6BDragableBaseClassObject@@@ 00460550     PlayingCardsDemo.obj
 0002:000075ac       ??_7CardContainer@@6BDisplayableObjectContainer@@@ 004605ac     PlayingCardsDemo.obj
 0002:000075b8       ??_C@_07PDLKMNNH@Shuffle@  004605b8     PlayingCardsDemo.obj
 0002:000075c4       ??_C@_04HMPDNAFK@Draw@     004605c4     PlayingCardsDemo.obj
 0002:000075cc       ??_C@_07KLFFMLGM@DISCARD@  004605cc     PlayingCardsDemo.obj
 0002:000075d8       ??_C@_04FJDFPLDD@DECK@     004605d8     PlayingCardsDemo.obj
 0002:000075e4       ??_7CoordinateMappingRotateAndColour@@6B@ 004605e4     PlayingCardsDemo.obj
 0002:000075f8       ??_7CardOrTile@@6BDragableBaseClassObject@@@ 004605f8     PlayingCardsDemo.obj
 0002:00007654       ??_7CardOrTile@@6BDisplayableObjectContainer@@@ 00460654     PlayingCardsDemo.obj
 0002:00007660       ??_C@_04IPBPFFEL@Load@     00460660     PlayingCardsDemo.obj
 0002:00007668       ??_C@_06CMLPEGNC@Failed@   00460668     PlayingCardsDemo.obj
 0002:00007670       ??_C@_0BK@EIGCDBID@random?5value?5out?5of?5range@ 00460670     PlayingCardsDemo.obj
 0002:00007690       ??_C@_0GK@BEGALEBO@d?3?2program?5files?5?$CIx86?$CJ?2microsof@ 00460690     PlayingCardsDemo.obj
 0002:00007710       ??_C@_1NE@NINBPJDB@?$AAd?$AA?3?$AA?2?$AAp?$AAr?$AAo?$AAg?$AAr?$AAa?$AAm?$AA?5?$AAf?$AAi?$AAl?$AAe@ 00460710     PlayingCardsDemo.obj
 0002:00007810       ??_C@_1CM@KDDDLLBE@?$AAs?$AAt?$AAd?$AA?3?$AA?3?$AA_?$AAR?$AAa?$AAn?$AAd?$AAo?$AAm?$AA_?$AAs?$AAh@ 00460810     PlayingCardsDemo.obj
 0002:00007844       ??_C@_1DI@PGFAEKLK@?$AA?$CC?$AAr?$AAa?$AAn?$AAd?$AAo?$AAm?$AA?5?$AAv?$AAa?$AAl?$AAu?$AAe?$AA?5?$AAo@ 00460844     PlayingCardsDemo.obj
 0002:00007888       __real@406fe00000000000    00460888     PlayingCardsDemo.obj
 0002:00007908       ??_7StarfieldDemo@@6BDisplayableObjectContainer@@@ 00460908     StarfieldDemo.obj
 0002:000079b4       ??_7StarfieldDemo@@6BFilterPoints@@@ 004609b4     StarfieldDemo.obj
 0002:000079d0       ??_7BouncingBall@@6B@      004609d0     BouncingBall.obj
 0002:00007a14       ??_7BouncingBall1@@6B@     00460a14     BouncingBall.obj
 0002:00007a58       ??_7BouncingBall2@@6B@     00460a58     BouncingBall.obj
 0002:00007a98       __real@3f847ae147ae147b    00460a98     BouncingBall.obj
 0002:00007aed       ??_C@_00CNPNBAHC@@         00460aed     BouncingBallMain.obj
 0002:00007af0       ??_C@_01IPJKGB@?$CD@       00460af0     BouncingBallMain.obj
 0002:00007af4       ??_C@_02KLCDNAMD@?$CDS@    00460af4     BouncingBallMain.obj
 0002:00007af8       ??_C@_02LCDIOBIC@?$CDR@    00460af8     BouncingBallMain.obj
 0002:00007b00       __real@3fe999999999999a    00460b00     BouncingBallMain.obj
 0002:00007b10       __real@3ff199999999999a    00460b10     BouncingBallMain.obj
 0002:00007b20       __real@3ff3333333333333    00460b20     BouncingBallMain.obj
 0002:00007b30       __real@4049000000000000    00460b30     BouncingBallMain.obj
 0002:00007b40       __real@4062c00000000000    00460b40     BouncingBallMain.obj
 0002:00007b50       __real@4066800000000000    00460b50     BouncingBallMain.obj
 0002:00007b60       __real@4069000000000000    00460b60     BouncingBallMain.obj
 0002:00007b70       __real@406f400000000000    00460b70     BouncingBallMain.obj
 0002:00007b80       __real@4071300000000000    00460b80     BouncingBallMain.obj
 0002:00007b90       __real@4072c00000000000    00460b90     BouncingBallMain.obj
 0002:00007ba0       __real@4074500000000000    00460ba0     BouncingBallMain.obj
 0002:00007bb0       __real@4075e00000000000    00460bb0     BouncingBallMain.obj
 0002:00007bc0       __real@4077700000000000    00460bc0     BouncingBallMain.obj
 0002:00007bd0       __real@4079000000000000    00460bd0     BouncingBallMain.obj
 0002:00007be0       __real@4079a00000000000    00460be0     BouncingBallMain.obj
 0002:00007bf0       __real@407c200000000000    00460bf0     BouncingBallMain.obj
 0002:00007c00       __real@407f400000000000    00460c00     BouncingBallMain.obj
 0002:00007c10       __real@4081300000000000    00460c10     BouncingBallMain.obj
 0002:00007c20       __real@4082c00000000000    00460c20     BouncingBallMain.obj
 0002:00007c30       __real@4084500000000000    00460c30     BouncingBallMain.obj
 0002:00007c40       __real@4087700000000000    00460c40     BouncingBallMain.obj
 0002:00007cec       ??_7SimpleFlashingDragableImageObject@@6B@ 00460cec     ZoomingDemo.obj
 0002:00007e60       ??_7MazeDemoTileManager@@6B@ 00460e60     MazeDemoMain.obj
 0002:00007e70       ??_7MazeDemoMain@@6BDisplayableObjectContainer@@@ 00460e70     MazeDemoMain.obj
 0002:00007f1c       ??_7MazeDemoMain@@6BFilterPoints@@@ 00460f1c     MazeDemoMain.obj
 0002:00007f38       ??_7MazeDemoObject@@6B@    00460f38     MazeDemoObject.obj
 0002:00007f78       ??_C@_0DN@EIOJNLCM@d?3?2agent?2_work?23?2s?2src?2vctools?2@ 00460f78     msvcprtd:locale0_implib.obj
 0002:00007fc8       ??_7type_info@@6B@         00460fc8     MSVCRTD:std_type_info_static.obj
 0002:00007fd4       ??_7bad_alloc@std@@6B@     00460fd4     MSVCRTD:throw_bad_alloc.obj
 0002:00007fe0       ??_C@_0P@GHFPNOJB@bad?5allocation@ 00460fe0     MSVCRTD:throw_bad_alloc.obj
 0002:00007ff8       ??_7bad_array_new_length@std@@6B@ 00460ff8     MSVCRTD:throw_bad_alloc.obj
 0002:00008004       ??_C@_0BF@KINCDENJ@bad?5array?5new?5length@ 00461004     MSVCRTD:throw_bad_alloc.obj
 0002:0000802c       ??_C@_0BJ@HFNMHALN@Out?5of?5memory?5?9?5aborting@ 0046102c     SDL2main:SDL_windows_main.obj
 0002:0000804c       ??_C@_0M@HFFOIJBL@Fatal?5Error@ 0046104c     SDL2main:SDL_windows_main.obj
 0002:00008098       __load_config_used         00461098     MSVCRTD:loadcfg.obj
 0002:00008380       ??_R4exception@std@@6B@    00461380     CW3_Game.obj
 0002:00008398       ??_R3exception@std@@8      00461398     CW3_Game.obj
 0002:000083ac       ??_R2exception@std@@8      004613ac     CW3_Game.obj
 0002:000083b4       ??_R1A@?0A@EA@exception@std@@8 004613b4     CW3_Game.obj
 0002:000083d8       ??_R4?$basic_stringbuf@DU?$char_traits@D@std@@V?$allocator@D@2@@std@@6B@ 004613d8     CW3_Game.obj
 0002:000083f0       ??_R3?$basic_stringbuf@DU?$char_traits@D@std@@V?$allocator@D@2@@std@@8 004613f0     CW3_Game.obj
 0002:00008404       ??_R2?$basic_stringbuf@DU?$char_traits@D@std@@V?$allocator@D@2@@std@@8 00461404     CW3_Game.obj
 0002:00008410       ??_R1A@?0A@EA@?$basic_stringbuf@DU?$char_traits@D@std@@V?$allocator@D@2@@std@@8 00461410     CW3_Game.obj
 0002:00008434       ??_R1A@?0A@EA@?$basic_streambuf@DU?$char_traits@D@std@@@std@@8 00461434     CW3_Game.obj
 0002:00008458       ??_R3?$basic_streambuf@DU?$char_traits@D@std@@@std@@8 00461458     CW3_Game.obj
 0002:0000846c       ??_R2?$basic_streambuf@DU?$char_traits@D@std@@@std@@8 0046146c     CW3_Game.obj
 0002:00008474       ??_R4?$basic_stringstream@DU?$char_traits@D@std@@V?$allocator@D@2@@std@@6B@ 00461474     CW3_Game.obj
 0002:0000848c       ??_R3?$basic_stringstream@DU?$char_traits@D@std@@V?$allocator@D@2@@std@@8 0046148c     CW3_Game.obj
 0002:000084a0       ??_R2?$basic_stringstream@DU?$char_traits@D@std@@V?$allocator@D@2@@std@@8 004614a0     CW3_Game.obj
 0002:000084d4       ??_R1A@?0A@EA@?$basic_stringstream@DU?$char_traits@D@std@@V?$allocator@D@2@@std@@8 004614d4     CW3_Game.obj
 0002:000084f8       ??_R1A@?0A@EA@?$basic_iostream@DU?$char_traits@D@std@@@std@@8 004614f8     CW3_Game.obj
 0002:0000851c       ??_R3?$basic_iostream@DU?$char_traits@D@std@@@std@@8 0046151c     CW3_Game.obj
 0002:00008530       ??_R2?$basic_iostream@DU?$char_traits@D@std@@@std@@8 00461530     CW3_Game.obj
 0002:0000855c       ??_R1A@?0A@EA@?$basic_istream@DU?$char_traits@D@std@@@std@@8 0046155c     CW3_Game.obj
 0002:00008580       ??_R3?$basic_istream@DU?$char_traits@D@std@@@std@@8 00461580     CW3_Game.obj
 0002:00008594       ??_R2?$basic_istream@DU?$char_traits@D@std@@@std@@8 00461594     CW3_Game.obj
 0002:000085a8       ??_R1A@A@3FA@?$basic_ios@DU?$char_traits@D@std@@@std@@8 004615a8     CW3_Game.obj
 0002:000085cc       ??_R3?$basic_ios@DU?$char_traits@D@std@@@std@@8 004615cc     CW3_Game.obj
 0002:000085e0       ??_R2?$basic_ios@DU?$char_traits@D@std@@@std@@8 004615e0     CW3_Game.obj
 0002:000085f0       ??_R1A@?0A@EA@?$basic_ios@DU?$char_traits@D@std@@@std@@8 004615f0     CW3_Game.obj
 0002:00008614       ??_R1A@?0A@EA@ios_base@std@@8 00461614     CW3_Game.obj
 0002:00008638       ??_R3ios_base@std@@8       00461638     CW3_Game.obj
 0002:0000864c       ??_R2ios_base@std@@8       0046164c     CW3_Game.obj
 0002:00008658       ??_R17?0A@EA@?$_Iosb@H@std@@8 00461658     CW3_Game.obj
 0002:0000867c       ??_R3?$_Iosb@H@std@@8      0046167c     CW3_Game.obj
 0002:00008690       ??_R2?$_Iosb@H@std@@8      00461690     CW3_Game.obj
 0002:00008698       ??_R1A@?0A@EA@?$_Iosb@H@std@@8 00461698     CW3_Game.obj
 0002:000086bc       ??_R1A@A@3EA@ios_base@std@@8 004616bc     CW3_Game.obj
 0002:000086e0       ??_R17A@3EA@?$_Iosb@H@std@@8 004616e0     CW3_Game.obj
 0002:00008704       ??_R1BA@?0A@EA@?$basic_ostream@DU?$char_traits@D@std@@@std@@8 00461704     CW3_Game.obj
 0002:00008728       ??_R3?$basic_ostream@DU?$char_traits@D@std@@@std@@8 00461728     CW3_Game.obj
 0002:0000873c       ??_R2?$basic_ostream@DU?$char_traits@D@std@@@std@@8 0046173c     CW3_Game.obj
 0002:00008750       ??_R1A@?0A@EA@?$basic_ostream@DU?$char_traits@D@std@@@std@@8 00461750     CW3_Game.obj
 0002:00008774       ??_R4?$basic_filebuf@DU?$char_traits@D@std@@@std@@6B@ 00461774     CW3_Game.obj
 0002:0000878c       ??_R3?$basic_filebuf@DU?$char_traits@D@std@@@std@@8 0046178c     CW3_Game.obj
 0002:000087a0       ??_R2?$basic_filebuf@DU?$char_traits@D@std@@@std@@8 004617a0     CW3_Game.obj
 0002:000087ac       ??_R1A@?0A@EA@?$basic_filebuf@DU?$char_traits@D@std@@@std@@8 004617ac     CW3_Game.obj
 0002:000087d0       ??_R4?$basic_ifstream@DU?$char_traits@D@std@@@std@@6B@ 004617d0     CW3_Game.obj
 0002:000087e8       ??_R3?$basic_ifstream@DU?$char_traits@D@std@@@std@@8 004617e8     CW3_Game.obj
 0002:000087fc       ??_R2?$basic_ifstream@DU?$char_traits@D@std@@@std@@8 004617fc     CW3_Game.obj
 0002:00008818       ??_R1A@?0A@EA@?$basic_ifstream@DU?$char_traits@D@std@@@std@@8 00461818     CW3_Game.obj
 0002:0000883c       ??_R4?$basic_ofstream@DU?$char_traits@D@std@@@std@@6B@ 0046183c     CW3_Game.obj
 0002:00008854       ??_R3?$basic_ofstream@DU?$char_traits@D@std@@@std@@8 00461854     CW3_Game.obj
 0002:00008868       ??_R2?$basic_ofstream@DU?$char_traits@D@std@@@std@@8 00461868     CW3_Game.obj
 0002:00008884       ??_R1A@?0A@EA@?$basic_ofstream@DU?$char_traits@D@std@@@std@@8 00461884     CW3_Game.obj
 0002:000088a8       ??_R4bad_cast@std@@6B@     004618a8     CW3_Game.obj
 0002:000088c0       ??_R3bad_cast@std@@8       004618c0     CW3_Game.obj
 0002:000088d4       ??_R2bad_cast@std@@8       004618d4     CW3_Game.obj
 0002:000088e0       ??_R1A@?0A@EA@bad_cast@std@@8 004618e0     CW3_Game.obj
 0002:00008904       ??_R3DisplayableObjectContainer@@8 00461904     CW3_Game.obj
 0002:00008918       ??_R2DisplayableObjectContainer@@8 00461918     CW3_Game.obj
 0002:00008920       ??_R1A@?0A@EA@DisplayableObjectContainer@@8 00461920     CW3_Game.obj
 0002:00008944       ??_R4CW3_Game@@6BDisplayableObjectContainer@@@ 00461944     CW3_Game.obj
 0002:0000895c       ??_R3CW3_Game@@8           0046195c     CW3_Game.obj
 0002:00008970       ??_R2CW3_Game@@8           00461970     CW3_Game.obj
 0002:00008984       ??_R1A@?0A@EA@CW3_Game@@8  00461984     CW3_Game.obj
 0002:000089a8       ??_R1A@?0A@EA@BaseEngine@@8 004619a8     CW3_Game.obj
 0002:000089cc       ??_R3BaseEngine@@8         004619cc     CW3_Game.obj
 0002:000089e0       ??_R2BaseEngine@@8         004619e0     CW3_Game.obj
 0002:000089f0       ??_R1BM@?0A@EA@FilterPoints@@8 004619f0     CW3_Game.obj
 0002:00008a14       ??_R3FilterPoints@@8       00461a14     CW3_Game.obj
 0002:00008a28       ??_R2FilterPoints@@8       00461a28     CW3_Game.obj
 0002:00008a30       ??_R1A@?0A@EA@FilterPoints@@8 00461a30     CW3_Game.obj
 0002:00008a54       ??_R4CW3_Game@@6BFilterPoints@@@ 00461a54     CW3_Game.obj
 0002:00008a6c       ??_R3_Ref_count_base@std@@8 00461a6c     CW3_Player.obj
 0002:00008a80       ??_R2_Ref_count_base@std@@8 00461a80     CW3_Player.obj
 0002:00008a88       ??_R1A@?0A@EA@_Ref_count_base@std@@8 00461a88     CW3_Player.obj
 0002:00008aac       ??_R4CW3_GameObject@@6B@   00461aac     CW3_Player.obj
 0002:00008ac4       ??_R3CW3_GameObject@@8     00461ac4     CW3_Player.obj
 0002:00008ad8       ??_R2CW3_GameObject@@8     00461ad8     CW3_Player.obj
 0002:00008ae4       ??_R1A@?0A@EA@CW3_GameObject@@8 00461ae4     CW3_Player.obj
 0002:00008b08       ??_R1A@?0A@EA@DisplayableObject@@8 00461b08     CW3_Player.obj
 0002:00008b2c       ??_R3DisplayableObject@@8  00461b2c     CW3_Player.obj
 0002:00008b40       ??_R2DisplayableObject@@8  00461b40     CW3_Player.obj
 0002:00008b48       ??_R4CW3_LivingGameObject@@6B@ 00461b48     CW3_Player.obj
 0002:00008b60       ??_R3CW3_LivingGameObject@@8 00461b60     CW3_Player.obj
 0002:00008b74       ??_R2CW3_LivingGameObject@@8 00461b74     CW3_Player.obj
 0002:00008b84       ??_R1A@?0A@EA@CW3_LivingGameObject@@8 00461b84     CW3_Player.obj
 0002:00008ba8       ??_R4CW3_Player@@6B@       00461ba8     CW3_Player.obj
 0002:00008bc0       ??_R3CW3_Player@@8         00461bc0     CW3_Player.obj
 0002:00008bd4       ??_R2CW3_Player@@8         00461bd4     CW3_Player.obj
 0002:00008be8       ??_R1A@?0A@EA@CW3_Player@@8 00461be8     CW3_Player.obj
 0002:00008c0c       ??_R4?$_Ref_count@VRawImageData@@@std@@6B@ 00461c0c     CW3_Player.obj
 0002:00008c24       ??_R3?$_Ref_count@VRawImageData@@@std@@8 00461c24     CW3_Player.obj
 0002:00008c38       ??_R2?$_Ref_count@VRawImageData@@@std@@8 00461c38     CW3_Player.obj
 0002:00008c44       ??_R1A@?0A@EA@?$_Ref_count@VRawImageData@@@std@@8 00461c44     CW3_Player.obj
 0002:00008c68       ??_R4CW3_BaseEnemy@@6B@    00461c68     CW3_SimpleEnemy.obj
 0002:00008c80       ??_R3CW3_BaseEnemy@@8      00461c80     CW3_SimpleEnemy.obj
 0002:00008c94       ??_R2CW3_BaseEnemy@@8      00461c94     CW3_SimpleEnemy.obj
 0002:00008ca8       ??_R1A@?0A@EA@CW3_BaseEnemy@@8 00461ca8     CW3_SimpleEnemy.obj
 0002:00008ccc       ??_R4CW3_SimpleEnemy@@6B@  00461ccc     CW3_SimpleEnemy.obj
 0002:00008ce4       ??_R3CW3_SimpleEnemy@@8    00461ce4     CW3_SimpleEnemy.obj
 0002:00008cf8       ??_R2CW3_SimpleEnemy@@8    00461cf8     CW3_SimpleEnemy.obj
 0002:00008d14       ??_R1A@?0A@EA@CW3_SimpleEnemy@@8 00461d14     CW3_SimpleEnemy.obj
 0002:00008d38       ??_R4CoordinateMapping@@6B@ 00461d38     CW3_SimpleGun.obj
 0002:00008d50       ??_R3CoordinateMapping@@8  00461d50     CW3_SimpleGun.obj
 0002:00008d64       ??_R2CoordinateMapping@@8  00461d64     CW3_SimpleGun.obj
 0002:00008d6c       ??_R1A@?0A@EA@CoordinateMapping@@8 00461d6c     CW3_SimpleGun.obj
 0002:00008d90       ??_R4CoordinateMappingRotate@@6B@ 00461d90     CW3_SimpleGun.obj
 0002:00008da8       ??_R3CoordinateMappingRotate@@8 00461da8     CW3_SimpleGun.obj
 0002:00008dbc       ??_R2CoordinateMappingRotate@@8 00461dbc     CW3_SimpleGun.obj
 0002:00008dc8       ??_R1A@?0A@EA@CoordinateMappingRotate@@8 00461dc8     CW3_SimpleGun.obj
 0002:00008dec       ??_R4CW3_BaseGun@@6B@      00461dec     CW3_SimpleGun.obj
 0002:00008e04       ??_R3CW3_BaseGun@@8        00461e04     CW3_SimpleGun.obj
 0002:00008e18       ??_R2CW3_BaseGun@@8        00461e18     CW3_SimpleGun.obj
 0002:00008e24       ??_R1A@?0A@EA@CW3_BaseGun@@8 00461e24     CW3_SimpleGun.obj
 0002:00008e48       ??_R4CW3_SimpleGun@@6B@    00461e48     CW3_SimpleGun.obj
 0002:00008e60       ??_R3CW3_SimpleGun@@8      00461e60     CW3_SimpleGun.obj
 0002:00008e74       ??_R2CW3_SimpleGun@@8      00461e74     CW3_SimpleGun.obj
 0002:00008e84       ??_R1A@?0A@EA@CW3_SimpleGun@@8 00461e84     CW3_SimpleGun.obj
 0002:00008ea8       ??_R4CW3_BaseBullet@@6B@   00461ea8     CW3_SimpleGun.obj
 0002:00008ec0       ??_R3CW3_BaseBullet@@8     00461ec0     CW3_SimpleGun.obj
 0002:00008ed4       ??_R2CW3_BaseBullet@@8     00461ed4     CW3_SimpleGun.obj
 0002:00008ee4       ??_R1A@?0A@EA@CW3_BaseBullet@@8 00461ee4     CW3_SimpleGun.obj
 0002:00008f08       ??_R4CW3_SimpleBullet@@6B@ 00461f08     CW3_SimpleGun.obj
 0002:00008f20       ??_R3CW3_SimpleBullet@@8   00461f20     CW3_SimpleGun.obj
 0002:00008f34       ??_R2CW3_SimpleBullet@@8   00461f34     CW3_SimpleGun.obj
 0002:00008f48       ??_R1A@?0A@EA@CW3_SimpleBullet@@8 00461f48     CW3_SimpleGun.obj
 0002:00008f6c       ??_R4TileManager@@6B@      00461f6c     CW3_TileManager.obj
 0002:00008f84       ??_R3TileManager@@8        00461f84     CW3_TileManager.obj
 0002:00008f98       ??_R2TileManager@@8        00461f98     CW3_TileManager.obj
 0002:00008fa0       ??_R1A@?0A@EA@TileManager@@8 00461fa0     CW3_TileManager.obj
 0002:00008fc4       ??_R4CW3_TileManager@@6B@  00461fc4     CW3_TileManager.obj
 0002:00008fdc       ??_R3CW3_TileManager@@8    00461fdc     CW3_TileManager.obj
 0002:00008ff0       ??_R2CW3_TileManager@@8    00461ff0     CW3_TileManager.obj
 0002:00008ffc       ??_R1A@?0A@EA@CW3_TileManager@@8 00461ffc     CW3_TileManager.obj
 0002:00009020       ??_R4DragableBaseClassObject@@6B@ 00462020     DraggingDemo.obj
 0002:00009038       ??_R3DragableBaseClassObject@@8 00462038     DraggingDemo.obj
 0002:0000904c       ??_R2DragableBaseClassObject@@8 0046204c     DraggingDemo.obj
 0002:00009058       ??_R1A@?0A@EA@DragableBaseClassObject@@8 00462058     DraggingDemo.obj
 0002:0000907c       ??_R4DragableObject@@6B@   0046207c     DraggingDemo.obj
 0002:00009094       ??_R3DragableObject@@8     00462094     DraggingDemo.obj
 0002:000090a8       ??_R2DragableObject@@8     004620a8     DraggingDemo.obj
 0002:000090b8       ??_R1A@?0A@EA@DragableObject@@8 004620b8     DraggingDemo.obj
 0002:000090dc       ??_R4ImageObject@@6B@      004620dc     DraggingDemo.obj
 0002:000090f4       ??_R3ImageObject@@8        004620f4     DraggingDemo.obj
 0002:00009108       ??_R2ImageObject@@8        00462108     DraggingDemo.obj
 0002:00009114       ??_R1A@?0A@EA@ImageObject@@8 00462114     DraggingDemo.obj
 0002:00009138       ??_R4DragableImageObject@@6B@ 00462138     DraggingDemo.obj
 0002:00009150       ??_R3DragableImageObject@@8 00462150     DraggingDemo.obj
 0002:00009164       ??_R2DragableImageObject@@8 00462164     DraggingDemo.obj
 0002:00009174       ??_R1A@?0A@EA@DragableImageObject@@8 00462174     DraggingDemo.obj
 0002:00009198       ??_R4FlashingDemo@@6BDisplayableObjectContainer@@@ 00462198     FlashingDemo.obj
 0002:000091b0       ??_R3FlashingDemo@@8       004621b0     FlashingDemo.obj
 0002:000091c4       ??_R2FlashingDemo@@8       004621c4     FlashingDemo.obj
 0002:000091d8       ??_R1A@?0A@EA@FlashingDemo@@8 004621d8     FlashingDemo.obj
 0002:000091fc       ??_R4FlashingDemo@@6BFilterPoints@@@ 004621fc     FlashingDemo.obj
 0002:00009214       ??_R4MappableImageObject@@6B@ 00462214     ImageMappingDemo.obj
 0002:0000922c       ??_R3MappableImageObject@@8 0046222c     ImageMappingDemo.obj
 0002:00009240       ??_R2MappableImageObject@@8 00462240     ImageMappingDemo.obj
 0002:00009254       ??_R1A@?0A@EA@MappableImageObject@@8 00462254     ImageMappingDemo.obj
 0002:00009278       ??_R4BouncingObject@@6B@   00462278     ImageObjectDemo.obj
 0002:00009290       ??_R3BouncingObject@@8     00462290     ImageObjectDemo.obj
 0002:000092a4       ??_R2BouncingObject@@8     004622a4     ImageObjectDemo.obj
 0002:000092b0       ??_R1A@?0A@EA@BouncingObject@@8 004622b0     ImageObjectDemo.obj
 0002:000092d4       ??_R4BouncingImageObject@@6B@ 004622d4     ImageObjectDemo.obj
 0002:000092ec       ??_R3BouncingImageObject@@8 004622ec     ImageObjectDemo.obj
 0002:00009300       ??_R2BouncingImageObject@@8 00462300     ImageObjectDemo.obj
 0002:00009310       ??_R1A@?0A@EA@BouncingImageObject@@8 00462310     ImageObjectDemo.obj
 0002:00009334       ??_R3?$_Func_base@XPAVDisplayableObject@@@std@@8 00462334     JigsawDemo.obj
 0002:00009348       ??_R2?$_Func_base@XPAVDisplayableObject@@@std@@8 00462348     JigsawDemo.obj
 0002:00009350       ??_R1A@?0A@EA@?$_Func_base@XPAVDisplayableObject@@@std@@8 00462350     JigsawDemo.obj
 0002:00009374       ??_R4JigsawPiece@@6BDragableImageObject@@@ 00462374     JigsawDemo.obj
 0002:0000938c       ??_R3JigsawPiece@@8        0046238c     JigsawDemo.obj
 0002:000093a0       ??_R2JigsawPiece@@8        004623a0     JigsawDemo.obj
 0002:000093bc       ??_R1A@?0A@EA@JigsawPiece@@8 004623bc     JigsawDemo.obj
 0002:000093e0       ??_R1EM@?0A@EA@CoordinateMapping@@8 004623e0     JigsawDemo.obj
 0002:00009404       ??_R4JigsawPiece@@6BCoordinateMapping@@@ 00462404     JigsawDemo.obj
 0002:0000941c       ??_R4?$_Func_impl_no_alloc@V<lambda_2870de01b601283699da779de20905fc>@@XPAVDisplayableObject@@@std@@6B@ 0046241c     JigsawDemo.obj
 0002:00009434       ??_R3?$_Func_impl_no_alloc@V<lambda_2870de01b601283699da779de20905fc>@@XPAVDisplayableObject@@@std@@8 00462434     JigsawDemo.obj
 0002:00009448       ??_R2?$_Func_impl_no_alloc@V<lambda_2870de01b601283699da779de20905fc>@@XPAVDisplayableObject@@@std@@8 00462448     JigsawDemo.obj
 0002:00009454       ??_R1A@?0A@EA@?$_Func_impl_no_alloc@V<lambda_2870de01b601283699da779de20905fc>@@XPAVDisplayableObject@@@std@@8 00462454     JigsawDemo.obj
 0002:00009478       ??_R4?$_Func_impl_no_alloc@V<lambda_4d3c514b9e5ad6cc29096aa3b57f98f2>@@XPAVDisplayableObject@@@std@@6B@ 00462478     JigsawDemo.obj
 0002:00009490       ??_R3?$_Func_impl_no_alloc@V<lambda_4d3c514b9e5ad6cc29096aa3b57f98f2>@@XPAVDisplayableObject@@@std@@8 00462490     JigsawDemo.obj
 0002:000094a4       ??_R2?$_Func_impl_no_alloc@V<lambda_4d3c514b9e5ad6cc29096aa3b57f98f2>@@XPAVDisplayableObject@@@std@@8 004624a4     JigsawDemo.obj
 0002:000094b0       ??_R1A@?0A@EA@?$_Func_impl_no_alloc@V<lambda_4d3c514b9e5ad6cc29096aa3b57f98f2>@@XPAVDisplayableObject@@@std@@8 004624b0     JigsawDemo.obj
 0002:000094d4       ??_R4?$_Func_impl_no_alloc@V<lambda_369f3aee610e50bbd15c3a78d9c8686f>@@XPAVDisplayableObject@@@std@@6B@ 004624d4     JigsawDemo.obj
 0002:000094ec       ??_R3?$_Func_impl_no_alloc@V<lambda_369f3aee610e50bbd15c3a78d9c8686f>@@XPAVDisplayableObject@@@std@@8 004624ec     JigsawDemo.obj
 0002:00009500       ??_R2?$_Func_impl_no_alloc@V<lambda_369f3aee610e50bbd15c3a78d9c8686f>@@XPAVDisplayableObject@@@std@@8 00462500     JigsawDemo.obj
 0002:0000950c       ??_R1A@?0A@EA@?$_Func_impl_no_alloc@V<lambda_369f3aee610e50bbd15c3a78d9c8686f>@@XPAVDisplayableObject@@@std@@8 0046250c     JigsawDemo.obj
 0002:00009530       ??_R4?$_Func_impl_no_alloc@V<lambda_817584b2460f1bcab806f46a25c321a8>@@XPAVDisplayableObject@@@std@@6B@ 00462530     JigsawDemo.obj
 0002:00009548       ??_R3?$_Func_impl_no_alloc@V<lambda_817584b2460f1bcab806f46a25c321a8>@@XPAVDisplayableObject@@@std@@8 00462548     JigsawDemo.obj
 0002:0000955c       ??_R2?$_Func_impl_no_alloc@V<lambda_817584b2460f1bcab806f46a25c321a8>@@XPAVDisplayableObject@@@std@@8 0046255c     JigsawDemo.obj
 0002:00009568       ??_R1A@?0A@EA@?$_Func_impl_no_alloc@V<lambda_817584b2460f1bcab806f46a25c321a8>@@XPAVDisplayableObject@@@std@@8 00462568     JigsawDemo.obj
 0002:0000958c       ??_R4?$_Func_impl_no_alloc@V<lambda_341a6657abb2758c42a6873833e6116f>@@XPAVDisplayableObject@@@std@@6B@ 0046258c     JigsawDemo.obj
 0002:000095a4       ??_R3?$_Func_impl_no_alloc@V<lambda_341a6657abb2758c42a6873833e6116f>@@XPAVDisplayableObject@@@std@@8 004625a4     JigsawDemo.obj
 0002:000095b8       ??_R2?$_Func_impl_no_alloc@V<lambda_341a6657abb2758c42a6873833e6116f>@@XPAVDisplayableObject@@@std@@8 004625b8     JigsawDemo.obj
 0002:000095c4       ??_R1A@?0A@EA@?$_Func_impl_no_alloc@V<lambda_341a6657abb2758c42a6873833e6116f>@@XPAVDisplayableObject@@@std@@8 004625c4     JigsawDemo.obj
 0002:000096fc       ??_R4BaseEngine@@6BDisplayableObjectContainer@@@ 004626fc     BaseEngine.obj
 0002:00009714       ??_R4BaseEngine@@6BFilterPoints@@@ 00462714     BaseEngine.obj
 0002:0000972c       ??_R4FilterPoints@@6B@     0046272c     BaseEngine.obj
 0002:00009744       ??_R4DisplayableObjectContainer@@6B@ 00462744     BaseEngine.obj
 0002:0000975c       ??_R4DisplayableObject@@6B@ 0046275c     DisplayableObject.obj
 0002:00009774       ??_R4MyDemoA@@6BDisplayableObjectContainer@@@ 00462774     MyDemoA.obj
 0002:0000978c       ??_R3MyDemoA@@8            0046278c     MyDemoA.obj
 0002:000097a0       ??_R2MyDemoA@@8            004627a0     MyDemoA.obj
 0002:000097b4       ??_R1A@?0A@EA@MyDemoA@@8   004627b4     MyDemoA.obj
 0002:000097d8       ??_R4MyDemoA@@6BFilterPoints@@@ 004627d8     MyDemoA.obj
 0002:000097f0       ??_R4MyObjectA@@6B@        004627f0     MyObjectA.obj
 0002:00009808       ??_R3MyObjectA@@8          00462808     MyObjectA.obj
 0002:0000981c       ??_R2MyObjectA@@8          0046281c     MyObjectA.obj
 0002:00009828       ??_R1A@?0A@EA@MyObjectA@@8 00462828     MyObjectA.obj
 0002:0000984c       ??_R4MyTileManager@@6B@    0046284c     MyTileManager.obj
 0002:00009864       ??_R3MyTileManager@@8      00462864     MyTileManager.obj
 0002:00009878       ??_R2MyTileManager@@8      00462878     MyTileManager.obj
 0002:00009884       ??_R1A@?0A@EA@MyTileManager@@8 00462884     MyTileManager.obj
 0002:000098a8       ??_R4CroppedCoordinateMapping@@6B@ 004628a8     SimpleImage.obj
 0002:000098c0       ??_R3CroppedCoordinateMapping@@8 004628c0     SimpleImage.obj
 0002:000098d4       ??_R2CroppedCoordinateMapping@@8 004628d4     SimpleImage.obj
 0002:000098e0       ??_R1A@?0A@EA@CroppedCoordinateMapping@@8 004628e0     SimpleImage.obj
 0002:00009904       ??_R4JasonsDemoA@@6BDisplayableObjectContainer@@@ 00462904     JasonsDemoA.obj
 0002:0000991c       ??_R3JasonsDemoA@@8        0046291c     JasonsDemoA.obj
 0002:00009930       ??_R2JasonsDemoA@@8        00462930     JasonsDemoA.obj
 0002:00009944       ??_R1A@?0A@EA@JasonsDemoA@@8 00462944     JasonsDemoA.obj
 0002:00009968       ??_R4JasonsDemoA@@6BFilterPoints@@@ 00462968     JasonsDemoA.obj
 0002:00009980       ??_R4JasonsObjectA@@6B@    00462980     JasonsObjectA.obj
 0002:00009998       ??_R3JasonsObjectA@@8      00462998     JasonsObjectA.obj
 0002:000099ac       ??_R2JasonsObjectA@@8      004629ac     JasonsObjectA.obj
 0002:000099b8       ??_R1A@?0A@EA@JasonsObjectA@@8 004629b8     JasonsObjectA.obj
 0002:000099dc       ??_R4JasonsTileManager@@6B@ 004629dc     JasonsTileManager.obj
 0002:000099f4       ??_R3JasonsTileManager@@8  004629f4     JasonsTileManager.obj
 0002:00009a08       ??_R2JasonsTileManager@@8  00462a08     JasonsTileManager.obj
 0002:00009a14       ??_R1A@?0A@EA@JasonsTileManager@@8 00462a14     JasonsTileManager.obj
 0002:00009a38       ??_R4DragableTokenContainer@@6BDragableBaseClassObject@@@ 00462a38     PlayingCardsDemo.obj
 0002:00009a50       ??_R3DragableTokenContainer@@8 00462a50     PlayingCardsDemo.obj
 0002:00009a64       ??_R2DragableTokenContainer@@8 00462a64     PlayingCardsDemo.obj
 0002:00009a78       ??_R1A@?0A@EA@DragableTokenContainer@@8 00462a78     PlayingCardsDemo.obj
 0002:00009a9c       ??_R1DM@?0A@EA@DisplayableObjectContainer@@8 00462a9c     PlayingCardsDemo.obj
 0002:00009ac0       ??_R4DragableTokenContainer@@6BDisplayableObjectContainer@@@ 00462ac0     PlayingCardsDemo.obj
 0002:00009ad8       ??_R4DragableToken@@6B@    00462ad8     PlayingCardsDemo.obj
 0002:00009af0       ??_R3DragableToken@@8      00462af0     PlayingCardsDemo.obj
 0002:00009b04       ??_R2DragableToken@@8      00462b04     PlayingCardsDemo.obj
 0002:00009b10       ??_R1A@?0A@EA@DragableToken@@8 00462b10     PlayingCardsDemo.obj
 0002:00009b34       ??_R4TokenTray@@6BDragableBaseClassObject@@@ 00462b34     PlayingCardsDemo.obj
 0002:00009b4c       ??_R3TokenTray@@8          00462b4c     PlayingCardsDemo.obj
 0002:00009b60       ??_R2TokenTray@@8          00462b60     PlayingCardsDemo.obj
 0002:00009b7c       ??_R1A@?0A@EA@TokenTray@@8 00462b7c     PlayingCardsDemo.obj
 0002:00009ba0       ??_R4TokenTray@@6BDisplayableObjectContainer@@@ 00462ba0     PlayingCardsDemo.obj
 0002:00009bb8       ??_R4CardOrTile@@6BDragableBaseClassObject@@@ 00462bb8     PlayingCardsDemo.obj
 0002:00009bd0       ??_R3CardOrTile@@8         00462bd0     PlayingCardsDemo.obj
 0002:00009be4       ??_R2CardOrTile@@8         00462be4     PlayingCardsDemo.obj
 0002:00009c00       ??_R1A@?0A@EA@CardOrTile@@8 00462c00     PlayingCardsDemo.obj
 0002:00009c24       ??_R4CardOrTile@@6BDisplayableObjectContainer@@@ 00462c24     PlayingCardsDemo.obj
 0002:00009c3c       ??_R4CardContainer@@6BDragableBaseClassObject@@@ 00462c3c     PlayingCardsDemo.obj
 0002:00009c54       ??_R3CardContainer@@8      00462c54     PlayingCardsDemo.obj
 0002:00009c68       ??_R2CardContainer@@8      00462c68     PlayingCardsDemo.obj
 0002:00009c84       ??_R1A@?0A@EA@CardContainer@@8 00462c84     PlayingCardsDemo.obj
 0002:00009ca8       ??_R4CardContainer@@6BDisplayableObjectContainer@@@ 00462ca8     PlayingCardsDemo.obj
 0002:00009cc0       ??_R4CoordinateMappingRotateAndColour@@6B@ 00462cc0     PlayingCardsDemo.obj
 0002:00009cd8       ??_R3CoordinateMappingRotateAndColour@@8 00462cd8     PlayingCardsDemo.obj
 0002:00009cec       ??_R2CoordinateMappingRotateAndColour@@8 00462cec     PlayingCardsDemo.obj
 0002:00009cfc       ??_R1A@?0A@EA@CoordinateMappingRotateAndColour@@8 00462cfc     PlayingCardsDemo.obj
 0002:00009d20       ??_R4StarfieldDemo@@6BDisplayableObjectContainer@@@ 00462d20     StarfieldDemo.obj
 0002:00009d38       ??_R3StarfieldDemo@@8      00462d38     StarfieldDemo.obj
 0002:00009d4c       ??_R2StarfieldDemo@@8      00462d4c     StarfieldDemo.obj
 0002:00009d60       ??_R1A@?0A@EA@StarfieldDemo@@8 00462d60     StarfieldDemo.obj
 0002:00009d84       ??_R4StarfieldDemo@@6BFilterPoints@@@ 00462d84     StarfieldDemo.obj
 0002:00009d9c       ??_R4BouncingBall@@6B@     00462d9c     BouncingBall.obj
 0002:00009db4       ??_R3BouncingBall@@8       00462db4     BouncingBall.obj
 0002:00009dc8       ??_R2BouncingBall@@8       00462dc8     BouncingBall.obj
 0002:00009dd4       ??_R1A@?0A@EA@BouncingBall@@8 00462dd4     BouncingBall.obj
 0002:00009df8       ??_R4BouncingBall1@@6B@    00462df8     BouncingBall.obj
 0002:00009e10       ??_R3BouncingBall1@@8      00462e10     BouncingBall.obj
 0002:00009e24       ??_R2BouncingBall1@@8      00462e24     BouncingBall.obj
 0002:00009e34       ??_R1A@?0A@EA@BouncingBall1@@8 00462e34     BouncingBall.obj
 0002:00009e58       ??_R4BouncingBall2@@6B@    00462e58     BouncingBall.obj
 0002:00009e70       ??_R3BouncingBall2@@8      00462e70     BouncingBall.obj
 0002:00009e84       ??_R2BouncingBall2@@8      00462e84     BouncingBall.obj
 0002:00009e94       ??_R1A@?0A@EA@BouncingBall2@@8 00462e94     BouncingBall.obj
 0002:00009eb8       ??_R4SimpleFlashingDragableImageObject@@6B@ 00462eb8     ZoomingDemo.obj
 0002:00009ed0       ??_R3SimpleFlashingDragableImageObject@@8 00462ed0     ZoomingDemo.obj
 0002:00009ee4       ??_R2SimpleFlashingDragableImageObject@@8 00462ee4     ZoomingDemo.obj
 0002:00009ef0       ??_R1A@?0A@EA@SimpleFlashingDragableImageObject@@8 00462ef0     ZoomingDemo.obj
 0002:00009f14       ??_R4MazeDemoMain@@6BDisplayableObjectContainer@@@ 00462f14     MazeDemoMain.obj
 0002:00009f2c       ??_R3MazeDemoMain@@8       00462f2c     MazeDemoMain.obj
 0002:00009f40       ??_R2MazeDemoMain@@8       00462f40     MazeDemoMain.obj
 0002:00009f54       ??_R1A@?0A@EA@MazeDemoMain@@8 00462f54     MazeDemoMain.obj
 0002:00009f78       ??_R4MazeDemoMain@@6BFilterPoints@@@ 00462f78     MazeDemoMain.obj
 0002:00009f90       ??_R4MazeDemoTileManager@@6B@ 00462f90     MazeDemoMain.obj
 0002:00009fa8       ??_R3MazeDemoTileManager@@8 00462fa8     MazeDemoMain.obj
 0002:00009fbc       ??_R2MazeDemoTileManager@@8 00462fbc     MazeDemoMain.obj
 0002:00009fc8       ??_R1A@?0A@EA@MazeDemoTileManager@@8 00462fc8     MazeDemoMain.obj
 0002:00009fec       ??_R4MazeDemoObject@@6B@   00462fec     MazeDemoObject.obj
 0002:0000a004       ??_R3MazeDemoObject@@8     00463004     MazeDemoObject.obj
 0002:0000a018       ??_R2MazeDemoObject@@8     00463018     MazeDemoObject.obj
 0002:0000a024       ??_R1A@?0A@EA@MazeDemoObject@@8 00463024     MazeDemoObject.obj
 0002:0000a048       ??_R4type_info@@6B@        00463048     MSVCRTD:std_type_info_static.obj
 0002:0000a060       ??_R3type_info@@8          00463060     MSVCRTD:std_type_info_static.obj
 0002:0000a074       ??_R2type_info@@8          00463074     MSVCRTD:std_type_info_static.obj
 0002:0000a07c       ??_R1A@?0A@EA@type_info@@8 0046307c     MSVCRTD:std_type_info_static.obj
 0002:0000a0a0       ??_R4bad_alloc@std@@6B@    004630a0     MSVCRTD:throw_bad_alloc.obj
 0002:0000a0b8       ??_R3bad_alloc@std@@8      004630b8     MSVCRTD:throw_bad_alloc.obj
 0002:0000a0cc       ??_R2bad_alloc@std@@8      004630cc     MSVCRTD:throw_bad_alloc.obj
 0002:0000a0d8       ??_R1A@?0A@EA@bad_alloc@std@@8 004630d8     MSVCRTD:throw_bad_alloc.obj
 0002:0000a0fc       ??_R4bad_array_new_length@std@@6B@ 004630fc     MSVCRTD:throw_bad_alloc.obj
 0002:0000a114       ??_R3bad_array_new_length@std@@8 00463114     MSVCRTD:throw_bad_alloc.obj
 0002:0000a128       ??_R2bad_array_new_length@std@@8 00463128     MSVCRTD:throw_bad_alloc.obj
 0002:0000a138       ??_R1A@?0A@EA@bad_array_new_length@std@@8 00463138     MSVCRTD:throw_bad_alloc.obj
 0002:0000a320       ___safe_se_handler_table   00463320     <linker-defined>
 0002:0000ab70       ___rtc_iaa                 00463b70     MSVCRTD:initsect.obj
 0002:0000ac74       ___rtc_izz                 00463c74     MSVCRTD:initsect.obj
 0002:0000ad78       ___rtc_taa                 00463d78     MSVCRTD:initsect.obj
 0002:0000ae7c       ___rtc_tzz                 00463e7c     MSVCRTD:initsect.obj
 0002:0000c1d8       __CT??_R0?AVexception@std@@@8??0exception@std@@QAE@ABV01@@Z12 004651d8     CW3_Game.obj
 0002:0000c1f8       __TI2?AVbad_cast@std@@     004651f8     CW3_Game.obj
 0002:0000c20c       __CTA2?AVbad_cast@std@@    0046520c     CW3_Game.obj
 0002:0000c21c       __CT??_R0?AVbad_cast@std@@@8??0bad_cast@std@@QAE@ABV01@@Z12 0046521c     CW3_Game.obj
 0002:0000c23c       __TI1H                     0046523c     CW3_Game.obj
 0002:0000c250       __CTA1H                    00465250     CW3_Game.obj
 0002:0000c258       __CT??_R0H@84              00465258     CW3_Game.obj
 0002:0000f150       __TI2?AVbad_alloc@std@@    00468150     MSVCRTD:throw_bad_alloc.obj
 0002:0000f164       __CTA2?AVbad_alloc@std@@   00468164     MSVCRTD:throw_bad_alloc.obj
 0002:0000f174       __CT??_R0?AVbad_alloc@std@@@8??0bad_alloc@std@@QAE@ABV01@@Z12 00468174     MSVCRTD:throw_bad_alloc.obj
 0002:0000f194       __TI3?AVbad_array_new_length@std@@ 00468194     MSVCRTD:throw_bad_alloc.obj
 0002:0000f1a8       __CTA3?AVbad_array_new_length@std@@ 004681a8     MSVCRTD:throw_bad_alloc.obj
 0002:0000f1bc       __CT??_R0?AVbad_array_new_length@std@@@8??0bad_array_new_length@std@@QAE@ABV01@@Z12 004681bc     MSVCRTD:throw_bad_alloc.obj
 0003:00000004       ___security_cookie_complement 00469004     MSVCRTD:gs_cookie.obj
 0003:00000008       ___security_cookie         00469008     MSVCRTD:gs_cookie.obj
 0003:00000010       __fltused                  00469010     MSVCRTD:fltused.obj
 0003:00000014       ___scrt_native_dllmain_reason 00469014     MSVCRTD:utility.obj
 0003:00000018       ___scrt_default_matherr    00469018     MSVCRTD:matherr.obj
 0003:0000001c       ___isa_enabled             0046901c     MSVCRTD:cpu_disp.obj
 0003:00000020       ___scrt_ucrt_dll_is_in_use 00469020     MSVCRTD:ucrt_stubs.obj
 0003:00000130       ??_R0?AVexception@std@@@8  00469130     CW3_Game.obj
 0003:00000154       ??_R0?AVBaseEngine@@@8     00469154     CW3_Game.obj
 0003:00000174       ??_R0?AVCW3_Game@@@8       00469174     CW3_Game.obj
 0003:00000190       ??_R0H@8                   00469190     CW3_Game.obj
 0003:000001a0       ??_R0?AVDisplayableObject@@@8 004691a0     CW3_Game.obj
 0003:000001c8       ??_R0?AVCW3_GameObject@@@8 004691c8     CW3_Game.obj
 0003:000001ec       ??_R0?AVbad_cast@std@@@8   004691ec     CW3_Game.obj
 0003:0000020c       ??_R0?AVCW3_Player@@@8     0046920c     CW3_Game.obj
 0003:00000230       ??_R0?AV?$basic_stringbuf@DU?$char_traits@D@std@@V?$allocator@D@2@@std@@@8 00469230     CW3_Game.obj
 0003:0000028c       ??_R0?AV?$basic_streambuf@DU?$char_traits@D@std@@@std@@@8 0046928c     CW3_Game.obj
 0003:000002d8       ??_R0?AV?$basic_stringstream@DU?$char_traits@D@std@@V?$allocator@D@2@@std@@@8 004692d8     CW3_Game.obj
 0003:00000338       ??_R0?AV?$basic_iostream@DU?$char_traits@D@std@@@std@@@8 00469338     CW3_Game.obj
 0003:00000380       ??_R0?AV?$basic_istream@DU?$char_traits@D@std@@@std@@@8 00469380     CW3_Game.obj
 0003:000003c8       ??_R0?AV?$basic_ios@DU?$char_traits@D@std@@@std@@@8 004693c8     CW3_Game.obj
 0003:00000408       ??_R0?AVios_base@std@@@8   00469408     CW3_Game.obj
 0003:00000428       ??_R0?AV?$_Iosb@H@std@@@8  00469428     CW3_Game.obj
 0003:0000044c       ??_R0?AV?$basic_ostream@DU?$char_traits@D@std@@@std@@@8 0046944c     CW3_Game.obj
 0003:00000494       ??_R0?AV?$basic_filebuf@DU?$char_traits@D@std@@@std@@@8 00469494     CW3_Game.obj
 0003:000004dc       ??_R0?AV?$basic_ifstream@DU?$char_traits@D@std@@@std@@@8 004694dc     CW3_Game.obj
 0003:00000524       ??_R0?AV?$basic_ofstream@DU?$char_traits@D@std@@@std@@@8 00469524     CW3_Game.obj
 0003:0000056c       ??_R0?AVDisplayableObjectContainer@@@8 0046956c     CW3_Game.obj
 0003:000005a0       ??_R0?AVFilterPoints@@@8   004695a0     CW3_Game.obj
 0003:000005c0       ??_R0?AV_Ref_count_base@std@@@8 004695c0     CW3_Player.obj
 0003:000005e8       ??_R0?AVCW3_LivingGameObject@@@8 004695e8     CW3_Player.obj
 0003:00000614       ??_R0?AV?$_Ref_count@VRawImageData@@@std@@@8 00469614     CW3_Player.obj
 0003:0000064c       ??_R0?AVCW3_BaseEnemy@@@8  0046964c     CW3_SimpleEnemy.obj
 0003:00000670       ??_R0?AVCW3_SimpleEnemy@@@8 00469670     CW3_SimpleEnemy.obj
 0003:00000694       ??_R0?AVCoordinateMapping@@@8 00469694     CW3_SimpleGun.obj
 0003:000006bc       ??_R0?AVCoordinateMappingRotate@@@8 004696bc     CW3_SimpleGun.obj
 0003:000006ec       ??_R0?AVCW3_BaseGun@@@8    004696ec     CW3_SimpleGun.obj
 0003:0000070c       ??_R0?AVCW3_SimpleGun@@@8  0046970c     CW3_SimpleGun.obj
 0003:00000730       ??_R0?AVCW3_BaseBullet@@@8 00469730     CW3_SimpleGun.obj
 0003:00000754       ??_R0?AVCW3_SimpleBullet@@@8 00469754     CW3_SimpleGun.obj
 0003:0000077c       ??_R0?AVTileManager@@@8    0046977c     CW3_TileManager.obj
 0003:0000079c       ??_R0?AVCW3_TileManager@@@8 0046979c     CW3_TileManager.obj
 0003:000007c0       ??_R0?AVDragableBaseClassObject@@@8 004697c0     DraggingDemo.obj
 0003:000007f0       ??_R0?AVDragableObject@@@8 004697f0     DraggingDemo.obj
 0003:00000814       ??_R0?AVImageObject@@@8    00469814     DraggingDemo.obj
 0003:00000834       ??_R0?AVDragableImageObject@@@8 00469834     DraggingDemo.obj
 0003:0000085c       ??_R0?AVFlashingDemo@@@8   0046985c     FlashingDemo.obj
 0003:0000087c       ??_R0?AVMappableImageObject@@@8 0046987c     ImageMappingDemo.obj
 0003:000008a4       ??_R0?AVBouncingObject@@@8 004698a4     ImageObjectDemo.obj
 0003:000008c8       ??_R0?AVBouncingImageObject@@@8 004698c8     ImageObjectDemo.obj
 0003:000009bc       ??_R0?AV<lambda_341a6657abb2758c42a6873833e6116f>@@@8 004699bc     JigsawDemo.obj
 0003:00000a00       ??_R0?AV<lambda_817584b2460f1bcab806f46a25c321a8>@@@8 00469a00     JigsawDemo.obj
 0003:00000a44       ??_R0?AV<lambda_369f3aee610e50bbd15c3a78d9c8686f>@@@8 00469a44     JigsawDemo.obj
 0003:00000a88       ??_R0?AV<lambda_4d3c514b9e5ad6cc29096aa3b57f98f2>@@@8 00469a88     JigsawDemo.obj
 0003:00000acc       ??_R0?AV<lambda_2870de01b601283699da779de20905fc>@@@8 00469acc     JigsawDemo.obj
 0003:00000b10       ??_R0?AV?$_Func_base@XPAVDisplayableObject@@@std@@@8 00469b10     JigsawDemo.obj
 0003:00000b54       ??_R0?AVJigsawPiece@@@8    00469b54     JigsawDemo.obj
 0003:00000b78       ??_R0?AV?$_Func_impl_no_alloc@V<lambda_2870de01b601283699da779de20905fc>@@XPAVDisplayableObject@@@std@@@8 00469b78     JigsawDemo.obj
 0003:00000c00       ??_R0?AV?$_Func_impl_no_alloc@V<lambda_4d3c514b9e5ad6cc29096aa3b57f98f2>@@XPAVDisplayableObject@@@std@@@8 00469c00     JigsawDemo.obj
 0003:00000c88       ??_R0?AV?$_Func_impl_no_alloc@V<lambda_369f3aee610e50bbd15c3a78d9c8686f>@@XPAVDisplayableObject@@@std@@@8 00469c88     JigsawDemo.obj
 0003:00000d10       ??_R0?AV?$_Func_impl_no_alloc@V<lambda_817584b2460f1bcab806f46a25c321a8>@@XPAVDisplayableObject@@@std@@@8 00469d10     JigsawDemo.obj
 0003:00000d98       ??_R0?AV?$_Func_impl_no_alloc@V<lambda_341a6657abb2758c42a6873833e6116f>@@XPAVDisplayableObject@@@std@@@8 00469d98     JigsawDemo.obj
 0003:00000fb4       ??_R0?AVMyDemoA@@@8        00469fb4     MyDemoA.obj
 0003:00000fd0       ??_R0?AVMyObjectA@@@8      00469fd0     MyObjectA.obj
 0003:00000fec       ??_R0?AVMyTileManager@@@8  00469fec     MyTileManager.obj
 0003:00001010       ??_R0?AVCroppedCoordinateMapping@@@8 0046a010     SimpleImage.obj
 0003:00001040       ??_R0?AVJasonsDemoA@@@8    0046a040     JasonsDemoA.obj
 0003:00001060       ??_R0?AVJasonsObjectA@@@8  0046a060     JasonsObjectA.obj
 0003:00001084       ??_R0?AVJasonsTileManager@@@8 0046a084     JasonsTileManager.obj
 0003:000010ac       ??_R0?AVDragableTokenContainer@@@8 0046a0ac     PlayingCardsDemo.obj
 0003:000010d8       ??_R0?AVCardContainer@@@8  0046a0d8     PlayingCardsDemo.obj
 0003:000010fc       ??_R0?AVDragableToken@@@8  0046a0fc     PlayingCardsDemo.obj
 0003:00001120       ??_R0?AVTokenTray@@@8      0046a120     PlayingCardsDemo.obj
 0003:0000113c       ??_R0?AVCardOrTile@@@8     0046a13c     PlayingCardsDemo.obj
 0003:0000115c       ??_R0?AVCoordinateMappingRotateAndColour@@@8 0046a15c     PlayingCardsDemo.obj
 0003:00001194       ??_R0?AVStarfieldDemo@@@8  0046a194     StarfieldDemo.obj
 0003:000011b8       ??_R0?AVBouncingBall@@@8   0046a1b8     BouncingBall.obj
 0003:000011d8       ??_R0?AVBouncingBall1@@@8  0046a1d8     BouncingBall.obj
 0003:000011fc       ??_R0?AVBouncingBall2@@@8  0046a1fc     BouncingBall.obj
 0003:00001220       ??_R0?AVSimpleFlashingDragableImageObject@@@8 0046a220     ZoomingDemo.obj
 0003:0000125c       ??_R0?AVMazeDemoMain@@@8   0046a25c     MazeDemoMain.obj
 0003:0000127c       ??_R0?AVMazeDemoTileManager@@@8 0046a27c     MazeDemoMain.obj
 0003:000012a4       ??_R0?AVMazeDemoObject@@@8 0046a2a4     MazeDemoObject.obj
 0003:000012c8       ??_R0?AVtype_info@@@8      0046a2c8     MSVCRTD:std_type_info_static.obj
 0003:000012e4       ??_R0?AVbad_alloc@std@@@8  0046a2e4     MSVCRTD:throw_bad_alloc.obj
 0003:00001308       ??_R0?AVbad_array_new_length@std@@@8 0046a308     MSVCRTD:throw_bad_alloc.obj
 0003:00001488       ?_OptionsStorage@?1??__local_stdio_printf_options@@9@4_KA 0046a488     CW3_Game.obj
 0003:00001494       ?_Stinit@?1??_Init@?$basic_filebuf@DU?$char_traits@D@std@@@std@@IAEXPAU_iobuf@@W4_Initfl@23@@Z@4U_Mbstatet@@A 0046a494     CW3_Game.obj
 0003:000014a0       ?_Psave@?$_Facetptr@V?$codecvt@DDU_Mbstatet@@@std@@@std@@2PBVfacet@locale@2@B 0046a4a0     CW3_Game.obj
 0003:000014b0       ?ob@@3PAVMappableImageObject@@A 0046a4b0     ImageMappingDemo.obj
 0003:000014b4       ?returnPressed@@3_NA       0046a4b4     MyDemoA.obj
 0003:000014b8       ?currentSpeed@@3HA         0046a4b8     MyObjectA.obj
 0003:000014bc       ?walkSpeed@@3HA            0046a4bc     MyObjectA.obj
 0003:000014c0       ?runSpeed@@3HA             0046a4c0     MyObjectA.obj
 0003:000014c8       ?g_pManager@ImageManager@@0PAV1@A 0046a4c8     SimpleImage.obj
 0003:000014e0       ___scrt_current_native_startup_state 0046a4e0     MSVCRTD:utility.obj
 0003:000014e4       ___scrt_native_startup_lock 0046a4e4     MSVCRTD:utility.obj
 0003:00001510       ?__type_info_root_node@@3U__type_info_node@@A 0046a510     MSVCRTD:tncleanup.obj
 0003:00001520       ?_OptionsStorage@?1??__local_stdio_scanf_options@@9@4_KA 0046a520     MSVCRTD:default_local_stdio_options.obj
 0003:0000152c       ___scrt_debugger_hook_flag 0046a52c     MSVCRTD:utility_desktop.obj
 0003:000018ec       ___isa_available           0046a8ec     MSVCRTD:cpu_disp.obj
 0003:000018f0       ___favor                   0046a8f0     MSVCRTD:cpu_disp.obj
 0003:000018f8       ___dyn_tls_dtor_callback   0046a8f8     <common>
 0003:00001904       ___dyn_tls_init_callback   0046a904     <common>
 0004:00000000       __imp__QueryPerformanceCounter@4 0046b000     kernel32:KERNEL32.dll
 0004:00000004       __imp__GetCurrentProcessId@0 0046b004     kernel32:KERNEL32.dll
 0004:00000008       __imp__GetCurrentThreadId@0 0046b008     kernel32:KERNEL32.dll
 0004:0000000c       __imp__GetSystemTimeAsFileTime@4 0046b00c     kernel32:KERNEL32.dll
 0004:00000010       __imp__InitializeSListHead@4 0046b010     kernel32:KERNEL32.dll
 0004:00000014       __imp__IsDebuggerPresent@0 0046b014     kernel32:KERNEL32.dll
 0004:00000018       __imp__UnhandledExceptionFilter@4 0046b018     kernel32:KERNEL32.dll
 0004:0000001c       __imp__SetUnhandledExceptionFilter@4 0046b01c     kernel32:KERNEL32.dll
 0004:00000020       __imp__GetStartupInfoW@4   0046b020     kernel32:KERNEL32.dll
 0004:00000024       __imp__IsProcessorFeaturePresent@4 0046b024     kernel32:KERNEL32.dll
 0004:00000028       __imp__GetCurrentProcess@0 0046b028     kernel32:KERNEL32.dll
 0004:0000002c       __imp__TerminateProcess@8  0046b02c     kernel32:KERNEL32.dll
 0004:00000030       __imp__GetCommandLineW@0   0046b030     kernel32:KERNEL32.dll
 0004:00000034       __imp__VirtualAlloc@16     0046b034     kernel32:KERNEL32.dll
 0004:00000038       __imp__GetModuleHandleW@4  0046b038     kernel32:KERNEL32.dll
 0004:0000003c       __imp__VirtualFree@12      0046b03c     kernel32:KERNEL32.dll
 0004:00000040       __imp__WideCharToMultiByte@32 0046b040     kernel32:KERNEL32.dll
 0004:00000044       \177KERNEL32_NULL_THUNK_DATA 0046b044     kernel32:KERNEL32.dll
 0004:0000007c       __imp_?imbue@?$basic_streambuf@DU?$char_traits@D@std@@@std@@MAEXABVlocale@2@@Z 0046b07c     msvcprtd:MSVCP140D.dll
 0004:00000080       __imp_?_Unlock@?$basic_streambuf@DU?$char_traits@D@std@@@std@@UAEXXZ 0046b080     msvcprtd:MSVCP140D.dll
 0004:00000084       __imp_?setbuf@?$basic_streambuf@DU?$char_traits@D@std@@@std@@MAEPAV12@PAD_J@Z 0046b084     msvcprtd:MSVCP140D.dll
 0004:00000088       __imp_?showmanyc@?$basic_streambuf@DU?$char_traits@D@std@@@std@@MAE_JXZ 0046b088     msvcprtd:MSVCP140D.dll
 0004:0000008c       __imp_?sync@?$basic_streambuf@DU?$char_traits@D@std@@@std@@MAEHXZ 0046b08c     msvcprtd:MSVCP140D.dll
 0004:00000090       __imp_?uflow@?$basic_streambuf@DU?$char_traits@D@std@@@std@@MAEHXZ 0046b090     msvcprtd:MSVCP140D.dll
 0004:00000094       __imp_?cout@std@@3V?$basic_ostream@DU?$char_traits@D@std@@@1@A 0046b094     msvcprtd:MSVCP140D.dll
 0004:00000098       __imp_??6?$basic_ostream@DU?$char_traits@D@std@@@std@@QAEAAV01@P6AAAV01@AAV01@@Z@Z 0046b098     msvcprtd:MSVCP140D.dll
 0004:0000009c       __imp_?put@?$basic_ostream@DU?$char_traits@D@std@@@std@@QAEAAV12@D@Z 0046b09c     msvcprtd:MSVCP140D.dll
 0004:000000a0       __imp_?_Xbad_function_call@std@@YAXXZ 0046b0a0     msvcprtd:MSVCP140D.dll
 0004:000000a4       __imp_?id@?$codecvt@DDU_Mbstatet@@@std@@2V0locale@2@A 0046b0a4     msvcprtd:MSVCP140D.dll
 0004:000000a8       __imp_??0_Lockit@std@@QAE@H@Z 0046b0a8     msvcprtd:MSVCP140D.dll
 0004:000000ac       __imp_??1_Lockit@std@@QAE@XZ 0046b0ac     msvcprtd:MSVCP140D.dll
 0004:000000b0       __imp_?uncaught_exception@std@@YA_NXZ 0046b0b0     msvcprtd:MSVCP140D.dll
 0004:000000b4       __imp_?_Xbad_alloc@std@@YAXXZ 0046b0b4     msvcprtd:MSVCP140D.dll
 0004:000000b8       __imp_?_Xinvalid_argument@std@@YAXPBD@Z 0046b0b8     msvcprtd:MSVCP140D.dll
 0004:000000bc       __imp_?_Xlength_error@std@@YAXPBD@Z 0046b0bc     msvcprtd:MSVCP140D.dll
 0004:000000c0       __imp_?_Xout_of_range@std@@YAXPBD@Z 0046b0c0     msvcprtd:MSVCP140D.dll
 0004:000000c4       __imp_??Bid@locale@std@@QAEIXZ 0046b0c4     msvcprtd:MSVCP140D.dll
 0004:000000c8       __imp_?_Getgloballocale@locale@std@@CAPAV_Locimp@12@XZ 0046b0c8     msvcprtd:MSVCP140D.dll
 0004:000000cc       __imp_?always_noconv@codecvt_base@std@@QBE_NXZ 0046b0cc     msvcprtd:MSVCP140D.dll
 0004:000000d0       __imp_?in@?$codecvt@DDU_Mbstatet@@@std@@QBEHAAU_Mbstatet@@PBD1AAPBDPAD3AAPAD@Z 0046b0d0     msvcprtd:MSVCP140D.dll
 0004:000000d4       __imp_?out@?$codecvt@DDU_Mbstatet@@@std@@QBEHAAU_Mbstatet@@PBD1AAPBDPAD3AAPAD@Z 0046b0d4     msvcprtd:MSVCP140D.dll
 0004:000000d8       __imp_?unshift@?$codecvt@DDU_Mbstatet@@@std@@QBEHAAU_Mbstatet@@PAD1AAPAD@Z 0046b0d8     msvcprtd:MSVCP140D.dll
 0004:000000dc       __imp_?_Getcat@?$codecvt@DDU_Mbstatet@@@std@@SAIPAPBVfacet@locale@2@PBV42@@Z 0046b0dc     msvcprtd:MSVCP140D.dll
 0004:000000e0       __imp_??Bios_base@std@@QBE_NXZ 0046b0e0     msvcprtd:MSVCP140D.dll
 0004:000000e4       __imp_?good@ios_base@std@@QBE_NXZ 0046b0e4     msvcprtd:MSVCP140D.dll
 0004:000000e8       __imp_?flags@ios_base@std@@QBEHXZ 0046b0e8     msvcprtd:MSVCP140D.dll
 0004:000000ec       __imp_?width@ios_base@std@@QBE_JXZ 0046b0ec     msvcprtd:MSVCP140D.dll
 0004:000000f0       __imp_?width@ios_base@std@@QAE_J_J@Z 0046b0f0     msvcprtd:MSVCP140D.dll
 0004:000000f4       __imp_??0?$basic_streambuf@DU?$char_traits@D@std@@@std@@IAE@XZ 0046b0f4     msvcprtd:MSVCP140D.dll
 0004:000000f8       __imp_??1?$basic_streambuf@DU?$char_traits@D@std@@@std@@UAE@XZ 0046b0f8     msvcprtd:MSVCP140D.dll
 0004:000000fc       __imp_?getloc@?$basic_streambuf@DU?$char_traits@D@std@@@std@@QBE?AVlocale@2@XZ 0046b0fc     msvcprtd:MSVCP140D.dll
 0004:00000100       __imp_?sbumpc@?$basic_streambuf@DU?$char_traits@D@std@@@std@@QAEHXZ 0046b100     msvcprtd:MSVCP140D.dll
 0004:00000104       __imp_?sgetc@?$basic_streambuf@DU?$char_traits@D@std@@@std@@QAEHXZ 0046b104     msvcprtd:MSVCP140D.dll
 0004:00000108       __imp_?snextc@?$basic_streambuf@DU?$char_traits@D@std@@@std@@QAEHXZ 0046b108     msvcprtd:MSVCP140D.dll
 0004:0000010c       __imp_?sputc@?$basic_streambuf@DU?$char_traits@D@std@@@std@@QAEHD@Z 0046b10c     msvcprtd:MSVCP140D.dll
 0004:00000110       __imp_?sputn@?$basic_streambuf@DU?$char_traits@D@std@@@std@@QAE_JPBD_J@Z 0046b110     msvcprtd:MSVCP140D.dll
 0004:00000114       __imp_?eback@?$basic_streambuf@DU?$char_traits@D@std@@@std@@IBEPADXZ 0046b114     msvcprtd:MSVCP140D.dll
 0004:00000118       __imp_?gptr@?$basic_streambuf@DU?$char_traits@D@std@@@std@@IBEPADXZ 0046b118     msvcprtd:MSVCP140D.dll
 0004:0000011c       __imp_?pptr@?$basic_streambuf@DU?$char_traits@D@std@@@std@@IBEPADXZ 0046b11c     msvcprtd:MSVCP140D.dll
 0004:00000120       __imp_?egptr@?$basic_streambuf@DU?$char_traits@D@std@@@std@@IBEPADXZ 0046b120     msvcprtd:MSVCP140D.dll
 0004:00000124       __imp_?gbump@?$basic_streambuf@DU?$char_traits@D@std@@@std@@IAEXH@Z 0046b124     msvcprtd:MSVCP140D.dll
 0004:00000128       __imp_?setg@?$basic_streambuf@DU?$char_traits@D@std@@@std@@IAEXPAD00@Z 0046b128     msvcprtd:MSVCP140D.dll
 0004:0000012c       __imp_?epptr@?$basic_streambuf@DU?$char_traits@D@std@@@std@@IBEPADXZ 0046b12c     msvcprtd:MSVCP140D.dll
 0004:00000130       __imp_?_Gndec@?$basic_streambuf@DU?$char_traits@D@std@@@std@@IAEPADXZ 0046b130     msvcprtd:MSVCP140D.dll
 0004:00000134       __imp_?_Gninc@?$basic_streambuf@DU?$char_traits@D@std@@@std@@IAEPADXZ 0046b134     msvcprtd:MSVCP140D.dll
 0004:00000138       __imp_?_Gnavail@?$basic_streambuf@DU?$char_traits@D@std@@@std@@IBE_JXZ 0046b138     msvcprtd:MSVCP140D.dll
 0004:0000013c       __imp_?pbump@?$basic_streambuf@DU?$char_traits@D@std@@@std@@IAEXH@Z 0046b13c     msvcprtd:MSVCP140D.dll
 0004:00000140       __imp_?setp@?$basic_streambuf@DU?$char_traits@D@std@@@std@@IAEXPAD0@Z 0046b140     msvcprtd:MSVCP140D.dll
 0004:00000144       __imp_?setp@?$basic_streambuf@DU?$char_traits@D@std@@@std@@IAEXPAD00@Z 0046b144     msvcprtd:MSVCP140D.dll
 0004:00000148       __imp_?_Pninc@?$basic_streambuf@DU?$char_traits@D@std@@@std@@IAEPADXZ 0046b148     msvcprtd:MSVCP140D.dll
 0004:0000014c       __imp_?_Pnavail@?$basic_streambuf@DU?$char_traits@D@std@@@std@@IBE_JXZ 0046b14c     msvcprtd:MSVCP140D.dll
 0004:00000150       __imp_?_Init@?$basic_streambuf@DU?$char_traits@D@std@@@std@@IAEXXZ 0046b150     msvcprtd:MSVCP140D.dll
 0004:00000154       __imp_?_Init@?$basic_streambuf@DU?$char_traits@D@std@@@std@@IAEXPAPAD0PAH001@Z 0046b154     msvcprtd:MSVCP140D.dll
 0004:00000158       __imp_?xsgetn@?$basic_streambuf@DU?$char_traits@D@std@@@std@@MAE_JPAD_J@Z 0046b158     msvcprtd:MSVCP140D.dll
 0004:0000015c       __imp_?xsputn@?$basic_streambuf@DU?$char_traits@D@std@@@std@@MAE_JPBD_J@Z 0046b15c     msvcprtd:MSVCP140D.dll
 0004:00000160       __imp_??1?$basic_ios@DU?$char_traits@D@std@@@std@@UAE@XZ 0046b160     msvcprtd:MSVCP140D.dll
 0004:00000164       __imp_?setstate@?$basic_ios@DU?$char_traits@D@std@@@std@@QAEXH_N@Z 0046b164     msvcprtd:MSVCP140D.dll
 0004:00000168       __imp_?tie@?$basic_ios@DU?$char_traits@D@std@@@std@@QBEPAV?$basic_ostream@DU?$char_traits@D@std@@@2@XZ 0046b168     msvcprtd:MSVCP140D.dll
 0004:0000016c       __imp_?rdbuf@?$basic_ios@DU?$char_traits@D@std@@@std@@QBEPAV?$basic_streambuf@DU?$char_traits@D@std@@@2@XZ 0046b16c     msvcprtd:MSVCP140D.dll
 0004:00000170       __imp_?fill@?$basic_ios@DU?$char_traits@D@std@@@std@@QBEDXZ 0046b170     msvcprtd:MSVCP140D.dll
 0004:00000174       __imp_?widen@?$basic_ios@DU?$char_traits@D@std@@@std@@QBEDD@Z 0046b174     msvcprtd:MSVCP140D.dll
 0004:00000178       __imp_??0?$basic_ios@DU?$char_traits@D@std@@@std@@IAE@XZ 0046b178     msvcprtd:MSVCP140D.dll
 0004:0000017c       __imp_??0?$basic_ostream@DU?$char_traits@D@std@@@std@@QAE@PAV?$basic_streambuf@DU?$char_traits@D@std@@@1@_N@Z 0046b17c     msvcprtd:MSVCP140D.dll
 0004:00000180       __imp_??1?$basic_ostream@DU?$char_traits@D@std@@@std@@UAE@XZ 0046b180     msvcprtd:MSVCP140D.dll
 0004:00000184       __imp_?_Osfx@?$basic_ostream@DU?$char_traits@D@std@@@std@@QAEXXZ 0046b184     msvcprtd:MSVCP140D.dll
 0004:00000188       __imp_??6?$basic_ostream@DU?$char_traits@D@std@@@std@@QAEAAV01@H@Z 0046b188     msvcprtd:MSVCP140D.dll
 0004:0000018c       __imp_?flush@?$basic_ostream@DU?$char_traits@D@std@@@std@@QAEAAV12@XZ 0046b18c     msvcprtd:MSVCP140D.dll
 0004:00000190       __imp_??0?$basic_istream@DU?$char_traits@D@std@@@std@@QAE@PAV?$basic_streambuf@DU?$char_traits@D@std@@@1@_N@Z 0046b190     msvcprtd:MSVCP140D.dll
 0004:00000194       __imp_??1?$basic_istream@DU?$char_traits@D@std@@@std@@UAE@XZ 0046b194     msvcprtd:MSVCP140D.dll
 0004:00000198       __imp_?_Ipfx@?$basic_istream@DU?$char_traits@D@std@@@std@@QAE_N_N@Z 0046b198     msvcprtd:MSVCP140D.dll
 0004:0000019c       __imp_??0?$basic_iostream@DU?$char_traits@D@std@@@std@@QAE@PAV?$basic_streambuf@DU?$char_traits@D@std@@@1@@Z 0046b19c     msvcprtd:MSVCP140D.dll
 0004:000001a0       __imp_??1?$basic_iostream@DU?$char_traits@D@std@@@std@@UAE@XZ 0046b1a0     msvcprtd:MSVCP140D.dll
 0004:000001a4       __imp_?_Fiopen@std@@YAPAU_iobuf@@PBDHH@Z 0046b1a4     msvcprtd:MSVCP140D.dll
 0004:000001a8       __imp_?_Lock@?$basic_streambuf@DU?$char_traits@D@std@@@std@@UAEXXZ 0046b1a8     msvcprtd:MSVCP140D.dll
 0004:000001ac       \177MSVCP140D_NULL_THUNK_DATA 0046b1ac     msvcprtd:MSVCP140D.dll
 0004:00000214       __imp__SDL_UpperBlitScaled 0046b214     SDL2:SDL2.dll
 0004:00000218       __imp__SDL_SetClipRect     0046b218     SDL2:SDL2.dll
 0004:0000021c       __imp__SDL_Quit            0046b21c     SDL2:SDL2.dll
 0004:00000220       __imp__SDL_Init            0046b220     SDL2:SDL2.dll
 0004:00000224       __imp__SDL_GetTicks        0046b224     SDL2:SDL2.dll
 0004:00000228       __imp__SDL_RenderPresent   0046b228     SDL2:SDL2.dll
 0004:0000022c       __imp__SDL_RenderCopy      0046b22c     SDL2:SDL2.dll
 0004:00000230       __imp__SDL_UpdateTexture   0046b230     SDL2:SDL2.dll
 0004:00000234       __imp__SDL_CreateTexture   0046b234     SDL2:SDL2.dll
 0004:00000238       __imp__SDL_CreateRenderer  0046b238     SDL2:SDL2.dll
 0004:0000023c       __imp__SDL_LockSurface     0046b23c     SDL2:SDL2.dll
 0004:00000240       __imp__SDL_WaitEvent       0046b240     SDL2:SDL2.dll
 0004:00000244       __imp__SDL_PollEvent       0046b244     SDL2:SDL2.dll
 0004:00000248       __imp__SDL_CreateWindow    0046b248     SDL2:SDL2.dll
 0004:0000024c       __imp__SDL_GetError        0046b24c     SDL2:SDL2.dll
 0004:00000250       __imp__SDL_UpperBlit       0046b250     SDL2:SDL2.dll
 0004:00000254       __imp__SDL_FreeSurface     0046b254     SDL2:SDL2.dll
 0004:00000258       __imp__SDL_CreateRGBSurface 0046b258     SDL2:SDL2.dll
 0004:0000025c       __imp__SDL_FillRect        0046b25c     SDL2:SDL2.dll
 0004:00000260       __imp__SDL_UnlockSurface   0046b260     SDL2:SDL2.dll
 0004:00000264       __imp__SDL_SetMainReady    0046b264     SDL2:SDL2.dll
 0004:00000268       __imp__SDL_ShowSimpleMessageBox 0046b268     SDL2:SDL2.dll
 0004:0000026c       \177SDL2_NULL_THUNK_DATA   0046b26c     SDL2:SDL2.dll
 0004:000002a8       __imp__IMG_Load            0046b2a8     SDL2_image:SDL2_image.dll
 0004:000002ac       \177SDL2_image_NULL_THUNK_DATA 0046b2ac     SDL2_image:SDL2_image.dll
 0004:000002d8       __imp__TTF_CloseFont       0046b2d8     SDL2_ttf:SDL2_ttf.dll
 0004:000002dc       __imp__TTF_RenderText_Solid 0046b2dc     SDL2_ttf:SDL2_ttf.dll
 0004:000002e0       __imp__TTF_Init            0046b2e0     SDL2_ttf:SDL2_ttf.dll
 0004:000002e4       __imp__TTF_Quit            0046b2e4     SDL2_ttf:SDL2_ttf.dll
 0004:000002e8       __imp__TTF_OpenFont        0046b2e8     SDL2_ttf:SDL2_ttf.dll
 0004:000002ec       \177SDL2_ttf_NULL_THUNK_DATA 0046b2ec     SDL2_ttf:SDL2_ttf.dll
 0004:0000031c       __imp___except_handler4_common 0046b31c     vcruntimed:VCRUNTIME140D.dll
 0004:00000320       __imp__memcpy              0046b320     vcruntimed:VCRUNTIME140D.dll
 0004:00000324       __imp__memmove             0046b324     vcruntimed:VCRUNTIME140D.dll
 0004:00000328       __imp____std_exception_copy 0046b328     vcruntimed:VCRUNTIME140D.dll
 0004:0000032c       __imp____std_exception_destroy 0046b32c     vcruntimed:VCRUNTIME140D.dll
 0004:00000330       __imp___CxxThrowException@8 0046b330     vcruntimed:VCRUNTIME140D.dll
 0004:00000334       __imp____CxxFrameHandler3  0046b334     vcruntimed:VCRUNTIME140D.dll
 0004:00000338       __imp____RTDynamicCast     0046b338     vcruntimed:VCRUNTIME140D.dll
 0004:0000033c       __imp___purecall           0046b33c     vcruntimed:VCRUNTIME140D.dll
 0004:00000340       __imp__memcmp              0046b340     vcruntimed:VCRUNTIME140D.dll
 0004:00000344       __imp__memset              0046b344     vcruntimed:VCRUNTIME140D.dll
 0004:00000348       __imp____std_type_info_destroy_list 0046b348     vcruntimed:VCRUNTIME140D.dll
 0004:0000034c       \177VCRUNTIME140D_NULL_THUNK_DATA 0046b34c     vcruntimed:VCRUNTIME140D.dll
 0004:00000380       __imp__strlen              0046b380     ucrtd:ucrtbased.dll
 0004:00000384       __imp____acrt_iob_func     0046b384     ucrtd:ucrtbased.dll
 0004:00000388       __imp____stdio_common_vfprintf 0046b388     ucrtd:ucrtbased.dll
 0004:0000038c       __imp__fabs                0046b38c     ucrtd:ucrtbased.dll
 0004:00000390       __imp__pow                 0046b390     ucrtd:ucrtbased.dll
 0004:00000394       __imp__sqrt                0046b394     ucrtd:ucrtbased.dll
 0004:00000398       __imp__atan                0046b398     ucrtd:ucrtbased.dll
 0004:0000039c       __imp__atan2               0046b39c     ucrtd:ucrtbased.dll
 0004:000003a0       __imp__cos                 0046b3a0     ucrtd:ucrtbased.dll
 0004:000003a4       __imp__sin                 0046b3a4     ucrtd:ucrtbased.dll
 0004:000003a8       __imp__atoi                0046b3a8     ucrtd:ucrtbased.dll
 0004:000003ac       __imp__fgets               0046b3ac     ucrtd:ucrtbased.dll
 0004:000003b0       __imp__fopen               0046b3b0     ucrtd:ucrtbased.dll
 0004:000003b4       __imp___CrtDumpMemoryLeaks 0046b3b4     ucrtd:ucrtbased.dll
 0004:000003b8       __imp__srand               0046b3b8     ucrtd:ucrtbased.dll
 0004:000003bc       __imp___time64             0046b3bc     ucrtd:ucrtbased.dll
 0004:000003c0       __imp__puts                0046b3c0     ucrtd:ucrtbased.dll
 0004:000003c4       __imp__strcmp              0046b3c4     ucrtd:ucrtbased.dll
 0004:000003c8       __imp__strcpy              0046b3c8     ucrtd:ucrtbased.dll
 0004:000003cc       __imp___free_dbg           0046b3cc     ucrtd:ucrtbased.dll
 0004:000003d0       __imp___malloc_dbg         0046b3d0     ucrtd:ucrtbased.dll
 0004:000003d4       __imp___seh_filter_exe     0046b3d4     ucrtd:ucrtbased.dll
 0004:000003d8       __imp___set_app_type       0046b3d8     ucrtd:ucrtbased.dll
 0004:000003dc       __imp____setusermatherr    0046b3dc     ucrtd:ucrtbased.dll
 0004:000003e0       __imp___unlock_file        0046b3e0     ucrtd:ucrtbased.dll
 0004:000003e4       __imp___initialize_narrow_environment 0046b3e4     ucrtd:ucrtbased.dll
 0004:000003e8       __imp___get_initial_narrow_environment 0046b3e8     ucrtd:ucrtbased.dll
 0004:000003ec       __imp___initterm           0046b3ec     ucrtd:ucrtbased.dll
 0004:000003f0       __imp___initterm_e         0046b3f0     ucrtd:ucrtbased.dll
 0004:000003f4       __imp__exit                0046b3f4     ucrtd:ucrtbased.dll
 0004:000003f8       __imp___exit               0046b3f8     ucrtd:ucrtbased.dll
 0004:000003fc       __imp___set_fmode          0046b3fc     ucrtd:ucrtbased.dll
 0004:00000400       __imp____p___argc          0046b400     ucrtd:ucrtbased.dll
 0004:00000404       __imp____p___argv          0046b404     ucrtd:ucrtbased.dll
 0004:00000408       __imp___cexit              0046b408     ucrtd:ucrtbased.dll
 0004:0000040c       __imp___c_exit             0046b40c     ucrtd:ucrtbased.dll
 0004:00000410       __imp___register_thread_local_exe_atexit_callback 0046b410     ucrtd:ucrtbased.dll
 0004:00000414       __imp___configthreadlocale 0046b414     ucrtd:ucrtbased.dll
 0004:00000418       __imp___set_new_mode       0046b418     ucrtd:ucrtbased.dll
 0004:0000041c       __imp____p__commode        0046b41c     ucrtd:ucrtbased.dll
 0004:00000420       __imp___callnewh           0046b420     ucrtd:ucrtbased.dll
 0004:00000424       __imp__malloc              0046b424     ucrtd:ucrtbased.dll
 0004:00000428       __imp___seh_filter_dll     0046b428     ucrtd:ucrtbased.dll
 0004:0000042c       __imp___initialize_onexit_table 0046b42c     ucrtd:ucrtbased.dll
 0004:00000430       __imp___register_onexit_function 0046b430     ucrtd:ucrtbased.dll
 0004:00000434       __imp___execute_onexit_table 0046b434     ucrtd:ucrtbased.dll
 0004:00000438       __imp___crt_atexit         0046b438     ucrtd:ucrtbased.dll
 0004:0000043c       __imp___crt_at_quick_exit  0046b43c     ucrtd:ucrtbased.dll
 0004:00000440       __imp___controlfp_s        0046b440     ucrtd:ucrtbased.dll
 0004:00000444       __imp__terminate           0046b444     ucrtd:ucrtbased.dll
 0004:00000448       __imp____stdio_common_vsprintf 0046b448     ucrtd:ucrtbased.dll
 0004:0000044c       __imp___lock_file          0046b44c     ucrtd:ucrtbased.dll
 0004:00000450       __imp__ungetc              0046b450     ucrtd:ucrtbased.dll
 0004:00000454       __imp__setvbuf             0046b454     ucrtd:ucrtbased.dll
 0004:00000458       __imp__fwrite              0046b458     ucrtd:ucrtbased.dll
 0004:0000045c       __imp___fseeki64           0046b45c     ucrtd:ucrtbased.dll
 0004:00000460       __imp__fsetpos             0046b460     ucrtd:ucrtbased.dll
 0004:00000464       __imp__fread               0046b464     ucrtd:ucrtbased.dll
 0004:00000468       __imp__fputc               0046b468     ucrtd:ucrtbased.dll
 0004:0000046c       __imp__fgetpos             0046b46c     ucrtd:ucrtbased.dll
 0004:00000470       __imp__fgetc               0046b470     ucrtd:ucrtbased.dll
 0004:00000474       __imp__fflush              0046b474     ucrtd:ucrtbased.dll
 0004:00000478       __imp__fclose              0046b478     ucrtd:ucrtbased.dll
 0004:0000047c       __imp___get_stream_buffer_pointers 0046b47c     ucrtd:ucrtbased.dll
 0004:00000480       __imp__strtol              0046b480     ucrtd:ucrtbased.dll
 0004:00000484       __imp__rand                0046b484     ucrtd:ucrtbased.dll
 0004:00000488       __imp___errno              0046b488     ucrtd:ucrtbased.dll
 0004:0000048c       __imp___CrtDbgReport       0046b48c     ucrtd:ucrtbased.dll
 0004:00000490       __imp___invalid_parameter  0046b490     ucrtd:ucrtbased.dll
 0004:00000494       __imp___configure_narrow_argv 0046b494     ucrtd:ucrtbased.dll
 0004:00000498       \177ucrtbased_NULL_THUNK_DATA 0046b498     ucrtd:ucrtbased.dll
 0004:000004fc       __IMPORT_DESCRIPTOR_SDL2   0046b4fc     SDL2:SDL2.dll
 0004:00000510       __IMPORT_DESCRIPTOR_SDL2_image 0046b510     SDL2_image:SDL2_image.dll
 0004:00000524       __IMPORT_DESCRIPTOR_SDL2_ttf 0046b524     SDL2_ttf:SDL2_ttf.dll
 0004:00000538       __IMPORT_DESCRIPTOR_MSVCP140D 0046b538     msvcprtd:MSVCP140D.dll
 0004:0000054c       __IMPORT_DESCRIPTOR_VCRUNTIME140D 0046b54c     vcruntimed:VCRUNTIME140D.dll
 0004:00000560       __IMPORT_DESCRIPTOR_ucrtbased 0046b560     ucrtd:ucrtbased.dll
 0004:00000574       __IMPORT_DESCRIPTOR_KERNEL32 0046b574     kernel32:KERNEL32.dll
 0004:00000588       __NULL_IMPORT_DESCRIPTOR   0046b588     SDL2:SDL2.dll
 0005:00000000       ___guard_check_icall_fptr  0046e000     MSVCRTD:guard_support.obj

 entry point at        0001:0000267a

 Static symbols

 0001:fffff000       __unwindfunclet$?_Tidy@?$_Tree@V?$_Tmap_traits@V?$basic_string@DU?$char_traits@D@std@@V?$allocator@D@2@@std@@V?$weak_ptr@VRawImageData@@@2@U?$less@V?$basic_string@DU?$char_traits@D@std@@V?$allocator@D@2@@std@@@2@V?$allocator@U?$pair@$$CBV?$basic_string@DU?$char_traits@D@std@@V?$allocator@D@2@@std@@V?$weak_ptr@VRawImageData@@@2@@std@@@2@$0A@@std@@@std@@IAEXXZ$0 00400000 f   mainfunction.obj
 0000:fff90000       .debug$S                   00400000     kernel32:KERNEL32.dll
 0000:fff90000       .debug$S                   00400000     kernel32:KERNEL32.dll
 0001:fffff000       __ehhandler$?_Use_count@_Ref_count_base@std@@QBEJXZ 00400000 f   DraggingDemo.obj
 0000:fff90000       .debug$S                   00400000     SDL2:SDL2.dll
 0000:fff90000       .debug$S                   00400000     SDL2:SDL2.dll
 0002:fffa7000       __unwindtable$?_Extract@?$_Tree_val@U?$_Tree_simple_types@U?$pair@$$CBV?$basic_string@DU?$char_traits@D@std@@V?$allocator@D@2@@std@@V?$shared_ptr@VRawImageData@@@2@@std@@@std@@@std@@QAEPAU?$_Tree_node@U?$pair@$$CBV?$basic_string@DU?$char_traits@D@std@@V?$allocator@D@2@@std@@V?$shared_ptr@VRawImageData@@@2@@std@@PAX@2@V?$_Tree_const_iterator@V?$_Tree_val@U?$_Tree_simple_types@U?$pair@$$CBV?$basic_string@DU?$char_traits@D@std@@V?$allocator@D@2@@std@@V?$shared_ptr@VRawImageData@@@2@@std@@@std@@@std@@@2@@Z 00400000     mainfunction.obj
 0001:fffff000       __ehhandler$??1?$_String_alloc@U?$_String_base_types@DV?$allocator@D@std@@@std@@@std@@QAE@XZ 00400000 f   mainfunction.obj
 0001:fffff000       __ehhandler$?end@?$_Tree@V?$_Tmap_traits@V?$basic_string@DU?$char_traits@D@std@@V?$allocator@D@2@@std@@V?$weak_ptr@VRawImageData@@@2@U?$less@V?$basic_string@DU?$char_traits@D@std@@V?$allocator@D@2@@std@@@2@V?$allocator@U?$pair@$$CBV?$basic_string@DU?$char_traits@D@std@@V?$allocator@D@2@@std@@V?$weak_ptr@VRawImageData@@@2@@std@@@2@$0A@@std@@@std@@QAE?AV?$_Tree_iterator@V?$_Tree_val@U?$_Tree_simple_types@U?$pair@$$CBV?$basic_string@DU?$char_traits@D@std@@V?$allocator@D@2@@std@@V?$weak_ptr@VRawImageData@@@2@@std@@@std@@@std@@@2@XZ 00400000 f   MyImageMappingDemo.obj
 0001:fffff000       __ehhandler$?begin@?$_Tree@V?$_Tmap_traits@V?$basic_string@DU?$char_traits@D@std@@V?$allocator@D@2@@std@@V?$weak_ptr@VRawImageData@@@2@U?$less@V?$basic_string@DU?$char_traits@D@std@@V?$allocator@D@2@@std@@@2@V?$allocator@U?$pair@$$CBV?$basic_string@DU?$char_traits@D@std@@V?$allocator@D@2@@std@@V?$weak_ptr@VRawImageData@@@2@@std@@@2@$0A@@std@@@std@@QAE?AV?$_Tree_iterator@V?$_Tree_val@U?$_Tree_simple_types@U?$pair@$$CBV?$basic_string@DU?$char_traits@D@std@@V?$allocator@D@2@@std@@V?$weak_ptr@VRawImageData@@@2@@std@@@std@@@std@@@2@XZ 00400000 f   MyImageMappingDemo.obj
 0001:fffff000       __ehhandler$??1?$_Tree@V?$_Tmap_traits@V?$basic_string@DU?$char_traits@D@std@@V?$allocator@D@2@@std@@V?$weak_ptr@VRawImageData@@@2@U?$less@V?$basic_string@DU?$char_traits@D@std@@V?$allocator@D@2@@std@@@2@V?$allocator@U?$pair@$$CBV?$basic_string@DU?$char_traits@D@std@@V?$allocator@D@2@@std@@V?$weak_ptr@VRawImageData@@@2@@std@@@2@$0A@@std@@@std@@QAE@XZ 00400000 f   MyImageMappingDemo.obj
 0001:fffff000       __unwindfunclet$?_Extract@?$_Tree_val@U?$_Tree_simple_types@U?$pair@$$CBV?$basic_string@DU?$char_traits@D@std@@V?$allocator@D@2@@std@@V?$weak_ptr@VRawImageData@@@2@@std@@@std@@@std@@QAEPAU?$_Tree_node@U?$pair@$$CBV?$basic_string@DU?$char_traits@D@std@@V?$allocator@D@2@@std@@V?$weak_ptr@VRawImageData@@@2@@std@@PAX@2@V?$_Tree_const_iterator@V?$_Tree_val@U?$_Tree_simple_types@U?$pair@$$CBV?$basic_string@DU?$char_traits@D@std@@V?$allocator@D@2@@std@@V?$weak_ptr@VRawImageData@@@2@@std@@@std@@@std@@@2@@Z$0 00400000 f   MyImageMappingDemo.obj
 0001:fffff000       __ehhandler$??1?$basic_string@DU?$char_traits@D@std@@V?$allocator@D@2@@std@@QAE@XZ 00400000 f   mainfunction.obj
 0001:fffff000       __ehhandler$??1?$shared_ptr@VRawImageData@@@std@@QAE@XZ 00400000 f   mainfunction.obj
 0001:fffff000       __ehhandler$?_Buynode0@?$_Tree_comp_alloc@V?$_Tmap_traits@V?$basic_string@DU?$char_traits@D@std@@V?$allocator@D@2@@std@@V?$weak_ptr@VRawImageData@@@2@U?$less@V?$basic_string@DU?$char_traits@D@std@@V?$allocator@D@2@@std@@@2@V?$allocator@U?$pair@$$CBV?$basic_string@DU?$char_traits@D@std@@V?$allocator@D@2@@std@@V?$weak_ptr@VRawImageData@@@2@@std@@@2@$0A@@std@@@std@@QAEPAU?$_Tree_node@U?$pair@$$CBV?$basic_string@DU?$char_traits@D@std@@V?$allocator@D@2@@std@@V?$weak_ptr@VRawImageData@@@2@@std@@PAX@2@XZ 00400000 f   MyImageMappingDemo.obj
 0001:fffff000       __unwindfunclet$?getImagePtrbyURL@ImageManager@@QAE?AV?$shared_ptr@VRawImageData@@@std@@V?$basic_string@DU?$char_traits@D@std@@V?$allocator@D@2@@3@_N1@Z$0 00400000 f   CW3_SimpleGun.obj
 0001:fffff000       __ehhandler$?_Buyheadnode@?$_Tree_comp_alloc@V?$_Tmap_traits@V?$basic_string@DU?$char_traits@D@std@@V?$allocator@D@2@@std@@V?$weak_ptr@VRawImageData@@@2@U?$less@V?$basic_string@DU?$char_traits@D@std@@V?$allocator@D@2@@std@@@2@V?$allocator@U?$pair@$$CBV?$basic_string@DU?$char_traits@D@std@@V?$allocator@D@2@@std@@V?$weak_ptr@VRawImageData@@@2@@std@@@2@$0A@@std@@@std@@QAEPAU?$_Tree_node@U?$pair@$$CBV?$basic_string@DU?$char_traits@D@std@@V?$allocator@D@2@@std@@V?$weak_ptr@VRawImageData@@@2@@std@@PAX@2@XZ 00400000 f   MyImageMappingDemo.obj
 0001:fffff000       __ehhandler$??1?$_Tree_comp_alloc@V?$_Tmap_traits@V?$basic_string@DU?$char_traits@D@std@@V?$allocator@D@2@@std@@V?$weak_ptr@VRawImageData@@@2@U?$less@V?$basic_string@DU?$char_traits@D@std@@V?$allocator@D@2@@std@@@2@V?$allocator@U?$pair@$$CBV?$basic_string@DU?$char_traits@D@std@@V?$allocator@D@2@@std@@V?$weak_ptr@VRawImageData@@@2@@std@@@2@$0A@@std@@@std@@QAE@XZ 00400000 f   MyImageMappingDemo.obj
 0001:fffff000       __ehhandler$??1?$_Tree_comp_alloc@V?$_Tmap_traits@V?$basic_string@DU?$char_traits@D@std@@V?$allocator@D@2@@std@@V?$weak_ptr@VRawImageData@@@2@U?$less@V?$basic_string@DU?$char_traits@D@std@@V?$allocator@D@2@@std@@@2@V?$allocator@U?$pair@$$CBV?$basic_string@DU?$char_traits@D@std@@V?$allocator@D@2@@std@@V?$weak_ptr@VRawImageData@@@2@@std@@@2@$0A@@std@@@std@@QAE@XZ 00400000 f   mainfunction.obj
 0001:fffff000       __ehhandler$?_Construct@?$_Tree_comp_alloc@V?$_Tmap_traits@V?$basic_string@DU?$char_traits@D@std@@V?$allocator@D@2@@std@@V?$weak_ptr@VRawImageData@@@2@U?$less@V?$basic_string@DU?$char_traits@D@std@@V?$allocator@D@2@@std@@@2@V?$allocator@U?$pair@$$CBV?$basic_string@DU?$char_traits@D@std@@V?$allocator@D@2@@std@@V?$weak_ptr@VRawImageData@@@2@@std@@@2@$0A@@std@@@std@@QAEXXZ 00400000 f   MyImageMappingDemo.obj
 0001:fffff000       __ehhandler$??1?$shared_ptr@VRawImageData@@@std@@QAE@XZ 00400000 f   MyImageMappingDemo.obj
 0001:fffff000       __ehhandler$??0?$shared_ptr@VRawImageData@@@std@@QAE@$$QAV01@@Z 00400000 f   MyImageMappingDemo.obj
 0001:fffff000       __ehhandler$??0?$shared_ptr@VRawImageData@@@std@@QAE@ABV01@@Z 00400000 f   MyImageMappingDemo.obj
 0001:fffff000       __unwindfunclet$?loadImage@RawImageData@@QAE_NV?$basic_string@DU?$char_traits@D@std@@V?$allocator@D@2@@std@@HHHHH_N@Z$0 00400000 f   MyImageMappingDemo.obj
 0001:fffff000       __unwindfunclet$?_Extract@?$_Tree_val@U?$_Tree_simple_types@U?$pair@$$CBV?$basic_string@DU?$char_traits@D@std@@V?$allocator@D@2@@std@@V?$weak_ptr@VRawImageData@@@2@@std@@@std@@@std@@QAEPAU?$_Tree_node@U?$pair@$$CBV?$basic_string@DU?$char_traits@D@std@@V?$allocator@D@2@@std@@V?$weak_ptr@VRawImageData@@@2@@std@@PAX@2@V?$_Tree_const_iterator@V?$_Tree_val@U?$_Tree_simple_types@U?$pair@$$CBV?$basic_string@DU?$char_traits@D@std@@V?$allocator@D@2@@std@@V?$weak_ptr@VRawImageData@@@2@@std@@@std@@@std@@@2@@Z$0 00400000 f   mainfunction.obj
 0001:fffff000       __ehhandler$??1RawImageData@@QAE@XZ 00400000 f   MyImageMappingDemo.obj
 0001:fffff000       __unwindfunclet$??0RawImageData@@QAE@V?$basic_string@DU?$char_traits@D@std@@V?$allocator@D@2@@std@@@Z$0 00400000 f   MyImageMappingDemo.obj
 0001:fffff000       __ehhandler$??1?$_Tree@V?$_Tmap_traits@V?$basic_string@DU?$char_traits@D@std@@V?$allocator@D@2@@std@@V?$weak_ptr@VRawImageData@@@2@U?$less@V?$basic_string@DU?$char_traits@D@std@@V?$allocator@D@2@@std@@@2@V?$allocator@U?$pair@$$CBV?$basic_string@DU?$char_traits@D@std@@V?$allocator@D@2@@std@@V?$weak_ptr@VRawImageData@@@2@@std@@@2@$0A@@std@@@std@@QAE@XZ 00400000 f   mainfunction.obj
 0001:fffff000       __unwindfunclet$?_Orphan_range@?$vector@PAVDisplayableObject@@V?$allocator@PAVDisplayableObject@@@std@@@std@@ABEXPAPAVDisplayableObject@@0@Z$0 00400000 f   MyImageMappingDemo.obj
 0001:fffff000       __ehhandler$?begin@?$_Tree@V?$_Tmap_traits@V?$basic_string@DU?$char_traits@D@std@@V?$allocator@D@2@@std@@V?$weak_ptr@VRawImageData@@@2@U?$less@V?$basic_string@DU?$char_traits@D@std@@V?$allocator@D@2@@std@@@2@V?$allocator@U?$pair@$$CBV?$basic_string@DU?$char_traits@D@std@@V?$allocator@D@2@@std@@V?$weak_ptr@VRawImageData@@@2@@std@@@2@$0A@@std@@@std@@QAE?AV?$_Tree_iterator@V?$_Tree_val@U?$_Tree_simple_types@U?$pair@$$CBV?$basic_string@DU?$char_traits@D@std@@V?$allocator@D@2@@std@@V?$weak_ptr@VRawImageData@@@2@@std@@@std@@@std@@@2@XZ 00400000 f   mainfunction.obj
 0001:fffff000       __unwindfunclet$??$?6U?$char_traits@D@std@@@std@@YAAAV?$basic_ostream@DU?$char_traits@D@std@@@0@AAV10@PBD@Z$2 00400000 f   MyImageMappingDemo.obj
 0001:fffff000       __ehhandler$?end@?$_Tree@V?$_Tmap_traits@V?$basic_string@DU?$char_traits@D@std@@V?$allocator@D@2@@std@@V?$weak_ptr@VRawImageData@@@2@U?$less@V?$basic_string@DU?$char_traits@D@std@@V?$allocator@D@2@@std@@@2@V?$allocator@U?$pair@$$CBV?$basic_string@DU?$char_traits@D@std@@V?$allocator@D@2@@std@@V?$weak_ptr@VRawImageData@@@2@@std@@@2@$0A@@std@@@std@@QAE?AV?$_Tree_iterator@V?$_Tree_val@U?$_Tree_simple_types@U?$pair@$$CBV?$basic_string@DU?$char_traits@D@std@@V?$allocator@D@2@@std@@V?$weak_ptr@VRawImageData@@@2@@std@@@std@@@std@@@2@XZ 00400000 f   mainfunction.obj
 0001:fffff000       __unwindfunclet$?erase@?$_Tree@V?$_Tmap_traits@V?$basic_string@DU?$char_traits@D@std@@V?$allocator@D@2@@std@@V?$weak_ptr@VRawImageData@@@2@U?$less@V?$basic_string@DU?$char_traits@D@std@@V?$allocator@D@2@@std@@@2@V?$allocator@U?$pair@$$CBV?$basic_string@DU?$char_traits@D@std@@V?$allocator@D@2@@std@@V?$weak_ptr@VRawImageData@@@2@@std@@@2@$0A@@std@@@std@@QAE?AV?$_Tree_iterator@V?$_Tree_val@U?$_Tree_simple_types@U?$pair@$$CBV?$basic_string@DU?$char_traits@D@std@@V?$allocator@D@2@@std@@V?$weak_ptr@VRawImageData@@@2@@std@@@std@@@std@@@2@V?$_Tree_const_iterator@V?$_Tree_val@U?$_Tree_simple_types@U?$pair@$$CBV?$basic_string@DU?$char_traits@D@std@@V?$allocator@D@2@@std@@V?$weak_ptr@VRawImageData@@@2@@std@@@std@@@std@@@2@@Z$0 00400000 f   mainfunction.obj
 0001:fffff000       __ehhandler$?_Use_count@_Ref_count_base@std@@QBEJXZ 00400000 f   MyImageMappingDemo.obj
 0001:fffff000       __ehhandler$?compare@?$basic_string@DU?$char_traits@D@std@@V?$allocator@D@2@@std@@QBEHABV12@@Z 00400000 f   MyImageMappingDemo.obj
 0001:fffff000       __ehhandler$?data@?$basic_string@DU?$char_traits@D@std@@V?$allocator@D@2@@std@@QBEPBDXZ 00400000 f   MyImageMappingDemo.obj
 0001:fffff000       __ehhandler$?c_str@?$basic_string@DU?$char_traits@D@std@@V?$allocator@D@2@@std@@QBEPBDXZ 00400000 f   MyImageMappingDemo.obj
 0001:fffff000       __ehhandler$??1?$basic_string@DU?$char_traits@D@std@@V?$allocator@D@2@@std@@QAE@XZ 00400000 f   MyImageMappingDemo.obj
 0001:fffff000       __ehhandler$?_Assign_rv_contents_with_alloc_always_equal@?$basic_string@DU?$char_traits@D@std@@V?$allocator@D@2@@std@@QAEX$$QAV12@U?$integral_constant@_N$00@2@@Z 00400000 f   MyImageMappingDemo.obj
 0001:fffff000       __ehhandler$??0?$basic_string@DU?$char_traits@D@std@@V?$allocator@D@2@@std@@QAE@$$QAV01@@Z 00400000 f   MyImageMappingDemo.obj
 0001:fffff000       __unwindfunclet$??0?$basic_string@DU?$char_traits@D@std@@V?$allocator@D@2@@std@@QAE@QBD@Z$0 00400000 f   MyImageMappingDemo.obj
 0001:fffff000       __unwindfunclet$?erase@?$_Tree@V?$_Tmap_traits@V?$basic_string@DU?$char_traits@D@std@@V?$allocator@D@2@@std@@V?$weak_ptr@VRawImageData@@@2@U?$less@V?$basic_string@DU?$char_traits@D@std@@V?$allocator@D@2@@std@@@2@V?$allocator@U?$pair@$$CBV?$basic_string@DU?$char_traits@D@std@@V?$allocator@D@2@@std@@V?$weak_ptr@VRawImageData@@@2@@std@@@2@$0A@@std@@@std@@QAE?AV?$_Tree_iterator@V?$_Tree_val@U?$_Tree_simple_types@U?$pair@$$CBV?$basic_string@DU?$char_traits@D@std@@V?$allocator@D@2@@std@@V?$weak_ptr@VRawImageData@@@2@@std@@@std@@@std@@@2@V?$_Tree_const_iterator@V?$_Tree_val@U?$_Tree_simple_types@U?$pair@$$CBV?$basic_string@DU?$char_traits@D@std@@V?$allocator@D@2@@std@@V?$weak_ptr@VRawImageData@@@2@@std@@@std@@@std@@@2@0@Z$0 00400000 f   mainfunction.obj
 0001:fffff000       __unwindfunclet$??0?$basic_string@DU?$char_traits@D@std@@V?$allocator@D@2@@std@@QAE@ABV01@@Z$0 00400000 f   MyImageMappingDemo.obj
 0001:fffff000       __ehhandler$?clear@?$_Tree@V?$_Tmap_traits@V?$basic_string@DU?$char_traits@D@std@@V?$allocator@D@2@@std@@V?$weak_ptr@VRawImageData@@@2@U?$less@V?$basic_string@DU?$char_traits@D@std@@V?$allocator@D@2@@std@@@2@V?$allocator@U?$pair@$$CBV?$basic_string@DU?$char_traits@D@std@@V?$allocator@D@2@@std@@V?$weak_ptr@VRawImageData@@@2@@std@@@2@$0A@@std@@@std@@QAEXXZ 00400000 f   mainfunction.obj
 0001:fffff000       __ehhandler$??1?$_String_alloc@U?$_String_base_types@DV?$allocator@D@std@@@std@@@std@@QAE@XZ 00400000 f   MyImageMappingDemo.obj
 0001:fffff000       __unwindfunclet$??0?$_String_alloc@U?$_String_base_types@DV?$allocator@D@std@@@std@@@std@@QAE@XZ$0 00400000 f   MyImageMappingDemo.obj
 0001:fffff000       __unwindfunclet$?_Orphan_ptr@?$_Tree@V?$_Tmap_traits@V?$basic_string@DU?$char_traits@D@std@@V?$allocator@D@2@@std@@V?$weak_ptr@VRawImageData@@@2@U?$less@V?$basic_string@DU?$char_traits@D@std@@V?$allocator@D@2@@std@@@2@V?$allocator@U?$pair@$$CBV?$basic_string@DU?$char_traits@D@std@@V?$allocator@D@2@@std@@V?$weak_ptr@VRawImageData@@@2@@std@@@2@$0A@@std@@@std@@IAEXPAU?$_Tree_node@U?$pair@$$CBV?$basic_string@DU?$char_traits@D@std@@V?$allocator@D@2@@std@@V?$weak_ptr@VRawImageData@@@2@@std@@PAX@2@@Z$0 00400000 f   mainfunction.obj
 0001:fffff000       __ehhandler$?_Adopt@_Iterator_base12@std@@QAEXPBU_Container_base12@2@@Z 00400000 f   MyImageMappingDemo.obj
 0001:fffff000       __ehhandler$??1_Iterator_base12@std@@QAE@XZ 00400000 f   MyImageMappingDemo.obj
 0001:fffff000       __ehhandler$??4_Iterator_base12@std@@QAEAAU01@ABU01@@Z 00400000 f   MyImageMappingDemo.obj
 0001:fffff000       __ehhandler$?_Swap_all@_Container_base12@std@@QAEXAAU12@@Z 00400000 f   MyImageMappingDemo.obj
 0001:fffff000       __ehhandler$?_Orphan_all@_Container_base12@std@@QAEXXZ 00400000 f   MyImageMappingDemo.obj
 0001:fffff000       __ehhandler$??1?$_Tree_comp_alloc@V?$_Tmap_traits@V?$basic_string@DU?$char_traits@D@std@@V?$allocator@D@2@@std@@V?$shared_ptr@VRawImageData@@@2@U?$less@V?$basic_string@DU?$char_traits@D@std@@V?$allocator@D@2@@std@@@2@V?$allocator@U?$pair@$$CBV?$basic_string@DU?$char_traits@D@std@@V?$allocator@D@2@@std@@V?$shared_ptr@VRawImageData@@@2@@std@@@2@$0A@@std@@@std@@QAE@XZ 00400000 f   mainfunction.obj
 0001:fffff000       __unwindfunclet$?_Extract@?$_Tree_val@U?$_Tree_simple_types@U?$pair@$$CBV?$basic_string@DU?$char_traits@D@std@@V?$allocator@D@2@@std@@V?$shared_ptr@VRawImageData@@@2@@std@@@std@@@std@@QAEPAU?$_Tree_node@U?$pair@$$CBV?$basic_string@DU?$char_traits@D@std@@V?$allocator@D@2@@std@@V?$shared_ptr@VRawImageData@@@2@@std@@PAX@2@V?$_Tree_const_iterator@V?$_Tree_val@U?$_Tree_simple_types@U?$pair@$$CBV?$basic_string@DU?$char_traits@D@std@@V?$allocator@D@2@@std@@V?$shared_ptr@VRawImageData@@@2@@std@@@std@@@std@@@2@@Z$0 00400000 f   mainfunction.obj
 0001:fffff000       __ehhandler$??1?$_Tree@V?$_Tmap_traits@V?$basic_string@DU?$char_traits@D@std@@V?$allocator@D@2@@std@@V?$shared_ptr@VRawImageData@@@2@U?$less@V?$basic_string@DU?$char_traits@D@std@@V?$allocator@D@2@@std@@@2@V?$allocator@U?$pair@$$CBV?$basic_string@DU?$char_traits@D@std@@V?$allocator@D@2@@std@@V?$shared_ptr@VRawImageData@@@2@@std@@@2@$0A@@std@@@std@@QAE@XZ 00400000 f   mainfunction.obj
 0001:fffff000       __ehhandler$?begin@?$_Tree@V?$_Tmap_traits@V?$basic_string@DU?$char_traits@D@std@@V?$allocator@D@2@@std@@V?$shared_ptr@VRawImageData@@@2@U?$less@V?$basic_string@DU?$char_traits@D@std@@V?$allocator@D@2@@std@@@2@V?$allocator@U?$pair@$$CBV?$basic_string@DU?$char_traits@D@std@@V?$allocator@D@2@@std@@V?$shared_ptr@VRawImageData@@@2@@std@@@2@$0A@@std@@@std@@QAE?AV?$_Tree_iterator@V?$_Tree_val@U?$_Tree_simple_types@U?$pair@$$CBV?$basic_string@DU?$char_traits@D@std@@V?$allocator@D@2@@std@@V?$shared_ptr@VRawImageData@@@2@@std@@@std@@@std@@@2@XZ 00400000 f   mainfunction.obj
 0002:fffa7000       __catchsym$??$_Insert_nohint@AAU?$pair@$$CBV?$basic_string@DU?$char_traits@D@std@@V?$allocator@D@2@@std@@V?$shared_ptr@VRawImageData@@@2@@std@@PAU?$_Tree_node@U?$pair@$$CBV?$basic_string@DU?$char_traits@D@std@@V?$allocator@D@2@@std@@V?$shared_ptr@VRawImageData@@@2@@std@@PAX@2@@?$_Tree@V?$_Tmap_traits@V?$basic_string@DU?$char_traits@D@std@@V?$allocator@D@2@@std@@V?$shared_ptr@VRawImageData@@@2@U?$less@V?$basic_string@DU?$char_traits@D@std@@V?$allocator@D@2@@std@@@2@V?$allocator@U?$pair@$$CBV?$basic_string@DU?$char_traits@D@std@@V?$allocator@D@2@@std@@V?$shared_ptr@VRawImageData@@@2@@std@@@2@$0A@@std@@@std@@IAE?AU?$pair@V?$_Tree_iterator@V?$_Tree_val@U?$_Tree_simple_types@U?$pair@$$CBV?$basic_string@DU?$char_traits@D@std@@V?$allocator@D@2@@std@@V?$shared_ptr@VRawImageData@@@2@@std@@@std@@@std@@@std@@_N@1@_NAAU?$pair@$$CBV?$basic_string@DU?$char_traits@D@std@@V?$allocator@D@2@@std@@V?$shared_ptr@VRawImageData@@@2@@1@PAU?$_Tree_node@U?$pair@$$CBV?$basic_string@DU?$char_traits@D@std@@V?$allocator@D@2@@std@@V?$shared_ptr@VRawImageData@@@2@@std@@PAX@1@@Z$8 00400000     MyDemoA.obj
 0001:fffff000       __ehhandler$?end@?$_Tree@V?$_Tmap_traits@V?$basic_string@DU?$char_traits@D@std@@V?$allocator@D@2@@std@@V?$shared_ptr@VRawImageData@@@2@U?$less@V?$basic_string@DU?$char_traits@D@std@@V?$allocator@D@2@@std@@@2@V?$allocator@U?$pair@$$CBV?$basic_string@DU?$char_traits@D@std@@V?$allocator@D@2@@std@@V?$shared_ptr@VRawImageData@@@2@@std@@@2@$0A@@std@@@std@@QAE?AV?$_Tree_iterator@V?$_Tree_val@U?$_Tree_simple_types@U?$pair@$$CBV?$basic_string@DU?$char_traits@D@std@@V?$allocator@D@2@@std@@V?$shared_ptr@VRawImageData@@@2@@std@@@std@@@std@@@2@XZ 00400000 f   mainfunction.obj
 0001:fffff000       __unwindfunclet$?erase@?$_Tree@V?$_Tmap_traits@V?$basic_string@DU?$char_traits@D@std@@V?$allocator@D@2@@std@@V?$shared_ptr@VRawImageData@@@2@U?$less@V?$basic_string@DU?$char_traits@D@std@@V?$allocator@D@2@@std@@@2@V?$allocator@U?$pair@$$CBV?$basic_string@DU?$char_traits@D@std@@V?$allocator@D@2@@std@@V?$shared_ptr@VRawImageData@@@2@@std@@@2@$0A@@std@@@std@@QAE?AV?$_Tree_iterator@V?$_Tree_val@U?$_Tree_simple_types@U?$pair@$$CBV?$basic_string@DU?$char_traits@D@std@@V?$allocator@D@2@@std@@V?$shared_ptr@VRawImageData@@@2@@std@@@std@@@std@@@2@V?$_Tree_const_iterator@V?$_Tree_val@U?$_Tree_simple_types@U?$pair@$$CBV?$basic_string@DU?$char_traits@D@std@@V?$allocator@D@2@@std@@V?$shared_ptr@VRawImageData@@@2@@std@@@std@@@std@@@2@@Z$0 00400000 f   mainfunction.obj
 0001:fffff000       __unwindfunclet$?getImagebyURL@ImageManager@@QAE?AVSimpleImage@@V?$basic_string@DU?$char_traits@D@std@@V?$allocator@D@2@@std@@_N1@Z$0 00400000 f   CW3_SimpleGun.obj
 0002:fffa7000       __catchsym$??$_Buynode@U?$pair@V?$basic_string@DU?$char_traits@D@std@@V?$allocator@D@2@@std@@V?$shared_ptr@VRawImageData@@@2@@std@@@?$_Tree_comp_alloc@V?$_Tmap_traits@V?$basic_string@DU?$char_traits@D@std@@V?$allocator@D@2@@std@@V?$shared_ptr@VRawImageData@@@2@U?$less@V?$basic_string@DU?$char_traits@D@std@@V?$allocator@D@2@@std@@@2@V?$allocator@U?$pair@$$CBV?$basic_string@DU?$char_traits@D@std@@V?$allocator@D@2@@std@@V?$shared_ptr@VRawImageData@@@2@@std@@@2@$0A@@std@@@std@@QAEPAU?$_Tree_node@U?$pair@$$CBV?$basic_string@DU?$char_traits@D@std@@V?$allocator@D@2@@std@@V?$shared_ptr@VRawImageData@@@2@@std@@PAX@1@$$QAU?$pair@V?$basic_string@DU?$char_traits@D@std@@V?$allocator@D@2@@std@@V?$shared_ptr@VRawImageData@@@2@@1@@Z$2 00400000     MyDemoA.obj
 0002:fffa7000       __unwindtable$?get@ImageManager@@SAPAV1@XZ 00400000     CW3_SimpleGun.obj
 0001:fffff000       __unwindfunclet$?erase@?$_Tree@V?$_Tmap_traits@V?$basic_string@DU?$char_traits@D@std@@V?$allocator@D@2@@std@@V?$shared_ptr@VRawImageData@@@2@U?$less@V?$basic_string@DU?$char_traits@D@std@@V?$allocator@D@2@@std@@@2@V?$allocator@U?$pair@$$CBV?$basic_string@DU?$char_traits@D@std@@V?$allocator@D@2@@std@@V?$shared_ptr@VRawImageData@@@2@@std@@@2@$0A@@std@@@std@@QAE?AV?$_Tree_iterator@V?$_Tree_val@U?$_Tree_simple_types@U?$pair@$$CBV?$basic_string@DU?$char_traits@D@std@@V?$allocator@D@2@@std@@V?$shared_ptr@VRawImageData@@@2@@std@@@std@@@std@@@2@V?$_Tree_const_iterator@V?$_Tree_val@U?$_Tree_simple_types@U?$pair@$$CBV?$basic_string@DU?$char_traits@D@std@@V?$allocator@D@2@@std@@V?$shared_ptr@VRawImageData@@@2@@std@@@std@@@std@@@2@0@Z$0 00400000 f   mainfunction.obj
 0001:fffff000       __ehhandler$?clear@?$_Tree@V?$_Tmap_traits@V?$basic_string@DU?$char_traits@D@std@@V?$allocator@D@2@@std@@V?$shared_ptr@VRawImageData@@@2@U?$less@V?$basic_string@DU?$char_traits@D@std@@V?$allocator@D@2@@std@@@2@V?$allocator@U?$pair@$$CBV?$basic_string@DU?$char_traits@D@std@@V?$allocator@D@2@@std@@V?$shared_ptr@VRawImageData@@@2@@std@@@2@$0A@@std@@@std@@QAEXXZ 00400000 f   mainfunction.obj
 0002:fffa7000       __catchsym$??$_Insert_nohint@AAU?$pair@$$CBV?$basic_string@DU?$char_traits@D@std@@V?$allocator@D@2@@std@@V?$weak_ptr@VRawImageData@@@2@@std@@PAU?$_Tree_node@U?$pair@$$CBV?$basic_string@DU?$char_traits@D@std@@V?$allocator@D@2@@std@@V?$weak_ptr@VRawImageData@@@2@@std@@PAX@2@@?$_Tree@V?$_Tmap_traits@V?$basic_string@DU?$char_traits@D@std@@V?$allocator@D@2@@std@@V?$weak_ptr@VRawImageData@@@2@U?$less@V?$basic_string@DU?$char_traits@D@std@@V?$allocator@D@2@@std@@@2@V?$allocator@U?$pair@$$CBV?$basic_string@DU?$char_traits@D@std@@V?$allocator@D@2@@std@@V?$weak_ptr@VRawImageData@@@2@@std@@@2@$0A@@std@@@std@@IAE?AU?$pair@V?$_Tree_iterator@V?$_Tree_val@U?$_Tree_simple_types@U?$pair@$$CBV?$basic_string@DU?$char_traits@D@std@@V?$allocator@D@2@@std@@V?$weak_ptr@VRawImageData@@@2@@std@@@std@@@std@@@std@@_N@1@_NAAU?$pair@$$CBV?$basic_string@DU?$char_traits@D@std@@V?$allocator@D@2@@std@@V?$weak_ptr@VRawImageData@@@2@@1@PAU?$_Tree_node@U?$pair@$$CBV?$basic_string@DU?$char_traits@D@std@@V?$allocator@D@2@@std@@V?$weak_ptr@VRawImageData@@@2@@std@@PAX@1@@Z$8 00400000     MyDemoA.obj
